
SCUTTLE_V0.elf:     file format elf32-littlearm

Sections:
Idx Name          Size      VMA       LMA       File off  Algn
  0 .isr_vector   00000188  08000000  08000000  00001000  2**0
                  CONTENTS, ALLOC, LOAD, READONLY, DATA
  1 .text         000087c8  08000188  08000188  00001188  2**2
                  CONTENTS, ALLOC, LOAD, READONLY, CODE
  2 .rodata       00000048  08008950  08008950  00009950  2**2
                  CONTENTS, ALLOC, LOAD, READONLY, DATA
  3 .ARM.extab    00000000  08008998  08008998  0000a00c  2**0
                  CONTENTS
  4 .ARM          00000008  08008998  08008998  00009998  2**2
                  CONTENTS, ALLOC, LOAD, READONLY, DATA
  5 .preinit_array 00000000  080089a0  080089a0  0000a00c  2**0
                  CONTENTS, ALLOC, LOAD, DATA
  6 .init_array   00000004  080089a0  080089a0  000099a0  2**2
                  CONTENTS, ALLOC, LOAD, READONLY, DATA
  7 .fini_array   00000004  080089a4  080089a4  000099a4  2**2
                  CONTENTS, ALLOC, LOAD, READONLY, DATA
  8 .data         0000000c  20000000  080089a8  0000a000  2**2
                  CONTENTS, ALLOC, LOAD, DATA
  9 .bss          00000520  2000000c  080089b4  0000a00c  2**2
                  ALLOC
 10 ._user_heap_stack 00000604  2000052c  080089b4  0000a52c  2**0
                  ALLOC
 11 .ARM.attributes 00000030  00000000  00000000  0000a00c  2**0
                  CONTENTS, READONLY
 12 .debug_info   0001b4b5  00000000  00000000  0000a03c  2**0
                  CONTENTS, READONLY, DEBUGGING, OCTETS
 13 .debug_abbrev 00003186  00000000  00000000  000254f1  2**0
                  CONTENTS, READONLY, DEBUGGING, OCTETS
 14 .debug_aranges 00001898  00000000  00000000  00028678  2**3
                  CONTENTS, READONLY, DEBUGGING, OCTETS
 15 .debug_rnglists 0000136b  00000000  00000000  00029f10  2**0
                  CONTENTS, READONLY, DEBUGGING, OCTETS
 16 .debug_macro  0000309d  00000000  00000000  0002b27b  2**0
                  CONTENTS, READONLY, DEBUGGING, OCTETS
 17 .debug_line   0001dc1d  00000000  00000000  0002e318  2**0
                  CONTENTS, READONLY, DEBUGGING, OCTETS
 18 .debug_str    000f9b1b  00000000  00000000  0004bf35  2**0
                  CONTENTS, READONLY, DEBUGGING, OCTETS
 19 .comment      00000043  00000000  00000000  00145a50  2**0
                  CONTENTS, READONLY
 20 .debug_frame  00006b18  00000000  00000000  00145a94  2**2
                  CONTENTS, READONLY, DEBUGGING, OCTETS
 21 .debug_line_str 0000005e  00000000  00000000  0014c5ac  2**0
                  CONTENTS, READONLY, DEBUGGING, OCTETS

Disassembly of section .text:

08000188 <__do_global_dtors_aux>:
 8000188:	b510      	push	{r4, lr}
 800018a:	4c05      	ldr	r4, [pc, #20]	@ (80001a0 <__do_global_dtors_aux+0x18>)
 800018c:	7823      	ldrb	r3, [r4, #0]
 800018e:	b933      	cbnz	r3, 800019e <__do_global_dtors_aux+0x16>
 8000190:	4b04      	ldr	r3, [pc, #16]	@ (80001a4 <__do_global_dtors_aux+0x1c>)
 8000192:	b113      	cbz	r3, 800019a <__do_global_dtors_aux+0x12>
 8000194:	4804      	ldr	r0, [pc, #16]	@ (80001a8 <__do_global_dtors_aux+0x20>)
 8000196:	f3af 8000 	nop.w
 800019a:	2301      	movs	r3, #1
 800019c:	7023      	strb	r3, [r4, #0]
 800019e:	bd10      	pop	{r4, pc}
 80001a0:	2000000c 	.word	0x2000000c
 80001a4:	00000000 	.word	0x00000000
 80001a8:	08008938 	.word	0x08008938

080001ac <frame_dummy>:
 80001ac:	b508      	push	{r3, lr}
 80001ae:	4b03      	ldr	r3, [pc, #12]	@ (80001bc <frame_dummy+0x10>)
 80001b0:	b11b      	cbz	r3, 80001ba <frame_dummy+0xe>
 80001b2:	4903      	ldr	r1, [pc, #12]	@ (80001c0 <frame_dummy+0x14>)
 80001b4:	4803      	ldr	r0, [pc, #12]	@ (80001c4 <frame_dummy+0x18>)
 80001b6:	f3af 8000 	nop.w
 80001ba:	bd08      	pop	{r3, pc}
 80001bc:	00000000 	.word	0x00000000
 80001c0:	20000010 	.word	0x20000010
 80001c4:	08008938 	.word	0x08008938

080001c8 <__aeabi_uldivmod>:
 80001c8:	b953      	cbnz	r3, 80001e0 <__aeabi_uldivmod+0x18>
 80001ca:	b94a      	cbnz	r2, 80001e0 <__aeabi_uldivmod+0x18>
 80001cc:	2900      	cmp	r1, #0
 80001ce:	bf08      	it	eq
 80001d0:	2800      	cmpeq	r0, #0
 80001d2:	bf1c      	itt	ne
 80001d4:	f04f 31ff 	movne.w	r1, #4294967295
 80001d8:	f04f 30ff 	movne.w	r0, #4294967295
 80001dc:	f000 b96a 	b.w	80004b4 <__aeabi_idiv0>
 80001e0:	f1ad 0c08 	sub.w	ip, sp, #8
 80001e4:	e96d ce04 	strd	ip, lr, [sp, #-16]!
 80001e8:	f000 f806 	bl	80001f8 <__udivmoddi4>
 80001ec:	f8dd e004 	ldr.w	lr, [sp, #4]
 80001f0:	e9dd 2302 	ldrd	r2, r3, [sp, #8]
 80001f4:	b004      	add	sp, #16
 80001f6:	4770      	bx	lr

080001f8 <__udivmoddi4>:
 80001f8:	e92d 47f0 	stmdb	sp!, {r4, r5, r6, r7, r8, r9, sl, lr}
 80001fc:	9d08      	ldr	r5, [sp, #32]
 80001fe:	460c      	mov	r4, r1
 8000200:	2b00      	cmp	r3, #0
 8000202:	d14e      	bne.n	80002a2 <__udivmoddi4+0xaa>
 8000204:	4694      	mov	ip, r2
 8000206:	458c      	cmp	ip, r1
 8000208:	4686      	mov	lr, r0
 800020a:	fab2 f282 	clz	r2, r2
 800020e:	d962      	bls.n	80002d6 <__udivmoddi4+0xde>
 8000210:	b14a      	cbz	r2, 8000226 <__udivmoddi4+0x2e>
 8000212:	f1c2 0320 	rsb	r3, r2, #32
 8000216:	4091      	lsls	r1, r2
 8000218:	fa20 f303 	lsr.w	r3, r0, r3
 800021c:	fa0c fc02 	lsl.w	ip, ip, r2
 8000220:	4319      	orrs	r1, r3
 8000222:	fa00 fe02 	lsl.w	lr, r0, r2
 8000226:	ea4f 471c 	mov.w	r7, ip, lsr #16
 800022a:	fa1f f68c 	uxth.w	r6, ip
 800022e:	fbb1 f4f7 	udiv	r4, r1, r7
 8000232:	ea4f 431e 	mov.w	r3, lr, lsr #16
 8000236:	fb07 1114 	mls	r1, r7, r4, r1
 800023a:	ea43 4301 	orr.w	r3, r3, r1, lsl #16
 800023e:	fb04 f106 	mul.w	r1, r4, r6
 8000242:	4299      	cmp	r1, r3
 8000244:	d90a      	bls.n	800025c <__udivmoddi4+0x64>
 8000246:	eb1c 0303 	adds.w	r3, ip, r3
 800024a:	f104 30ff 	add.w	r0, r4, #4294967295
 800024e:	f080 8112 	bcs.w	8000476 <__udivmoddi4+0x27e>
 8000252:	4299      	cmp	r1, r3
 8000254:	f240 810f 	bls.w	8000476 <__udivmoddi4+0x27e>
 8000258:	3c02      	subs	r4, #2
 800025a:	4463      	add	r3, ip
 800025c:	1a59      	subs	r1, r3, r1
 800025e:	fa1f f38e 	uxth.w	r3, lr
 8000262:	fbb1 f0f7 	udiv	r0, r1, r7
 8000266:	fb07 1110 	mls	r1, r7, r0, r1
 800026a:	ea43 4301 	orr.w	r3, r3, r1, lsl #16
 800026e:	fb00 f606 	mul.w	r6, r0, r6
 8000272:	429e      	cmp	r6, r3
 8000274:	d90a      	bls.n	800028c <__udivmoddi4+0x94>
 8000276:	eb1c 0303 	adds.w	r3, ip, r3
 800027a:	f100 31ff 	add.w	r1, r0, #4294967295
 800027e:	f080 80fc 	bcs.w	800047a <__udivmoddi4+0x282>
 8000282:	429e      	cmp	r6, r3
 8000284:	f240 80f9 	bls.w	800047a <__udivmoddi4+0x282>
 8000288:	4463      	add	r3, ip
 800028a:	3802      	subs	r0, #2
 800028c:	1b9b      	subs	r3, r3, r6
 800028e:	ea40 4004 	orr.w	r0, r0, r4, lsl #16
 8000292:	2100      	movs	r1, #0
 8000294:	b11d      	cbz	r5, 800029e <__udivmoddi4+0xa6>
 8000296:	40d3      	lsrs	r3, r2
 8000298:	2200      	movs	r2, #0
 800029a:	e9c5 3200 	strd	r3, r2, [r5]
 800029e:	e8bd 87f0 	ldmia.w	sp!, {r4, r5, r6, r7, r8, r9, sl, pc}
 80002a2:	428b      	cmp	r3, r1
 80002a4:	d905      	bls.n	80002b2 <__udivmoddi4+0xba>
 80002a6:	b10d      	cbz	r5, 80002ac <__udivmoddi4+0xb4>
 80002a8:	e9c5 0100 	strd	r0, r1, [r5]
 80002ac:	2100      	movs	r1, #0
 80002ae:	4608      	mov	r0, r1
 80002b0:	e7f5      	b.n	800029e <__udivmoddi4+0xa6>
 80002b2:	fab3 f183 	clz	r1, r3
 80002b6:	2900      	cmp	r1, #0
 80002b8:	d146      	bne.n	8000348 <__udivmoddi4+0x150>
 80002ba:	42a3      	cmp	r3, r4
 80002bc:	d302      	bcc.n	80002c4 <__udivmoddi4+0xcc>
 80002be:	4290      	cmp	r0, r2
 80002c0:	f0c0 80f0 	bcc.w	80004a4 <__udivmoddi4+0x2ac>
 80002c4:	1a86      	subs	r6, r0, r2
 80002c6:	eb64 0303 	sbc.w	r3, r4, r3
 80002ca:	2001      	movs	r0, #1
 80002cc:	2d00      	cmp	r5, #0
 80002ce:	d0e6      	beq.n	800029e <__udivmoddi4+0xa6>
 80002d0:	e9c5 6300 	strd	r6, r3, [r5]
 80002d4:	e7e3      	b.n	800029e <__udivmoddi4+0xa6>
 80002d6:	2a00      	cmp	r2, #0
 80002d8:	f040 8090 	bne.w	80003fc <__udivmoddi4+0x204>
 80002dc:	eba1 040c 	sub.w	r4, r1, ip
 80002e0:	ea4f 481c 	mov.w	r8, ip, lsr #16
 80002e4:	fa1f f78c 	uxth.w	r7, ip
 80002e8:	2101      	movs	r1, #1
 80002ea:	fbb4 f6f8 	udiv	r6, r4, r8
 80002ee:	ea4f 431e 	mov.w	r3, lr, lsr #16
 80002f2:	fb08 4416 	mls	r4, r8, r6, r4
 80002f6:	ea43 4304 	orr.w	r3, r3, r4, lsl #16
 80002fa:	fb07 f006 	mul.w	r0, r7, r6
 80002fe:	4298      	cmp	r0, r3
 8000300:	d908      	bls.n	8000314 <__udivmoddi4+0x11c>
 8000302:	eb1c 0303 	adds.w	r3, ip, r3
 8000306:	f106 34ff 	add.w	r4, r6, #4294967295
 800030a:	d202      	bcs.n	8000312 <__udivmoddi4+0x11a>
 800030c:	4298      	cmp	r0, r3
 800030e:	f200 80cd 	bhi.w	80004ac <__udivmoddi4+0x2b4>
 8000312:	4626      	mov	r6, r4
 8000314:	1a1c      	subs	r4, r3, r0
 8000316:	fa1f f38e 	uxth.w	r3, lr
 800031a:	fbb4 f0f8 	udiv	r0, r4, r8
 800031e:	fb08 4410 	mls	r4, r8, r0, r4
 8000322:	ea43 4304 	orr.w	r3, r3, r4, lsl #16
 8000326:	fb00 f707 	mul.w	r7, r0, r7
 800032a:	429f      	cmp	r7, r3
 800032c:	d908      	bls.n	8000340 <__udivmoddi4+0x148>
 800032e:	eb1c 0303 	adds.w	r3, ip, r3
 8000332:	f100 34ff 	add.w	r4, r0, #4294967295
 8000336:	d202      	bcs.n	800033e <__udivmoddi4+0x146>
 8000338:	429f      	cmp	r7, r3
 800033a:	f200 80b0 	bhi.w	800049e <__udivmoddi4+0x2a6>
 800033e:	4620      	mov	r0, r4
 8000340:	1bdb      	subs	r3, r3, r7
 8000342:	ea40 4006 	orr.w	r0, r0, r6, lsl #16
 8000346:	e7a5      	b.n	8000294 <__udivmoddi4+0x9c>
 8000348:	f1c1 0620 	rsb	r6, r1, #32
 800034c:	408b      	lsls	r3, r1
 800034e:	fa22 f706 	lsr.w	r7, r2, r6
 8000352:	431f      	orrs	r7, r3
 8000354:	fa20 fc06 	lsr.w	ip, r0, r6
 8000358:	fa04 f301 	lsl.w	r3, r4, r1
 800035c:	ea43 030c 	orr.w	r3, r3, ip
 8000360:	40f4      	lsrs	r4, r6
 8000362:	fa00 f801 	lsl.w	r8, r0, r1
 8000366:	0c38      	lsrs	r0, r7, #16
 8000368:	ea4f 4913 	mov.w	r9, r3, lsr #16
 800036c:	fbb4 fef0 	udiv	lr, r4, r0
 8000370:	fa1f fc87 	uxth.w	ip, r7
 8000374:	fb00 441e 	mls	r4, r0, lr, r4
 8000378:	ea49 4404 	orr.w	r4, r9, r4, lsl #16
 800037c:	fb0e f90c 	mul.w	r9, lr, ip
 8000380:	45a1      	cmp	r9, r4
 8000382:	fa02 f201 	lsl.w	r2, r2, r1
 8000386:	d90a      	bls.n	800039e <__udivmoddi4+0x1a6>
 8000388:	193c      	adds	r4, r7, r4
 800038a:	f10e 3aff 	add.w	sl, lr, #4294967295
 800038e:	f080 8084 	bcs.w	800049a <__udivmoddi4+0x2a2>
 8000392:	45a1      	cmp	r9, r4
 8000394:	f240 8081 	bls.w	800049a <__udivmoddi4+0x2a2>
 8000398:	f1ae 0e02 	sub.w	lr, lr, #2
 800039c:	443c      	add	r4, r7
 800039e:	eba4 0409 	sub.w	r4, r4, r9
 80003a2:	fa1f f983 	uxth.w	r9, r3
 80003a6:	fbb4 f3f0 	udiv	r3, r4, r0
 80003aa:	fb00 4413 	mls	r4, r0, r3, r4
 80003ae:	ea49 4404 	orr.w	r4, r9, r4, lsl #16
 80003b2:	fb03 fc0c 	mul.w	ip, r3, ip
 80003b6:	45a4      	cmp	ip, r4
 80003b8:	d907      	bls.n	80003ca <__udivmoddi4+0x1d2>
 80003ba:	193c      	adds	r4, r7, r4
 80003bc:	f103 30ff 	add.w	r0, r3, #4294967295
 80003c0:	d267      	bcs.n	8000492 <__udivmoddi4+0x29a>
 80003c2:	45a4      	cmp	ip, r4
 80003c4:	d965      	bls.n	8000492 <__udivmoddi4+0x29a>
 80003c6:	3b02      	subs	r3, #2
 80003c8:	443c      	add	r4, r7
 80003ca:	ea43 400e 	orr.w	r0, r3, lr, lsl #16
 80003ce:	fba0 9302 	umull	r9, r3, r0, r2
 80003d2:	eba4 040c 	sub.w	r4, r4, ip
 80003d6:	429c      	cmp	r4, r3
 80003d8:	46ce      	mov	lr, r9
 80003da:	469c      	mov	ip, r3
 80003dc:	d351      	bcc.n	8000482 <__udivmoddi4+0x28a>
 80003de:	d04e      	beq.n	800047e <__udivmoddi4+0x286>
 80003e0:	b155      	cbz	r5, 80003f8 <__udivmoddi4+0x200>
 80003e2:	ebb8 030e 	subs.w	r3, r8, lr
 80003e6:	eb64 040c 	sbc.w	r4, r4, ip
 80003ea:	fa04 f606 	lsl.w	r6, r4, r6
 80003ee:	40cb      	lsrs	r3, r1
 80003f0:	431e      	orrs	r6, r3
 80003f2:	40cc      	lsrs	r4, r1
 80003f4:	e9c5 6400 	strd	r6, r4, [r5]
 80003f8:	2100      	movs	r1, #0
 80003fa:	e750      	b.n	800029e <__udivmoddi4+0xa6>
 80003fc:	f1c2 0320 	rsb	r3, r2, #32
 8000400:	fa20 f103 	lsr.w	r1, r0, r3
 8000404:	fa0c fc02 	lsl.w	ip, ip, r2
 8000408:	fa24 f303 	lsr.w	r3, r4, r3
 800040c:	4094      	lsls	r4, r2
 800040e:	430c      	orrs	r4, r1
 8000410:	ea4f 481c 	mov.w	r8, ip, lsr #16
 8000414:	fa00 fe02 	lsl.w	lr, r0, r2
 8000418:	fa1f f78c 	uxth.w	r7, ip
 800041c:	fbb3 f0f8 	udiv	r0, r3, r8
 8000420:	fb08 3110 	mls	r1, r8, r0, r3
 8000424:	0c23      	lsrs	r3, r4, #16
 8000426:	ea43 4301 	orr.w	r3, r3, r1, lsl #16
 800042a:	fb00 f107 	mul.w	r1, r0, r7
 800042e:	4299      	cmp	r1, r3
 8000430:	d908      	bls.n	8000444 <__udivmoddi4+0x24c>
 8000432:	eb1c 0303 	adds.w	r3, ip, r3
 8000436:	f100 36ff 	add.w	r6, r0, #4294967295
 800043a:	d22c      	bcs.n	8000496 <__udivmoddi4+0x29e>
 800043c:	4299      	cmp	r1, r3
 800043e:	d92a      	bls.n	8000496 <__udivmoddi4+0x29e>
 8000440:	3802      	subs	r0, #2
 8000442:	4463      	add	r3, ip
 8000444:	1a5b      	subs	r3, r3, r1
 8000446:	b2a4      	uxth	r4, r4
 8000448:	fbb3 f1f8 	udiv	r1, r3, r8
 800044c:	fb08 3311 	mls	r3, r8, r1, r3
 8000450:	ea44 4403 	orr.w	r4, r4, r3, lsl #16
 8000454:	fb01 f307 	mul.w	r3, r1, r7
 8000458:	42a3      	cmp	r3, r4
 800045a:	d908      	bls.n	800046e <__udivmoddi4+0x276>
 800045c:	eb1c 0404 	adds.w	r4, ip, r4
 8000460:	f101 36ff 	add.w	r6, r1, #4294967295
 8000464:	d213      	bcs.n	800048e <__udivmoddi4+0x296>
 8000466:	42a3      	cmp	r3, r4
 8000468:	d911      	bls.n	800048e <__udivmoddi4+0x296>
 800046a:	3902      	subs	r1, #2
 800046c:	4464      	add	r4, ip
 800046e:	1ae4      	subs	r4, r4, r3
 8000470:	ea41 4100 	orr.w	r1, r1, r0, lsl #16
 8000474:	e739      	b.n	80002ea <__udivmoddi4+0xf2>
 8000476:	4604      	mov	r4, r0
 8000478:	e6f0      	b.n	800025c <__udivmoddi4+0x64>
 800047a:	4608      	mov	r0, r1
 800047c:	e706      	b.n	800028c <__udivmoddi4+0x94>
 800047e:	45c8      	cmp	r8, r9
 8000480:	d2ae      	bcs.n	80003e0 <__udivmoddi4+0x1e8>
 8000482:	ebb9 0e02 	subs.w	lr, r9, r2
 8000486:	eb63 0c07 	sbc.w	ip, r3, r7
 800048a:	3801      	subs	r0, #1
 800048c:	e7a8      	b.n	80003e0 <__udivmoddi4+0x1e8>
 800048e:	4631      	mov	r1, r6
 8000490:	e7ed      	b.n	800046e <__udivmoddi4+0x276>
 8000492:	4603      	mov	r3, r0
 8000494:	e799      	b.n	80003ca <__udivmoddi4+0x1d2>
 8000496:	4630      	mov	r0, r6
 8000498:	e7d4      	b.n	8000444 <__udivmoddi4+0x24c>
 800049a:	46d6      	mov	lr, sl
 800049c:	e77f      	b.n	800039e <__udivmoddi4+0x1a6>
 800049e:	4463      	add	r3, ip
 80004a0:	3802      	subs	r0, #2
 80004a2:	e74d      	b.n	8000340 <__udivmoddi4+0x148>
 80004a4:	4606      	mov	r6, r0
 80004a6:	4623      	mov	r3, r4
 80004a8:	4608      	mov	r0, r1
 80004aa:	e70f      	b.n	80002cc <__udivmoddi4+0xd4>
 80004ac:	3e02      	subs	r6, #2
 80004ae:	4463      	add	r3, ip
 80004b0:	e730      	b.n	8000314 <__udivmoddi4+0x11c>
 80004b2:	bf00      	nop

080004b4 <__aeabi_idiv0>:
 80004b4:	4770      	bx	lr
 80004b6:	bf00      	nop

080004b8 <main>:
/**
  * @brief  The application entry point.
  * @retval int
  */
int main(void)
{
 80004b8:	b5f0      	push	{r4, r5, r6, r7, lr}
 80004ba:	b0ab      	sub	sp, #172	@ 0xac
 80004bc:	af24      	add	r7, sp, #144	@ 0x90
  /* USER CODE END 1 */

  /* MCU Configuration--------------------------------------------------------*/

  /* Reset of all peripherals, Initializes the Flash interface and the Systick. */
  HAL_Init();
 80004be:	f001 fcfe 	bl	8001ebe <HAL_Init>

  /* USER CODE BEGIN Init */
  /* USER CODE END Init */

  /* Configure the system clock */
  SystemClock_Config();
 80004c2:	f000 f8c9 	bl	8000658 <SystemClock_Config>

/* Configure the peripherals common clocks */
  PeriphCommonClock_Config();
 80004c6:	f000 f916 	bl	80006f6 <PeriphCommonClock_Config>

  /* USER CODE BEGIN SysInit */
  /* USER CODE END SysInit */

  /* Initialize all configured peripherals */
  MX_GPIO_Init();
 80004ca:	f000 febd 	bl	8001248 <MX_GPIO_Init>
  MX_TIM1_Init();
 80004ce:	f000 fb09 	bl	8000ae4 <MX_TIM1_Init>
  MX_ADC1_Init();
 80004d2:	f000 f93b 	bl	800074c <MX_ADC1_Init>
  MX_ADC2_Init();
 80004d6:	f000 f9af 	bl	8000838 <MX_ADC2_Init>
  MX_ADC3_Init();
 80004da:	f000 fa21 	bl	8000920 <MX_ADC3_Init>
  MX_TIM2_Init();
 80004de:	f000 fbf1 	bl	8000cc4 <MX_TIM2_Init>
  MX_SPI3_Init();
 80004e2:	f000 fac1 	bl	8000a68 <MX_SPI3_Init>
  MX_TIM3_Init();
 80004e6:	f000 fc41 	bl	8000d6c <MX_TIM3_Init>
  MX_USART3_UART_Init();
 80004ea:	f000 fe7d 	bl	80011e8 <MX_USART3_UART_Init>
  MX_TIM4_Init();
 80004ee:	f000 fc93 	bl	8000e18 <MX_TIM4_Init>
  MX_TIM5_Init();
 80004f2:	f000 fce7 	bl	8000ec4 <MX_TIM5_Init>
  MX_I2C2_Init();
 80004f6:	f000 fa77 	bl	80009e8 <MX_I2C2_Init>
  MX_TIM8_Init();
 80004fa:	f000 fd43 	bl	8000f84 <MX_TIM8_Init>
  MX_TIM15_Init();
 80004fe:	f000 fdf5 	bl	80010ec <MX_TIM15_Init>
  MX_TIM17_Init();
 8000502:	f000 fe4b 	bl	800119c <MX_TIM17_Init>

  //Put timers in correct mode
  ;


  HAL_TIM_IC_Start_IT(&htim15, TIM_CHANNEL_1);
 8000506:	2100      	movs	r1, #0
 8000508:	4849      	ldr	r0, [pc, #292]	@ (8000630 <main+0x178>)
 800050a:	f005 f99f 	bl	800584c <HAL_TIM_IC_Start_IT>
  //Set ADC in correct mode
  HAL_ADC_Start(&hadc1);
 800050e:	4849      	ldr	r0, [pc, #292]	@ (8000634 <main+0x17c>)
 8000510:	f002 f85c 	bl	80025cc <HAL_ADC_Start>
  HAL_ADC_Start(&hadc2);
 8000514:	4848      	ldr	r0, [pc, #288]	@ (8000638 <main+0x180>)
 8000516:	f002 f859 	bl	80025cc <HAL_ADC_Start>
  //hadc1.Init.EOCSelection = DISABLE; //Apparently important
  //hadc2.Init.EOCSelection = DISABLE; //Apparently important
  HAL_ADC_Start(&hadc3);
 800051a:	4848      	ldr	r0, [pc, #288]	@ (800063c <main+0x184>)
 800051c:	f002 f856 	bl	80025cc <HAL_ADC_Start>
  //hadc3.Init.EOCSelection = DISABLE; //Apparently important


	// Start PWM for motor 1 and motor 2 channels
	HAL_TIM_PWM_Start(&htim1, TIM_CHANNEL_1);
 8000520:	2100      	movs	r1, #0
 8000522:	4847      	ldr	r0, [pc, #284]	@ (8000640 <main+0x188>)
 8000524:	f005 f834 	bl	8005590 <HAL_TIM_PWM_Start>
	HAL_TIM_PWM_Start(&htim1, TIM_CHANNEL_2);
 8000528:	2104      	movs	r1, #4
 800052a:	4845      	ldr	r0, [pc, #276]	@ (8000640 <main+0x188>)
 800052c:	f005 f830 	bl	8005590 <HAL_TIM_PWM_Start>
	HAL_TIM_PWM_Start(&htim1, TIM_CHANNEL_3);
 8000530:	2108      	movs	r1, #8
 8000532:	4843      	ldr	r0, [pc, #268]	@ (8000640 <main+0x188>)
 8000534:	f005 f82c 	bl	8005590 <HAL_TIM_PWM_Start>
	HAL_TIM_PWM_Start(&htim1, TIM_CHANNEL_4);
 8000538:	210c      	movs	r1, #12
 800053a:	4841      	ldr	r0, [pc, #260]	@ (8000640 <main+0x188>)
 800053c:	f005 f828 	bl	8005590 <HAL_TIM_PWM_Start>

  	// Enable motors 1 (PB1) and 2 (PB2)
  	HAL_GPIO_WritePin(GPIOB, GPIO_PIN_1|GPIO_PIN_2|GPIO_PIN_12|GPIO_PIN_13, GPIO_PIN_SET);
 8000540:	2201      	movs	r2, #1
 8000542:	f243 0106 	movw	r1, #12294	@ 0x3006
 8000546:	483f      	ldr	r0, [pc, #252]	@ (8000644 <main+0x18c>)
 8000548:	f003 f982 	bl	8003850 <HAL_GPIO_WritePin>

	// Start the encoders and enable interrupts
	HAL_TIM_Encoder_Start_IT(&htim3, TIM_CHANNEL_ALL);
 800054c:	213c      	movs	r1, #60	@ 0x3c
 800054e:	483e      	ldr	r0, [pc, #248]	@ (8000648 <main+0x190>)
 8000550:	f005 fb6c 	bl	8005c2c <HAL_TIM_Encoder_Start_IT>
	__HAL_TIM_SET_COUNTER(&htim3,0);
 8000554:	4b3c      	ldr	r3, [pc, #240]	@ (8000648 <main+0x190>)
 8000556:	681b      	ldr	r3, [r3, #0]
 8000558:	2200      	movs	r2, #0
 800055a:	625a      	str	r2, [r3, #36]	@ 0x24
	HAL_TIM_Encoder_Start_IT(&htim4, TIM_CHANNEL_ALL);
 800055c:	213c      	movs	r1, #60	@ 0x3c
 800055e:	483b      	ldr	r0, [pc, #236]	@ (800064c <main+0x194>)
 8000560:	f005 fb64 	bl	8005c2c <HAL_TIM_Encoder_Start_IT>
	__HAL_TIM_SET_COUNTER(&htim4,0);
 8000564:	4b39      	ldr	r3, [pc, #228]	@ (800064c <main+0x194>)
 8000566:	681b      	ldr	r3, [r3, #0]
 8000568:	2200      	movs	r2, #0
 800056a:	625a      	str	r2, [r3, #36]	@ 0x24




  uint8_t task = 0; //State variable for main loop
 800056c:	2300      	movs	r3, #0
 800056e:	75fb      	strb	r3, [r7, #23]
  uint8_t T1State = 0; //Task 1 State
 8000570:	2300      	movs	r3, #0
 8000572:	75bb      	strb	r3, [r7, #22]
  uint8_t T2State = 0; //Task 2 State
 8000574:	2300      	movs	r3, #0
 8000576:	757b      	strb	r3, [r7, #21]
  uint8_t T3State = 0; //Task 3 State
 8000578:	2300      	movs	r3, #0
 800057a:	737b      	strb	r3, [r7, #13]
  uint8_t T4State = 0; //Task 4 State
 800057c:	2300      	movs	r3, #0
 800057e:	753b      	strb	r3, [r7, #20]
  uint8_t T5State = 0; //Task 5 State
 8000580:	2300      	movs	r3, #0
 8000582:	74fb      	strb	r3, [r7, #19]
  uint8_t T6State = 0; //Task 6 State
 8000584:	2300      	movs	r3, #0
 8000586:	74bb      	strb	r3, [r7, #18]

  //Set motors, metal detector, and camera to ON by default. Will turn off if battery too low or killswitch active
   uint8_t DriveON_Rad = 1; //Radio Drive ON
 8000588:	2301      	movs	r3, #1
 800058a:	747b      	strb	r3, [r7, #17]
   uint8_t ArmON = 1;
 800058c:	2301      	movs	r3, #1
 800058e:	743b      	strb	r3, [r7, #16]

   uint8_t OpenMV = 1; //Camera Update On
 8000590:	2301      	movs	r3, #1
 8000592:	733b      	strb	r3, [r7, #12]


   uint8_t Follow = 1; //Follow mode
 8000594:	2301      	movs	r3, #1
 8000596:	72fb      	strb	r3, [r7, #11]



   //Set Kill switch to be off by default
   uint8_t BatKill = 0; //If Kill is 1 then turn everything off
 8000598:	2300      	movs	r3, #0
 800059a:	73fb      	strb	r3, [r7, #15]
   uint8_t RadKill = 0; //Radio Kill switch
 800059c:	2300      	movs	r3, #0
 800059e:	73bb      	strb	r3, [r7, #14]

   //Initialize a distance and angle setpoint
   float Distance_Target = 0;
 80005a0:	f04f 0300 	mov.w	r3, #0
 80005a4:	607b      	str	r3, [r7, #4]
   float Angle_Target = 0;
 80005a6:	f04f 0300 	mov.w	r3, #0
 80005aa:	603b      	str	r3, [r7, #0]

  /* Infinite loop */
  /* USER CODE BEGIN WHILE */
  while (1) {
	  //Run FSM
	  switch(task){
 80005ac:	7dfb      	ldrb	r3, [r7, #23]
 80005ae:	2b06      	cmp	r3, #6
 80005b0:	d8fc      	bhi.n	80005ac <main+0xf4>
 80005b2:	a201      	add	r2, pc, #4	@ (adr r2, 80005b8 <main+0x100>)
 80005b4:	f852 f023 	ldr.w	pc, [r2, r3, lsl #2]
 80005b8:	080005d5 	.word	0x080005d5
 80005bc:	080005db 	.word	0x080005db
 80005c0:	080005e1 	.word	0x080005e1
 80005c4:	080005e7 	.word	0x080005e7
 80005c8:	0800061b 	.word	0x0800061b
 80005cc:	08000621 	.word	0x08000621
 80005d0:	08000627 	.word	0x08000627

	  case 0: //State 0
		  //State 0: INIT
		  //Do not make file for this, just Initialize as necessary
		  task = 1;
 80005d4:	2301      	movs	r3, #1
 80005d6:	75fb      	strb	r3, [r7, #23]
		  break;
 80005d8:	e029      	b.n	800062e <main+0x176>

	  case 1: //State 1
		  //State 1: Diagnostics
		  //Check battery and shut off if necessary
		  //task1_run(&T1State, hadc2,&BatKill);
		  task = 2;
 80005da:	2302      	movs	r3, #2
 80005dc:	75fb      	strb	r3, [r7, #23]
		  break;
 80005de:	e026      	b.n	800062e <main+0x176>

	  case 2: //State 2
		  //State 2: Radio
		  //Check killswitches and radio, act accordingly
		  //task2_run(&T2State,&BatKill,&RadKill,&usWidth,&DriveON_Rad,&ArmON,&MDON,&OpenMV);
	  	  task = 3;
 80005e0:	2303      	movs	r3, #3
 80005e2:	75fb      	strb	r3, [r7, #23]
	  	  break;
 80005e4:	e023      	b.n	800062e <main+0x176>

	  case 3: //State 3
		  //State 3: OpenMV Camera
	  	  task3_run(&T3State,&Distance_Target,&Angle_Target,&SPI_Rec,&Follow,&OpenMV, huart3);
 80005e6:	463e      	mov	r6, r7
 80005e8:	1d3d      	adds	r5, r7, #4
 80005ea:	f107 040d 	add.w	r4, r7, #13
 80005ee:	4a18      	ldr	r2, [pc, #96]	@ (8000650 <main+0x198>)
 80005f0:	ab02      	add	r3, sp, #8
 80005f2:	4611      	mov	r1, r2
 80005f4:	2288      	movs	r2, #136	@ 0x88
 80005f6:	4618      	mov	r0, r3
 80005f8:	f008 f990 	bl	800891c <memcpy>
 80005fc:	f107 030c 	add.w	r3, r7, #12
 8000600:	9301      	str	r3, [sp, #4]
 8000602:	f107 030b 	add.w	r3, r7, #11
 8000606:	9300      	str	r3, [sp, #0]
 8000608:	4b12      	ldr	r3, [pc, #72]	@ (8000654 <main+0x19c>)
 800060a:	4632      	mov	r2, r6
 800060c:	4629      	mov	r1, r5
 800060e:	4620      	mov	r0, r4
 8000610:	f001 fb92 	bl	8001d38 <task3_run>
		  task = 4;
 8000614:	2304      	movs	r3, #4
 8000616:	75fb      	strb	r3, [r7, #23]
	  	  break;
 8000618:	e009      	b.n	800062e <main+0x176>

	  case 4: //State 4
		  //State 4: Metal Detector
	  	  //task4_run(&T4State,&MDON,&sumval,htim17,&Metal_Found, hadc1, hadc2, hadc3);
	  	  task = 5;
 800061a:	2305      	movs	r3, #5
 800061c:	75fb      	strb	r3, [r7, #23]
	  	  break;
 800061e:	e006      	b.n	800062e <main+0x176>

	  case 5: //State 5
		  //State 5: Arm Motor
	  	  //task5_run(&T5State,&ArmON,&Metal_Found,htim17,&sumval);
	  	  task = 6;
 8000620:	2306      	movs	r3, #6
 8000622:	75fb      	strb	r3, [r7, #23]
	  	  break;
 8000624:	e003      	b.n	800062e <main+0x176>

	  case 6: //State 6
		  //State 6:
	  	  //Insert State 6 class here
		  //task6_run(&T6State, &Metal_Found, &DriveON_Rad, &Follow,&Distance_Target,&Angle_Target,htim1,htim3,htim4);
	  	  task = 1; //Do not go back to init
 8000626:	2301      	movs	r3, #1
 8000628:	75fb      	strb	r3, [r7, #23]
	  	  break;
 800062a:	bf00      	nop
 800062c:	e7be      	b.n	80005ac <main+0xf4>
	  switch(task){
 800062e:	e7bd      	b.n	80005ac <main+0xf4>
 8000630:	200003d4 	.word	0x200003d4
 8000634:	20000028 	.word	0x20000028
 8000638:	2000008c 	.word	0x2000008c
 800063c:	200000f0 	.word	0x200000f0
 8000640:	2000020c 	.word	0x2000020c
 8000644:	48000400 	.word	0x48000400
 8000648:	200002a4 	.word	0x200002a4
 800064c:	200002f0 	.word	0x200002f0
 8000650:	2000046c 	.word	0x2000046c
 8000654:	20000508 	.word	0x20000508

08000658 <SystemClock_Config>:
/**
  * @brief System Clock Configuration
  * @retval None
  */
void SystemClock_Config(void)
{
 8000658:	b580      	push	{r7, lr}
 800065a:	b096      	sub	sp, #88	@ 0x58
 800065c:	af00      	add	r7, sp, #0
  RCC_OscInitTypeDef RCC_OscInitStruct = {0};
 800065e:	f107 0314 	add.w	r3, r7, #20
 8000662:	2244      	movs	r2, #68	@ 0x44
 8000664:	2100      	movs	r1, #0
 8000666:	4618      	mov	r0, r3
 8000668:	f008 f92c 	bl	80088c4 <memset>
  RCC_ClkInitTypeDef RCC_ClkInitStruct = {0};
 800066c:	463b      	mov	r3, r7
 800066e:	2200      	movs	r2, #0
 8000670:	601a      	str	r2, [r3, #0]
 8000672:	605a      	str	r2, [r3, #4]
 8000674:	609a      	str	r2, [r3, #8]
 8000676:	60da      	str	r2, [r3, #12]
 8000678:	611a      	str	r2, [r3, #16]

  /** Configure the main internal regulator output voltage
  */
  if (HAL_PWREx_ControlVoltageScaling(PWR_REGULATOR_VOLTAGE_SCALE1) != HAL_OK)
 800067a:	f44f 7000 	mov.w	r0, #512	@ 0x200
 800067e:	f003 fa3f 	bl	8003b00 <HAL_PWREx_ControlVoltageScaling>
 8000682:	4603      	mov	r3, r0
 8000684:	2b00      	cmp	r3, #0
 8000686:	d001      	beq.n	800068c <SystemClock_Config+0x34>
  {
    Error_Handler();
 8000688:	f000 fee4 	bl	8001454 <Error_Handler>
  }

  /** Initializes the RCC Oscillators according to the specified parameters
  * in the RCC_OscInitTypeDef structure.
  */
  RCC_OscInitStruct.OscillatorType = RCC_OSCILLATORTYPE_HSE;
 800068c:	2301      	movs	r3, #1
 800068e:	617b      	str	r3, [r7, #20]
  RCC_OscInitStruct.HSEState = RCC_HSE_ON;
 8000690:	f44f 3380 	mov.w	r3, #65536	@ 0x10000
 8000694:	61bb      	str	r3, [r7, #24]
  RCC_OscInitStruct.PLL.PLLState = RCC_PLL_ON;
 8000696:	2302      	movs	r3, #2
 8000698:	63fb      	str	r3, [r7, #60]	@ 0x3c
  RCC_OscInitStruct.PLL.PLLSource = RCC_PLLSOURCE_HSE;
 800069a:	2303      	movs	r3, #3
 800069c:	643b      	str	r3, [r7, #64]	@ 0x40
  RCC_OscInitStruct.PLL.PLLM = 5;
 800069e:	2305      	movs	r3, #5
 80006a0:	647b      	str	r3, [r7, #68]	@ 0x44
  RCC_OscInitStruct.PLL.PLLN = 32;
 80006a2:	2320      	movs	r3, #32
 80006a4:	64bb      	str	r3, [r7, #72]	@ 0x48
  RCC_OscInitStruct.PLL.PLLP = RCC_PLLP_DIV7;
 80006a6:	2307      	movs	r3, #7
 80006a8:	64fb      	str	r3, [r7, #76]	@ 0x4c
  RCC_OscInitStruct.PLL.PLLQ = RCC_PLLQ_DIV2;
 80006aa:	2302      	movs	r3, #2
 80006ac:	653b      	str	r3, [r7, #80]	@ 0x50
  RCC_OscInitStruct.PLL.PLLR = RCC_PLLR_DIV2;
 80006ae:	2302      	movs	r3, #2
 80006b0:	657b      	str	r3, [r7, #84]	@ 0x54
  if (HAL_RCC_OscConfig(&RCC_OscInitStruct) != HAL_OK)
 80006b2:	f107 0314 	add.w	r3, r7, #20
 80006b6:	4618      	mov	r0, r3
 80006b8:	f003 fa78 	bl	8003bac <HAL_RCC_OscConfig>
 80006bc:	4603      	mov	r3, r0
 80006be:	2b00      	cmp	r3, #0
 80006c0:	d001      	beq.n	80006c6 <SystemClock_Config+0x6e>
  {
    Error_Handler();
 80006c2:	f000 fec7 	bl	8001454 <Error_Handler>
  }

  /** Initializes the CPU, AHB and APB buses clocks
  */
  RCC_ClkInitStruct.ClockType = RCC_CLOCKTYPE_HCLK|RCC_CLOCKTYPE_SYSCLK
 80006c6:	230f      	movs	r3, #15
 80006c8:	603b      	str	r3, [r7, #0]
                              |RCC_CLOCKTYPE_PCLK1|RCC_CLOCKTYPE_PCLK2;
  RCC_ClkInitStruct.SYSCLKSource = RCC_SYSCLKSOURCE_PLLCLK;
 80006ca:	2303      	movs	r3, #3
 80006cc:	607b      	str	r3, [r7, #4]
  RCC_ClkInitStruct.AHBCLKDivider = RCC_SYSCLK_DIV1;
 80006ce:	2300      	movs	r3, #0
 80006d0:	60bb      	str	r3, [r7, #8]
  RCC_ClkInitStruct.APB1CLKDivider = RCC_HCLK_DIV1;
 80006d2:	2300      	movs	r3, #0
 80006d4:	60fb      	str	r3, [r7, #12]
  RCC_ClkInitStruct.APB2CLKDivider = RCC_HCLK_DIV1;
 80006d6:	2300      	movs	r3, #0
 80006d8:	613b      	str	r3, [r7, #16]

  if (HAL_RCC_ClockConfig(&RCC_ClkInitStruct, FLASH_LATENCY_4) != HAL_OK)
 80006da:	463b      	mov	r3, r7
 80006dc:	2104      	movs	r1, #4
 80006de:	4618      	mov	r0, r3
 80006e0:	f003 fe40 	bl	8004364 <HAL_RCC_ClockConfig>
 80006e4:	4603      	mov	r3, r0
 80006e6:	2b00      	cmp	r3, #0
 80006e8:	d001      	beq.n	80006ee <SystemClock_Config+0x96>
  {
    Error_Handler();
 80006ea:	f000 feb3 	bl	8001454 <Error_Handler>
  }
}
 80006ee:	bf00      	nop
 80006f0:	3758      	adds	r7, #88	@ 0x58
 80006f2:	46bd      	mov	sp, r7
 80006f4:	bd80      	pop	{r7, pc}

080006f6 <PeriphCommonClock_Config>:
/**
  * @brief Peripherals Common Clock Configuration
  * @retval None
  */
void PeriphCommonClock_Config(void)
{
 80006f6:	b580      	push	{r7, lr}
 80006f8:	b0a2      	sub	sp, #136	@ 0x88
 80006fa:	af00      	add	r7, sp, #0
  RCC_PeriphCLKInitTypeDef PeriphClkInit = {0};
 80006fc:	1d3b      	adds	r3, r7, #4
 80006fe:	2284      	movs	r2, #132	@ 0x84
 8000700:	2100      	movs	r1, #0
 8000702:	4618      	mov	r0, r3
 8000704:	f008 f8de 	bl	80088c4 <memset>

  /** Initializes the peripherals clock
  */
  PeriphClkInit.PeriphClockSelection = RCC_PERIPHCLK_ADC;
 8000708:	f44f 4380 	mov.w	r3, #16384	@ 0x4000
 800070c:	607b      	str	r3, [r7, #4]
  PeriphClkInit.AdcClockSelection = RCC_ADCCLKSOURCE_PLLSAI1;
 800070e:	f04f 5380 	mov.w	r3, #268435456	@ 0x10000000
 8000712:	67bb      	str	r3, [r7, #120]	@ 0x78
  PeriphClkInit.PLLSAI1.PLLSAI1Source = RCC_PLLSOURCE_HSE;
 8000714:	2303      	movs	r3, #3
 8000716:	60bb      	str	r3, [r7, #8]
  PeriphClkInit.PLLSAI1.PLLSAI1M = 5;
 8000718:	2305      	movs	r3, #5
 800071a:	60fb      	str	r3, [r7, #12]
  PeriphClkInit.PLLSAI1.PLLSAI1N = 24;
 800071c:	2318      	movs	r3, #24
 800071e:	613b      	str	r3, [r7, #16]
  PeriphClkInit.PLLSAI1.PLLSAI1P = RCC_PLLP_DIV7;
 8000720:	2307      	movs	r3, #7
 8000722:	617b      	str	r3, [r7, #20]
  PeriphClkInit.PLLSAI1.PLLSAI1Q = RCC_PLLQ_DIV2;
 8000724:	2302      	movs	r3, #2
 8000726:	61bb      	str	r3, [r7, #24]
  PeriphClkInit.PLLSAI1.PLLSAI1R = RCC_PLLR_DIV2;
 8000728:	2302      	movs	r3, #2
 800072a:	61fb      	str	r3, [r7, #28]
  PeriphClkInit.PLLSAI1.PLLSAI1ClockOut = RCC_PLLSAI1_ADC1CLK;
 800072c:	f04f 7380 	mov.w	r3, #16777216	@ 0x1000000
 8000730:	623b      	str	r3, [r7, #32]
  if (HAL_RCCEx_PeriphCLKConfig(&PeriphClkInit) != HAL_OK)
 8000732:	1d3b      	adds	r3, r7, #4
 8000734:	4618      	mov	r0, r3
 8000736:	f004 f839 	bl	80047ac <HAL_RCCEx_PeriphCLKConfig>
 800073a:	4603      	mov	r3, r0
 800073c:	2b00      	cmp	r3, #0
 800073e:	d001      	beq.n	8000744 <PeriphCommonClock_Config+0x4e>
  {
    Error_Handler();
 8000740:	f000 fe88 	bl	8001454 <Error_Handler>
  }
}
 8000744:	bf00      	nop
 8000746:	3788      	adds	r7, #136	@ 0x88
 8000748:	46bd      	mov	sp, r7
 800074a:	bd80      	pop	{r7, pc}

0800074c <MX_ADC1_Init>:
  * @brief ADC1 Initialization Function
  * @param None
  * @retval None
  */
static void MX_ADC1_Init(void)
{
 800074c:	b580      	push	{r7, lr}
 800074e:	b08a      	sub	sp, #40	@ 0x28
 8000750:	af00      	add	r7, sp, #0

  /* USER CODE BEGIN ADC1_Init 0 */

  /* USER CODE END ADC1_Init 0 */

  ADC_MultiModeTypeDef multimode = {0};
 8000752:	f107 031c 	add.w	r3, r7, #28
 8000756:	2200      	movs	r2, #0
 8000758:	601a      	str	r2, [r3, #0]
 800075a:	605a      	str	r2, [r3, #4]
 800075c:	609a      	str	r2, [r3, #8]
  ADC_ChannelConfTypeDef sConfig = {0};
 800075e:	1d3b      	adds	r3, r7, #4
 8000760:	2200      	movs	r2, #0
 8000762:	601a      	str	r2, [r3, #0]
 8000764:	605a      	str	r2, [r3, #4]
 8000766:	609a      	str	r2, [r3, #8]
 8000768:	60da      	str	r2, [r3, #12]
 800076a:	611a      	str	r2, [r3, #16]
 800076c:	615a      	str	r2, [r3, #20]

  /* USER CODE END ADC1_Init 1 */

  /** Common config
  */
  hadc1.Instance = ADC1;
 800076e:	4b2f      	ldr	r3, [pc, #188]	@ (800082c <MX_ADC1_Init+0xe0>)
 8000770:	4a2f      	ldr	r2, [pc, #188]	@ (8000830 <MX_ADC1_Init+0xe4>)
 8000772:	601a      	str	r2, [r3, #0]
  hadc1.Init.ClockPrescaler = ADC_CLOCK_ASYNC_DIV1;
 8000774:	4b2d      	ldr	r3, [pc, #180]	@ (800082c <MX_ADC1_Init+0xe0>)
 8000776:	2200      	movs	r2, #0
 8000778:	605a      	str	r2, [r3, #4]
  hadc1.Init.Resolution = ADC_RESOLUTION_12B;
 800077a:	4b2c      	ldr	r3, [pc, #176]	@ (800082c <MX_ADC1_Init+0xe0>)
 800077c:	2200      	movs	r2, #0
 800077e:	609a      	str	r2, [r3, #8]
  hadc1.Init.DataAlign = ADC_DATAALIGN_RIGHT;
 8000780:	4b2a      	ldr	r3, [pc, #168]	@ (800082c <MX_ADC1_Init+0xe0>)
 8000782:	2200      	movs	r2, #0
 8000784:	60da      	str	r2, [r3, #12]
  hadc1.Init.ScanConvMode = ADC_SCAN_DISABLE;
 8000786:	4b29      	ldr	r3, [pc, #164]	@ (800082c <MX_ADC1_Init+0xe0>)
 8000788:	2200      	movs	r2, #0
 800078a:	611a      	str	r2, [r3, #16]
  hadc1.Init.EOCSelection = ADC_EOC_SINGLE_CONV;
 800078c:	4b27      	ldr	r3, [pc, #156]	@ (800082c <MX_ADC1_Init+0xe0>)
 800078e:	2204      	movs	r2, #4
 8000790:	615a      	str	r2, [r3, #20]
  hadc1.Init.LowPowerAutoWait = DISABLE;
 8000792:	4b26      	ldr	r3, [pc, #152]	@ (800082c <MX_ADC1_Init+0xe0>)
 8000794:	2200      	movs	r2, #0
 8000796:	761a      	strb	r2, [r3, #24]
  hadc1.Init.ContinuousConvMode = DISABLE;
 8000798:	4b24      	ldr	r3, [pc, #144]	@ (800082c <MX_ADC1_Init+0xe0>)
 800079a:	2200      	movs	r2, #0
 800079c:	765a      	strb	r2, [r3, #25]
  hadc1.Init.NbrOfConversion = 1;
 800079e:	4b23      	ldr	r3, [pc, #140]	@ (800082c <MX_ADC1_Init+0xe0>)
 80007a0:	2201      	movs	r2, #1
 80007a2:	61da      	str	r2, [r3, #28]
  hadc1.Init.DiscontinuousConvMode = DISABLE;
 80007a4:	4b21      	ldr	r3, [pc, #132]	@ (800082c <MX_ADC1_Init+0xe0>)
 80007a6:	2200      	movs	r2, #0
 80007a8:	f883 2020 	strb.w	r2, [r3, #32]
  hadc1.Init.ExternalTrigConv = ADC_SOFTWARE_START;
 80007ac:	4b1f      	ldr	r3, [pc, #124]	@ (800082c <MX_ADC1_Init+0xe0>)
 80007ae:	2200      	movs	r2, #0
 80007b0:	629a      	str	r2, [r3, #40]	@ 0x28
  hadc1.Init.ExternalTrigConvEdge = ADC_EXTERNALTRIGCONVEDGE_NONE;
 80007b2:	4b1e      	ldr	r3, [pc, #120]	@ (800082c <MX_ADC1_Init+0xe0>)
 80007b4:	2200      	movs	r2, #0
 80007b6:	62da      	str	r2, [r3, #44]	@ 0x2c
  hadc1.Init.DMAContinuousRequests = DISABLE;
 80007b8:	4b1c      	ldr	r3, [pc, #112]	@ (800082c <MX_ADC1_Init+0xe0>)
 80007ba:	2200      	movs	r2, #0
 80007bc:	f883 2030 	strb.w	r2, [r3, #48]	@ 0x30
  hadc1.Init.Overrun = ADC_OVR_DATA_PRESERVED;
 80007c0:	4b1a      	ldr	r3, [pc, #104]	@ (800082c <MX_ADC1_Init+0xe0>)
 80007c2:	2200      	movs	r2, #0
 80007c4:	635a      	str	r2, [r3, #52]	@ 0x34
  hadc1.Init.OversamplingMode = DISABLE;
 80007c6:	4b19      	ldr	r3, [pc, #100]	@ (800082c <MX_ADC1_Init+0xe0>)
 80007c8:	2200      	movs	r2, #0
 80007ca:	f883 2038 	strb.w	r2, [r3, #56]	@ 0x38
  if (HAL_ADC_Init(&hadc1) != HAL_OK)
 80007ce:	4817      	ldr	r0, [pc, #92]	@ (800082c <MX_ADC1_Init+0xe0>)
 80007d0:	f001 fdac 	bl	800232c <HAL_ADC_Init>
 80007d4:	4603      	mov	r3, r0
 80007d6:	2b00      	cmp	r3, #0
 80007d8:	d001      	beq.n	80007de <MX_ADC1_Init+0x92>
  {
    Error_Handler();
 80007da:	f000 fe3b 	bl	8001454 <Error_Handler>
  }

  /** Configure the ADC multi-mode
  */
  multimode.Mode = ADC_MODE_INDEPENDENT;
 80007de:	2300      	movs	r3, #0
 80007e0:	61fb      	str	r3, [r7, #28]
  if (HAL_ADCEx_MultiModeConfigChannel(&hadc1, &multimode) != HAL_OK)
 80007e2:	f107 031c 	add.w	r3, r7, #28
 80007e6:	4619      	mov	r1, r3
 80007e8:	4810      	ldr	r0, [pc, #64]	@ (800082c <MX_ADC1_Init+0xe0>)
 80007ea:	f002 fc47 	bl	800307c <HAL_ADCEx_MultiModeConfigChannel>
 80007ee:	4603      	mov	r3, r0
 80007f0:	2b00      	cmp	r3, #0
 80007f2:	d001      	beq.n	80007f8 <MX_ADC1_Init+0xac>
  {
    Error_Handler();
 80007f4:	f000 fe2e 	bl	8001454 <Error_Handler>
  }

  /** Configure Regular Channel
  */
  sConfig.Channel = ADC_CHANNEL_1;
 80007f8:	4b0e      	ldr	r3, [pc, #56]	@ (8000834 <MX_ADC1_Init+0xe8>)
 80007fa:	607b      	str	r3, [r7, #4]
  sConfig.Rank = ADC_REGULAR_RANK_1;
 80007fc:	2306      	movs	r3, #6
 80007fe:	60bb      	str	r3, [r7, #8]
  sConfig.SamplingTime = ADC_SAMPLETIME_2CYCLES_5;
 8000800:	2300      	movs	r3, #0
 8000802:	60fb      	str	r3, [r7, #12]
  sConfig.SingleDiff = ADC_SINGLE_ENDED;
 8000804:	237f      	movs	r3, #127	@ 0x7f
 8000806:	613b      	str	r3, [r7, #16]
  sConfig.OffsetNumber = ADC_OFFSET_NONE;
 8000808:	2304      	movs	r3, #4
 800080a:	617b      	str	r3, [r7, #20]
  sConfig.Offset = 0;
 800080c:	2300      	movs	r3, #0
 800080e:	61bb      	str	r3, [r7, #24]
  if (HAL_ADC_ConfigChannel(&hadc1, &sConfig) != HAL_OK)
 8000810:	1d3b      	adds	r3, r7, #4
 8000812:	4619      	mov	r1, r3
 8000814:	4805      	ldr	r0, [pc, #20]	@ (800082c <MX_ADC1_Init+0xe0>)
 8000816:	f001 ff93 	bl	8002740 <HAL_ADC_ConfigChannel>
 800081a:	4603      	mov	r3, r0
 800081c:	2b00      	cmp	r3, #0
 800081e:	d001      	beq.n	8000824 <MX_ADC1_Init+0xd8>
  {
    Error_Handler();
 8000820:	f000 fe18 	bl	8001454 <Error_Handler>
  }
  /* USER CODE BEGIN ADC1_Init 2 */

  /* USER CODE END ADC1_Init 2 */

}
 8000824:	bf00      	nop
 8000826:	3728      	adds	r7, #40	@ 0x28
 8000828:	46bd      	mov	sp, r7
 800082a:	bd80      	pop	{r7, pc}
 800082c:	20000028 	.word	0x20000028
 8000830:	50040000 	.word	0x50040000
 8000834:	04300002 	.word	0x04300002

08000838 <MX_ADC2_Init>:
  * @brief ADC2 Initialization Function
  * @param None
  * @retval None
  */
static void MX_ADC2_Init(void)
{
 8000838:	b580      	push	{r7, lr}
 800083a:	b086      	sub	sp, #24
 800083c:	af00      	add	r7, sp, #0

  /* USER CODE BEGIN ADC2_Init 0 */

  /* USER CODE END ADC2_Init 0 */

  ADC_ChannelConfTypeDef sConfig = {0};
 800083e:	463b      	mov	r3, r7
 8000840:	2200      	movs	r2, #0
 8000842:	601a      	str	r2, [r3, #0]
 8000844:	605a      	str	r2, [r3, #4]
 8000846:	609a      	str	r2, [r3, #8]
 8000848:	60da      	str	r2, [r3, #12]
 800084a:	611a      	str	r2, [r3, #16]
 800084c:	615a      	str	r2, [r3, #20]

  /* USER CODE END ADC2_Init 1 */

  /** Common config
  */
  hadc2.Instance = ADC2;
 800084e:	4b30      	ldr	r3, [pc, #192]	@ (8000910 <MX_ADC2_Init+0xd8>)
 8000850:	4a30      	ldr	r2, [pc, #192]	@ (8000914 <MX_ADC2_Init+0xdc>)
 8000852:	601a      	str	r2, [r3, #0]
  hadc2.Init.ClockPrescaler = ADC_CLOCK_ASYNC_DIV1;
 8000854:	4b2e      	ldr	r3, [pc, #184]	@ (8000910 <MX_ADC2_Init+0xd8>)
 8000856:	2200      	movs	r2, #0
 8000858:	605a      	str	r2, [r3, #4]
  hadc2.Init.Resolution = ADC_RESOLUTION_12B;
 800085a:	4b2d      	ldr	r3, [pc, #180]	@ (8000910 <MX_ADC2_Init+0xd8>)
 800085c:	2200      	movs	r2, #0
 800085e:	609a      	str	r2, [r3, #8]
  hadc2.Init.DataAlign = ADC_DATAALIGN_RIGHT;
 8000860:	4b2b      	ldr	r3, [pc, #172]	@ (8000910 <MX_ADC2_Init+0xd8>)
 8000862:	2200      	movs	r2, #0
 8000864:	60da      	str	r2, [r3, #12]
  hadc2.Init.ScanConvMode = ADC_SCAN_ENABLE;
 8000866:	4b2a      	ldr	r3, [pc, #168]	@ (8000910 <MX_ADC2_Init+0xd8>)
 8000868:	2201      	movs	r2, #1
 800086a:	611a      	str	r2, [r3, #16]
  hadc2.Init.EOCSelection = ADC_EOC_SINGLE_CONV;
 800086c:	4b28      	ldr	r3, [pc, #160]	@ (8000910 <MX_ADC2_Init+0xd8>)
 800086e:	2204      	movs	r2, #4
 8000870:	615a      	str	r2, [r3, #20]
  hadc2.Init.LowPowerAutoWait = DISABLE;
 8000872:	4b27      	ldr	r3, [pc, #156]	@ (8000910 <MX_ADC2_Init+0xd8>)
 8000874:	2200      	movs	r2, #0
 8000876:	761a      	strb	r2, [r3, #24]
  hadc2.Init.ContinuousConvMode = DISABLE;
 8000878:	4b25      	ldr	r3, [pc, #148]	@ (8000910 <MX_ADC2_Init+0xd8>)
 800087a:	2200      	movs	r2, #0
 800087c:	765a      	strb	r2, [r3, #25]
  hadc2.Init.NbrOfConversion = 2;
 800087e:	4b24      	ldr	r3, [pc, #144]	@ (8000910 <MX_ADC2_Init+0xd8>)
 8000880:	2202      	movs	r2, #2
 8000882:	61da      	str	r2, [r3, #28]
  hadc2.Init.DiscontinuousConvMode = DISABLE;
 8000884:	4b22      	ldr	r3, [pc, #136]	@ (8000910 <MX_ADC2_Init+0xd8>)
 8000886:	2200      	movs	r2, #0
 8000888:	f883 2020 	strb.w	r2, [r3, #32]
  hadc2.Init.ExternalTrigConv = ADC_SOFTWARE_START;
 800088c:	4b20      	ldr	r3, [pc, #128]	@ (8000910 <MX_ADC2_Init+0xd8>)
 800088e:	2200      	movs	r2, #0
 8000890:	629a      	str	r2, [r3, #40]	@ 0x28
  hadc2.Init.ExternalTrigConvEdge = ADC_EXTERNALTRIGCONVEDGE_NONE;
 8000892:	4b1f      	ldr	r3, [pc, #124]	@ (8000910 <MX_ADC2_Init+0xd8>)
 8000894:	2200      	movs	r2, #0
 8000896:	62da      	str	r2, [r3, #44]	@ 0x2c
  hadc2.Init.DMAContinuousRequests = DISABLE;
 8000898:	4b1d      	ldr	r3, [pc, #116]	@ (8000910 <MX_ADC2_Init+0xd8>)
 800089a:	2200      	movs	r2, #0
 800089c:	f883 2030 	strb.w	r2, [r3, #48]	@ 0x30
  hadc2.Init.Overrun = ADC_OVR_DATA_PRESERVED;
 80008a0:	4b1b      	ldr	r3, [pc, #108]	@ (8000910 <MX_ADC2_Init+0xd8>)
 80008a2:	2200      	movs	r2, #0
 80008a4:	635a      	str	r2, [r3, #52]	@ 0x34
  hadc2.Init.OversamplingMode = DISABLE;
 80008a6:	4b1a      	ldr	r3, [pc, #104]	@ (8000910 <MX_ADC2_Init+0xd8>)
 80008a8:	2200      	movs	r2, #0
 80008aa:	f883 2038 	strb.w	r2, [r3, #56]	@ 0x38
  if (HAL_ADC_Init(&hadc2) != HAL_OK)
 80008ae:	4818      	ldr	r0, [pc, #96]	@ (8000910 <MX_ADC2_Init+0xd8>)
 80008b0:	f001 fd3c 	bl	800232c <HAL_ADC_Init>
 80008b4:	4603      	mov	r3, r0
 80008b6:	2b00      	cmp	r3, #0
 80008b8:	d001      	beq.n	80008be <MX_ADC2_Init+0x86>
  {
    Error_Handler();
 80008ba:	f000 fdcb 	bl	8001454 <Error_Handler>
  }

  /** Configure Regular Channel
  */
  sConfig.Channel = ADC_CHANNEL_2;
 80008be:	4b16      	ldr	r3, [pc, #88]	@ (8000918 <MX_ADC2_Init+0xe0>)
 80008c0:	603b      	str	r3, [r7, #0]
  sConfig.Rank = ADC_REGULAR_RANK_1;
 80008c2:	2306      	movs	r3, #6
 80008c4:	607b      	str	r3, [r7, #4]
  sConfig.SamplingTime = ADC_SAMPLETIME_2CYCLES_5;
 80008c6:	2300      	movs	r3, #0
 80008c8:	60bb      	str	r3, [r7, #8]
  sConfig.SingleDiff = ADC_SINGLE_ENDED;
 80008ca:	237f      	movs	r3, #127	@ 0x7f
 80008cc:	60fb      	str	r3, [r7, #12]
  sConfig.OffsetNumber = ADC_OFFSET_NONE;
 80008ce:	2304      	movs	r3, #4
 80008d0:	613b      	str	r3, [r7, #16]
  sConfig.Offset = 0;
 80008d2:	2300      	movs	r3, #0
 80008d4:	617b      	str	r3, [r7, #20]
  if (HAL_ADC_ConfigChannel(&hadc2, &sConfig) != HAL_OK)
 80008d6:	463b      	mov	r3, r7
 80008d8:	4619      	mov	r1, r3
 80008da:	480d      	ldr	r0, [pc, #52]	@ (8000910 <MX_ADC2_Init+0xd8>)
 80008dc:	f001 ff30 	bl	8002740 <HAL_ADC_ConfigChannel>
 80008e0:	4603      	mov	r3, r0
 80008e2:	2b00      	cmp	r3, #0
 80008e4:	d001      	beq.n	80008ea <MX_ADC2_Init+0xb2>
  {
    Error_Handler();
 80008e6:	f000 fdb5 	bl	8001454 <Error_Handler>
  }

  /** Configure Regular Channel
  */
  sConfig.Channel = ADC_CHANNEL_15;
 80008ea:	4b0c      	ldr	r3, [pc, #48]	@ (800091c <MX_ADC2_Init+0xe4>)
 80008ec:	603b      	str	r3, [r7, #0]
  sConfig.Rank = ADC_REGULAR_RANK_2;
 80008ee:	230c      	movs	r3, #12
 80008f0:	607b      	str	r3, [r7, #4]
  if (HAL_ADC_ConfigChannel(&hadc2, &sConfig) != HAL_OK)
 80008f2:	463b      	mov	r3, r7
 80008f4:	4619      	mov	r1, r3
 80008f6:	4806      	ldr	r0, [pc, #24]	@ (8000910 <MX_ADC2_Init+0xd8>)
 80008f8:	f001 ff22 	bl	8002740 <HAL_ADC_ConfigChannel>
 80008fc:	4603      	mov	r3, r0
 80008fe:	2b00      	cmp	r3, #0
 8000900:	d001      	beq.n	8000906 <MX_ADC2_Init+0xce>
  {
    Error_Handler();
 8000902:	f000 fda7 	bl	8001454 <Error_Handler>
  }
  /* USER CODE BEGIN ADC2_Init 2 */

  /* USER CODE END ADC2_Init 2 */

}
 8000906:	bf00      	nop
 8000908:	3718      	adds	r7, #24
 800090a:	46bd      	mov	sp, r7
 800090c:	bd80      	pop	{r7, pc}
 800090e:	bf00      	nop
 8000910:	2000008c 	.word	0x2000008c
 8000914:	50040100 	.word	0x50040100
 8000918:	08600004 	.word	0x08600004
 800091c:	3ef08000 	.word	0x3ef08000

08000920 <MX_ADC3_Init>:
  * @brief ADC3 Initialization Function
  * @param None
  * @retval None
  */
static void MX_ADC3_Init(void)
{
 8000920:	b580      	push	{r7, lr}
 8000922:	b086      	sub	sp, #24
 8000924:	af00      	add	r7, sp, #0

  /* USER CODE BEGIN ADC3_Init 0 */

  /* USER CODE END ADC3_Init 0 */

  ADC_ChannelConfTypeDef sConfig = {0};
 8000926:	463b      	mov	r3, r7
 8000928:	2200      	movs	r2, #0
 800092a:	601a      	str	r2, [r3, #0]
 800092c:	605a      	str	r2, [r3, #4]
 800092e:	609a      	str	r2, [r3, #8]
 8000930:	60da      	str	r2, [r3, #12]
 8000932:	611a      	str	r2, [r3, #16]
 8000934:	615a      	str	r2, [r3, #20]

  /* USER CODE END ADC3_Init 1 */

  /** Common config
  */
  hadc3.Instance = ADC3;
 8000936:	4b29      	ldr	r3, [pc, #164]	@ (80009dc <MX_ADC3_Init+0xbc>)
 8000938:	4a29      	ldr	r2, [pc, #164]	@ (80009e0 <MX_ADC3_Init+0xc0>)
 800093a:	601a      	str	r2, [r3, #0]
  hadc3.Init.ClockPrescaler = ADC_CLOCK_ASYNC_DIV1;
 800093c:	4b27      	ldr	r3, [pc, #156]	@ (80009dc <MX_ADC3_Init+0xbc>)
 800093e:	2200      	movs	r2, #0
 8000940:	605a      	str	r2, [r3, #4]
  hadc3.Init.Resolution = ADC_RESOLUTION_12B;
 8000942:	4b26      	ldr	r3, [pc, #152]	@ (80009dc <MX_ADC3_Init+0xbc>)
 8000944:	2200      	movs	r2, #0
 8000946:	609a      	str	r2, [r3, #8]
  hadc3.Init.DataAlign = ADC_DATAALIGN_RIGHT;
 8000948:	4b24      	ldr	r3, [pc, #144]	@ (80009dc <MX_ADC3_Init+0xbc>)
 800094a:	2200      	movs	r2, #0
 800094c:	60da      	str	r2, [r3, #12]
  hadc3.Init.ScanConvMode = ADC_SCAN_DISABLE;
 800094e:	4b23      	ldr	r3, [pc, #140]	@ (80009dc <MX_ADC3_Init+0xbc>)
 8000950:	2200      	movs	r2, #0
 8000952:	611a      	str	r2, [r3, #16]
  hadc3.Init.EOCSelection = ADC_EOC_SINGLE_CONV;
 8000954:	4b21      	ldr	r3, [pc, #132]	@ (80009dc <MX_ADC3_Init+0xbc>)
 8000956:	2204      	movs	r2, #4
 8000958:	615a      	str	r2, [r3, #20]
  hadc3.Init.LowPowerAutoWait = DISABLE;
 800095a:	4b20      	ldr	r3, [pc, #128]	@ (80009dc <MX_ADC3_Init+0xbc>)
 800095c:	2200      	movs	r2, #0
 800095e:	761a      	strb	r2, [r3, #24]
  hadc3.Init.ContinuousConvMode = DISABLE;
 8000960:	4b1e      	ldr	r3, [pc, #120]	@ (80009dc <MX_ADC3_Init+0xbc>)
 8000962:	2200      	movs	r2, #0
 8000964:	765a      	strb	r2, [r3, #25]
  hadc3.Init.NbrOfConversion = 1;
 8000966:	4b1d      	ldr	r3, [pc, #116]	@ (80009dc <MX_ADC3_Init+0xbc>)
 8000968:	2201      	movs	r2, #1
 800096a:	61da      	str	r2, [r3, #28]
  hadc3.Init.DiscontinuousConvMode = DISABLE;
 800096c:	4b1b      	ldr	r3, [pc, #108]	@ (80009dc <MX_ADC3_Init+0xbc>)
 800096e:	2200      	movs	r2, #0
 8000970:	f883 2020 	strb.w	r2, [r3, #32]
  hadc3.Init.ExternalTrigConv = ADC_SOFTWARE_START;
 8000974:	4b19      	ldr	r3, [pc, #100]	@ (80009dc <MX_ADC3_Init+0xbc>)
 8000976:	2200      	movs	r2, #0
 8000978:	629a      	str	r2, [r3, #40]	@ 0x28
  hadc3.Init.ExternalTrigConvEdge = ADC_EXTERNALTRIGCONVEDGE_NONE;
 800097a:	4b18      	ldr	r3, [pc, #96]	@ (80009dc <MX_ADC3_Init+0xbc>)
 800097c:	2200      	movs	r2, #0
 800097e:	62da      	str	r2, [r3, #44]	@ 0x2c
  hadc3.Init.DMAContinuousRequests = DISABLE;
 8000980:	4b16      	ldr	r3, [pc, #88]	@ (80009dc <MX_ADC3_Init+0xbc>)
 8000982:	2200      	movs	r2, #0
 8000984:	f883 2030 	strb.w	r2, [r3, #48]	@ 0x30
  hadc3.Init.Overrun = ADC_OVR_DATA_PRESERVED;
 8000988:	4b14      	ldr	r3, [pc, #80]	@ (80009dc <MX_ADC3_Init+0xbc>)
 800098a:	2200      	movs	r2, #0
 800098c:	635a      	str	r2, [r3, #52]	@ 0x34
  hadc3.Init.OversamplingMode = DISABLE;
 800098e:	4b13      	ldr	r3, [pc, #76]	@ (80009dc <MX_ADC3_Init+0xbc>)
 8000990:	2200      	movs	r2, #0
 8000992:	f883 2038 	strb.w	r2, [r3, #56]	@ 0x38
  if (HAL_ADC_Init(&hadc3) != HAL_OK)
 8000996:	4811      	ldr	r0, [pc, #68]	@ (80009dc <MX_ADC3_Init+0xbc>)
 8000998:	f001 fcc8 	bl	800232c <HAL_ADC_Init>
 800099c:	4603      	mov	r3, r0
 800099e:	2b00      	cmp	r3, #0
 80009a0:	d001      	beq.n	80009a6 <MX_ADC3_Init+0x86>
  {
    Error_Handler();
 80009a2:	f000 fd57 	bl	8001454 <Error_Handler>
  }

  /** Configure Regular Channel
  */
  sConfig.Channel = ADC_CHANNEL_3;
 80009a6:	4b0f      	ldr	r3, [pc, #60]	@ (80009e4 <MX_ADC3_Init+0xc4>)
 80009a8:	603b      	str	r3, [r7, #0]
  sConfig.Rank = ADC_REGULAR_RANK_1;
 80009aa:	2306      	movs	r3, #6
 80009ac:	607b      	str	r3, [r7, #4]
  sConfig.SamplingTime = ADC_SAMPLETIME_2CYCLES_5;
 80009ae:	2300      	movs	r3, #0
 80009b0:	60bb      	str	r3, [r7, #8]
  sConfig.SingleDiff = ADC_SINGLE_ENDED;
 80009b2:	237f      	movs	r3, #127	@ 0x7f
 80009b4:	60fb      	str	r3, [r7, #12]
  sConfig.OffsetNumber = ADC_OFFSET_NONE;
 80009b6:	2304      	movs	r3, #4
 80009b8:	613b      	str	r3, [r7, #16]
  sConfig.Offset = 0;
 80009ba:	2300      	movs	r3, #0
 80009bc:	617b      	str	r3, [r7, #20]
  if (HAL_ADC_ConfigChannel(&hadc3, &sConfig) != HAL_OK)
 80009be:	463b      	mov	r3, r7
 80009c0:	4619      	mov	r1, r3
 80009c2:	4806      	ldr	r0, [pc, #24]	@ (80009dc <MX_ADC3_Init+0xbc>)
 80009c4:	f001 febc 	bl	8002740 <HAL_ADC_ConfigChannel>
 80009c8:	4603      	mov	r3, r0
 80009ca:	2b00      	cmp	r3, #0
 80009cc:	d001      	beq.n	80009d2 <MX_ADC3_Init+0xb2>
  {
    Error_Handler();
 80009ce:	f000 fd41 	bl	8001454 <Error_Handler>
  }
  /* USER CODE BEGIN ADC3_Init 2 */

  /* USER CODE END ADC3_Init 2 */

}
 80009d2:	bf00      	nop
 80009d4:	3718      	adds	r7, #24
 80009d6:	46bd      	mov	sp, r7
 80009d8:	bd80      	pop	{r7, pc}
 80009da:	bf00      	nop
 80009dc:	200000f0 	.word	0x200000f0
 80009e0:	50040200 	.word	0x50040200
 80009e4:	0c900008 	.word	0x0c900008

080009e8 <MX_I2C2_Init>:
  * @brief I2C2 Initialization Function
  * @param None
  * @retval None
  */
static void MX_I2C2_Init(void)
{
 80009e8:	b580      	push	{r7, lr}
 80009ea:	af00      	add	r7, sp, #0
  /* USER CODE END I2C2_Init 0 */

  /* USER CODE BEGIN I2C2_Init 1 */

  /* USER CODE END I2C2_Init 1 */
  hi2c2.Instance = I2C2;
 80009ec:	4b1b      	ldr	r3, [pc, #108]	@ (8000a5c <MX_I2C2_Init+0x74>)
 80009ee:	4a1c      	ldr	r2, [pc, #112]	@ (8000a60 <MX_I2C2_Init+0x78>)
 80009f0:	601a      	str	r2, [r3, #0]
  hi2c2.Init.Timing = 0x10909CEC;
 80009f2:	4b1a      	ldr	r3, [pc, #104]	@ (8000a5c <MX_I2C2_Init+0x74>)
 80009f4:	4a1b      	ldr	r2, [pc, #108]	@ (8000a64 <MX_I2C2_Init+0x7c>)
 80009f6:	605a      	str	r2, [r3, #4]
  hi2c2.Init.OwnAddress1 = 0;
 80009f8:	4b18      	ldr	r3, [pc, #96]	@ (8000a5c <MX_I2C2_Init+0x74>)
 80009fa:	2200      	movs	r2, #0
 80009fc:	609a      	str	r2, [r3, #8]
  hi2c2.Init.AddressingMode = I2C_ADDRESSINGMODE_7BIT;
 80009fe:	4b17      	ldr	r3, [pc, #92]	@ (8000a5c <MX_I2C2_Init+0x74>)
 8000a00:	2201      	movs	r2, #1
 8000a02:	60da      	str	r2, [r3, #12]
  hi2c2.Init.DualAddressMode = I2C_DUALADDRESS_DISABLE;
 8000a04:	4b15      	ldr	r3, [pc, #84]	@ (8000a5c <MX_I2C2_Init+0x74>)
 8000a06:	2200      	movs	r2, #0
 8000a08:	611a      	str	r2, [r3, #16]
  hi2c2.Init.OwnAddress2 = 0;
 8000a0a:	4b14      	ldr	r3, [pc, #80]	@ (8000a5c <MX_I2C2_Init+0x74>)
 8000a0c:	2200      	movs	r2, #0
 8000a0e:	615a      	str	r2, [r3, #20]
  hi2c2.Init.OwnAddress2Masks = I2C_OA2_NOMASK;
 8000a10:	4b12      	ldr	r3, [pc, #72]	@ (8000a5c <MX_I2C2_Init+0x74>)
 8000a12:	2200      	movs	r2, #0
 8000a14:	619a      	str	r2, [r3, #24]
  hi2c2.Init.GeneralCallMode = I2C_GENERALCALL_DISABLE;
 8000a16:	4b11      	ldr	r3, [pc, #68]	@ (8000a5c <MX_I2C2_Init+0x74>)
 8000a18:	2200      	movs	r2, #0
 8000a1a:	61da      	str	r2, [r3, #28]
  hi2c2.Init.NoStretchMode = I2C_NOSTRETCH_DISABLE;
 8000a1c:	4b0f      	ldr	r3, [pc, #60]	@ (8000a5c <MX_I2C2_Init+0x74>)
 8000a1e:	2200      	movs	r2, #0
 8000a20:	621a      	str	r2, [r3, #32]
  if (HAL_I2C_Init(&hi2c2) != HAL_OK)
 8000a22:	480e      	ldr	r0, [pc, #56]	@ (8000a5c <MX_I2C2_Init+0x74>)
 8000a24:	f002 ff2c 	bl	8003880 <HAL_I2C_Init>
 8000a28:	4603      	mov	r3, r0
 8000a2a:	2b00      	cmp	r3, #0
 8000a2c:	d001      	beq.n	8000a32 <MX_I2C2_Init+0x4a>
  {
    Error_Handler();
 8000a2e:	f000 fd11 	bl	8001454 <Error_Handler>
  }

  /** Configure Analogue filter
  */
  if (HAL_I2CEx_ConfigAnalogFilter(&hi2c2, I2C_ANALOGFILTER_ENABLE) != HAL_OK)
 8000a32:	2100      	movs	r1, #0
 8000a34:	4809      	ldr	r0, [pc, #36]	@ (8000a5c <MX_I2C2_Init+0x74>)
 8000a36:	f002 ffbe 	bl	80039b6 <HAL_I2CEx_ConfigAnalogFilter>
 8000a3a:	4603      	mov	r3, r0
 8000a3c:	2b00      	cmp	r3, #0
 8000a3e:	d001      	beq.n	8000a44 <MX_I2C2_Init+0x5c>
  {
    Error_Handler();
 8000a40:	f000 fd08 	bl	8001454 <Error_Handler>
  }

  /** Configure Digital filter
  */
  if (HAL_I2CEx_ConfigDigitalFilter(&hi2c2, 0) != HAL_OK)
 8000a44:	2100      	movs	r1, #0
 8000a46:	4805      	ldr	r0, [pc, #20]	@ (8000a5c <MX_I2C2_Init+0x74>)
 8000a48:	f003 f800 	bl	8003a4c <HAL_I2CEx_ConfigDigitalFilter>
 8000a4c:	4603      	mov	r3, r0
 8000a4e:	2b00      	cmp	r3, #0
 8000a50:	d001      	beq.n	8000a56 <MX_I2C2_Init+0x6e>
  {
    Error_Handler();
 8000a52:	f000 fcff 	bl	8001454 <Error_Handler>
  }
  /* USER CODE BEGIN I2C2_Init 2 */

  /* USER CODE END I2C2_Init 2 */

}
 8000a56:	bf00      	nop
 8000a58:	bd80      	pop	{r7, pc}
 8000a5a:	bf00      	nop
 8000a5c:	20000154 	.word	0x20000154
 8000a60:	40005800 	.word	0x40005800
 8000a64:	10909cec 	.word	0x10909cec

08000a68 <MX_SPI3_Init>:
  * @brief SPI3 Initialization Function
  * @param None
  * @retval None
  */
static void MX_SPI3_Init(void)
{
 8000a68:	b580      	push	{r7, lr}
 8000a6a:	af00      	add	r7, sp, #0

  /* USER CODE BEGIN SPI3_Init 1 */

  /* USER CODE END SPI3_Init 1 */
  /* SPI3 parameter configuration*/
  hspi3.Instance = SPI3;
 8000a6c:	4b1b      	ldr	r3, [pc, #108]	@ (8000adc <MX_SPI3_Init+0x74>)
 8000a6e:	4a1c      	ldr	r2, [pc, #112]	@ (8000ae0 <MX_SPI3_Init+0x78>)
 8000a70:	601a      	str	r2, [r3, #0]
  hspi3.Init.Mode = SPI_MODE_MASTER;
 8000a72:	4b1a      	ldr	r3, [pc, #104]	@ (8000adc <MX_SPI3_Init+0x74>)
 8000a74:	f44f 7282 	mov.w	r2, #260	@ 0x104
 8000a78:	605a      	str	r2, [r3, #4]
  hspi3.Init.Direction = SPI_DIRECTION_2LINES_RXONLY;
 8000a7a:	4b18      	ldr	r3, [pc, #96]	@ (8000adc <MX_SPI3_Init+0x74>)
 8000a7c:	f44f 6280 	mov.w	r2, #1024	@ 0x400
 8000a80:	609a      	str	r2, [r3, #8]
  hspi3.Init.DataSize = SPI_DATASIZE_8BIT;
 8000a82:	4b16      	ldr	r3, [pc, #88]	@ (8000adc <MX_SPI3_Init+0x74>)
 8000a84:	f44f 62e0 	mov.w	r2, #1792	@ 0x700
 8000a88:	60da      	str	r2, [r3, #12]
  hspi3.Init.CLKPolarity = SPI_POLARITY_LOW;
 8000a8a:	4b14      	ldr	r3, [pc, #80]	@ (8000adc <MX_SPI3_Init+0x74>)
 8000a8c:	2200      	movs	r2, #0
 8000a8e:	611a      	str	r2, [r3, #16]
  hspi3.Init.CLKPhase = SPI_PHASE_1EDGE;
 8000a90:	4b12      	ldr	r3, [pc, #72]	@ (8000adc <MX_SPI3_Init+0x74>)
 8000a92:	2200      	movs	r2, #0
 8000a94:	615a      	str	r2, [r3, #20]
  hspi3.Init.NSS = SPI_NSS_SOFT;
 8000a96:	4b11      	ldr	r3, [pc, #68]	@ (8000adc <MX_SPI3_Init+0x74>)
 8000a98:	f44f 7200 	mov.w	r2, #512	@ 0x200
 8000a9c:	619a      	str	r2, [r3, #24]
  hspi3.Init.BaudRatePrescaler = SPI_BAUDRATEPRESCALER_2;
 8000a9e:	4b0f      	ldr	r3, [pc, #60]	@ (8000adc <MX_SPI3_Init+0x74>)
 8000aa0:	2200      	movs	r2, #0
 8000aa2:	61da      	str	r2, [r3, #28]
  hspi3.Init.FirstBit = SPI_FIRSTBIT_MSB;
 8000aa4:	4b0d      	ldr	r3, [pc, #52]	@ (8000adc <MX_SPI3_Init+0x74>)
 8000aa6:	2200      	movs	r2, #0
 8000aa8:	621a      	str	r2, [r3, #32]
  hspi3.Init.TIMode = SPI_TIMODE_DISABLE;
 8000aaa:	4b0c      	ldr	r3, [pc, #48]	@ (8000adc <MX_SPI3_Init+0x74>)
 8000aac:	2200      	movs	r2, #0
 8000aae:	625a      	str	r2, [r3, #36]	@ 0x24
  hspi3.Init.CRCCalculation = SPI_CRCCALCULATION_DISABLE;
 8000ab0:	4b0a      	ldr	r3, [pc, #40]	@ (8000adc <MX_SPI3_Init+0x74>)
 8000ab2:	2200      	movs	r2, #0
 8000ab4:	629a      	str	r2, [r3, #40]	@ 0x28
  hspi3.Init.CRCPolynomial = 7;
 8000ab6:	4b09      	ldr	r3, [pc, #36]	@ (8000adc <MX_SPI3_Init+0x74>)
 8000ab8:	2207      	movs	r2, #7
 8000aba:	62da      	str	r2, [r3, #44]	@ 0x2c
  hspi3.Init.CRCLength = SPI_CRC_LENGTH_DATASIZE;
 8000abc:	4b07      	ldr	r3, [pc, #28]	@ (8000adc <MX_SPI3_Init+0x74>)
 8000abe:	2200      	movs	r2, #0
 8000ac0:	631a      	str	r2, [r3, #48]	@ 0x30
  hspi3.Init.NSSPMode = SPI_NSS_PULSE_ENABLE;
 8000ac2:	4b06      	ldr	r3, [pc, #24]	@ (8000adc <MX_SPI3_Init+0x74>)
 8000ac4:	2208      	movs	r2, #8
 8000ac6:	635a      	str	r2, [r3, #52]	@ 0x34
  if (HAL_SPI_Init(&hspi3) != HAL_OK)
 8000ac8:	4804      	ldr	r0, [pc, #16]	@ (8000adc <MX_SPI3_Init+0x74>)
 8000aca:	f004 fafb 	bl	80050c4 <HAL_SPI_Init>
 8000ace:	4603      	mov	r3, r0
 8000ad0:	2b00      	cmp	r3, #0
 8000ad2:	d001      	beq.n	8000ad8 <MX_SPI3_Init+0x70>
  {
    Error_Handler();
 8000ad4:	f000 fcbe 	bl	8001454 <Error_Handler>
  }
  /* USER CODE BEGIN SPI3_Init 2 */

  /* USER CODE END SPI3_Init 2 */

}
 8000ad8:	bf00      	nop
 8000ada:	bd80      	pop	{r7, pc}
 8000adc:	200001a8 	.word	0x200001a8
 8000ae0:	40003c00 	.word	0x40003c00

08000ae4 <MX_TIM1_Init>:
  * @brief TIM1 Initialization Function
  * @param None
  * @retval None
  */
static void MX_TIM1_Init(void)
{
 8000ae4:	b580      	push	{r7, lr}
 8000ae6:	b09a      	sub	sp, #104	@ 0x68
 8000ae8:	af00      	add	r7, sp, #0

  /* USER CODE BEGIN TIM1_Init 0 */
  /* USER CODE END TIM1_Init 0 */

  TIM_ClockConfigTypeDef sClockSourceConfig = {0};
 8000aea:	f107 0358 	add.w	r3, r7, #88	@ 0x58
 8000aee:	2200      	movs	r2, #0
 8000af0:	601a      	str	r2, [r3, #0]
 8000af2:	605a      	str	r2, [r3, #4]
 8000af4:	609a      	str	r2, [r3, #8]
 8000af6:	60da      	str	r2, [r3, #12]
  TIM_MasterConfigTypeDef sMasterConfig = {0};
 8000af8:	f107 034c 	add.w	r3, r7, #76	@ 0x4c
 8000afc:	2200      	movs	r2, #0
 8000afe:	601a      	str	r2, [r3, #0]
 8000b00:	605a      	str	r2, [r3, #4]
 8000b02:	609a      	str	r2, [r3, #8]
  TIM_OC_InitTypeDef sConfigOC = {0};
 8000b04:	f107 0330 	add.w	r3, r7, #48	@ 0x30
 8000b08:	2200      	movs	r2, #0
 8000b0a:	601a      	str	r2, [r3, #0]
 8000b0c:	605a      	str	r2, [r3, #4]
 8000b0e:	609a      	str	r2, [r3, #8]
 8000b10:	60da      	str	r2, [r3, #12]
 8000b12:	611a      	str	r2, [r3, #16]
 8000b14:	615a      	str	r2, [r3, #20]
 8000b16:	619a      	str	r2, [r3, #24]
  TIM_BreakDeadTimeConfigTypeDef sBreakDeadTimeConfig = {0};
 8000b18:	1d3b      	adds	r3, r7, #4
 8000b1a:	222c      	movs	r2, #44	@ 0x2c
 8000b1c:	2100      	movs	r1, #0
 8000b1e:	4618      	mov	r0, r3
 8000b20:	f007 fed0 	bl	80088c4 <memset>

  /* USER CODE BEGIN TIM1_Init 1 */
  /* USER CODE END TIM1_Init 1 */
  htim1.Instance = TIM1;
 8000b24:	4b65      	ldr	r3, [pc, #404]	@ (8000cbc <MX_TIM1_Init+0x1d8>)
 8000b26:	4a66      	ldr	r2, [pc, #408]	@ (8000cc0 <MX_TIM1_Init+0x1dc>)
 8000b28:	601a      	str	r2, [r3, #0]
  htim1.Init.Prescaler = 0;
 8000b2a:	4b64      	ldr	r3, [pc, #400]	@ (8000cbc <MX_TIM1_Init+0x1d8>)
 8000b2c:	2200      	movs	r2, #0
 8000b2e:	605a      	str	r2, [r3, #4]
  htim1.Init.CounterMode = TIM_COUNTERMODE_UP;
 8000b30:	4b62      	ldr	r3, [pc, #392]	@ (8000cbc <MX_TIM1_Init+0x1d8>)
 8000b32:	2200      	movs	r2, #0
 8000b34:	609a      	str	r2, [r3, #8]
  htim1.Init.Period = 59999;
 8000b36:	4b61      	ldr	r3, [pc, #388]	@ (8000cbc <MX_TIM1_Init+0x1d8>)
 8000b38:	f64e 225f 	movw	r2, #59999	@ 0xea5f
 8000b3c:	60da      	str	r2, [r3, #12]
  htim1.Init.ClockDivision = TIM_CLOCKDIVISION_DIV1;
 8000b3e:	4b5f      	ldr	r3, [pc, #380]	@ (8000cbc <MX_TIM1_Init+0x1d8>)
 8000b40:	2200      	movs	r2, #0
 8000b42:	611a      	str	r2, [r3, #16]
  htim1.Init.RepetitionCounter = 0;
 8000b44:	4b5d      	ldr	r3, [pc, #372]	@ (8000cbc <MX_TIM1_Init+0x1d8>)
 8000b46:	2200      	movs	r2, #0
 8000b48:	615a      	str	r2, [r3, #20]
  htim1.Init.AutoReloadPreload = TIM_AUTORELOAD_PRELOAD_DISABLE;
 8000b4a:	4b5c      	ldr	r3, [pc, #368]	@ (8000cbc <MX_TIM1_Init+0x1d8>)
 8000b4c:	2200      	movs	r2, #0
 8000b4e:	619a      	str	r2, [r3, #24]
  if (HAL_TIM_Base_Init(&htim1) != HAL_OK)
 8000b50:	485a      	ldr	r0, [pc, #360]	@ (8000cbc <MX_TIM1_Init+0x1d8>)
 8000b52:	f004 fc6e 	bl	8005432 <HAL_TIM_Base_Init>
 8000b56:	4603      	mov	r3, r0
 8000b58:	2b00      	cmp	r3, #0
 8000b5a:	d001      	beq.n	8000b60 <MX_TIM1_Init+0x7c>
  {
    Error_Handler();
 8000b5c:	f000 fc7a 	bl	8001454 <Error_Handler>
  }
  sClockSourceConfig.ClockSource = TIM_CLOCKSOURCE_INTERNAL;
 8000b60:	f44f 5380 	mov.w	r3, #4096	@ 0x1000
 8000b64:	65bb      	str	r3, [r7, #88]	@ 0x58
  if (HAL_TIM_ConfigClockSource(&htim1, &sClockSourceConfig) != HAL_OK)
 8000b66:	f107 0358 	add.w	r3, r7, #88	@ 0x58
 8000b6a:	4619      	mov	r1, r3
 8000b6c:	4853      	ldr	r0, [pc, #332]	@ (8000cbc <MX_TIM1_Init+0x1d8>)
 8000b6e:	f005 fbbd 	bl	80062ec <HAL_TIM_ConfigClockSource>
 8000b72:	4603      	mov	r3, r0
 8000b74:	2b00      	cmp	r3, #0
 8000b76:	d001      	beq.n	8000b7c <MX_TIM1_Init+0x98>
  {
    Error_Handler();
 8000b78:	f000 fc6c 	bl	8001454 <Error_Handler>
  }
  if (HAL_TIM_PWM_Init(&htim1) != HAL_OK)
 8000b7c:	484f      	ldr	r0, [pc, #316]	@ (8000cbc <MX_TIM1_Init+0x1d8>)
 8000b7e:	f004 fcaf 	bl	80054e0 <HAL_TIM_PWM_Init>
 8000b82:	4603      	mov	r3, r0
 8000b84:	2b00      	cmp	r3, #0
 8000b86:	d001      	beq.n	8000b8c <MX_TIM1_Init+0xa8>
  {
    Error_Handler();
 8000b88:	f000 fc64 	bl	8001454 <Error_Handler>
  }
  sMasterConfig.MasterOutputTrigger = TIM_TRGO_RESET;
 8000b8c:	2300      	movs	r3, #0
 8000b8e:	64fb      	str	r3, [r7, #76]	@ 0x4c
  sMasterConfig.MasterOutputTrigger2 = TIM_TRGO2_RESET;
 8000b90:	2300      	movs	r3, #0
 8000b92:	653b      	str	r3, [r7, #80]	@ 0x50
  sMasterConfig.MasterSlaveMode = TIM_MASTERSLAVEMODE_DISABLE;
 8000b94:	2300      	movs	r3, #0
 8000b96:	657b      	str	r3, [r7, #84]	@ 0x54
  if (HAL_TIMEx_MasterConfigSynchronization(&htim1, &sMasterConfig) != HAL_OK)
 8000b98:	f107 034c 	add.w	r3, r7, #76	@ 0x4c
 8000b9c:	4619      	mov	r1, r3
 8000b9e:	4847      	ldr	r0, [pc, #284]	@ (8000cbc <MX_TIM1_Init+0x1d8>)
 8000ba0:	f006 fa2e 	bl	8007000 <HAL_TIMEx_MasterConfigSynchronization>
 8000ba4:	4603      	mov	r3, r0
 8000ba6:	2b00      	cmp	r3, #0
 8000ba8:	d001      	beq.n	8000bae <MX_TIM1_Init+0xca>
  {
    Error_Handler();
 8000baa:	f000 fc53 	bl	8001454 <Error_Handler>
  }
  sConfigOC.OCMode = TIM_OCMODE_PWM1;
 8000bae:	2360      	movs	r3, #96	@ 0x60
 8000bb0:	633b      	str	r3, [r7, #48]	@ 0x30
  sConfigOC.Pulse = 0;
 8000bb2:	2300      	movs	r3, #0
 8000bb4:	637b      	str	r3, [r7, #52]	@ 0x34
  sConfigOC.OCPolarity = TIM_OCPOLARITY_HIGH;
 8000bb6:	2300      	movs	r3, #0
 8000bb8:	63bb      	str	r3, [r7, #56]	@ 0x38
  sConfigOC.OCNPolarity = TIM_OCNPOLARITY_HIGH;
 8000bba:	2300      	movs	r3, #0
 8000bbc:	63fb      	str	r3, [r7, #60]	@ 0x3c
  sConfigOC.OCFastMode = TIM_OCFAST_DISABLE;
 8000bbe:	2300      	movs	r3, #0
 8000bc0:	643b      	str	r3, [r7, #64]	@ 0x40
  sConfigOC.OCIdleState = TIM_OCIDLESTATE_RESET;
 8000bc2:	2300      	movs	r3, #0
 8000bc4:	647b      	str	r3, [r7, #68]	@ 0x44
  sConfigOC.OCNIdleState = TIM_OCNIDLESTATE_RESET;
 8000bc6:	2300      	movs	r3, #0
 8000bc8:	64bb      	str	r3, [r7, #72]	@ 0x48
  if (HAL_TIM_PWM_ConfigChannel(&htim1, &sConfigOC, TIM_CHANNEL_1) != HAL_OK)
 8000bca:	f107 0330 	add.w	r3, r7, #48	@ 0x30
 8000bce:	2200      	movs	r2, #0
 8000bd0:	4619      	mov	r1, r3
 8000bd2:	483a      	ldr	r0, [pc, #232]	@ (8000cbc <MX_TIM1_Init+0x1d8>)
 8000bd4:	f005 fa76 	bl	80060c4 <HAL_TIM_PWM_ConfigChannel>
 8000bd8:	4603      	mov	r3, r0
 8000bda:	2b00      	cmp	r3, #0
 8000bdc:	d001      	beq.n	8000be2 <MX_TIM1_Init+0xfe>
  {
    Error_Handler();
 8000bde:	f000 fc39 	bl	8001454 <Error_Handler>
  }
  __HAL_TIM_DISABLE_OCxPRELOAD(&htim1, TIM_CHANNEL_1);
 8000be2:	4b36      	ldr	r3, [pc, #216]	@ (8000cbc <MX_TIM1_Init+0x1d8>)
 8000be4:	681b      	ldr	r3, [r3, #0]
 8000be6:	699a      	ldr	r2, [r3, #24]
 8000be8:	4b34      	ldr	r3, [pc, #208]	@ (8000cbc <MX_TIM1_Init+0x1d8>)
 8000bea:	681b      	ldr	r3, [r3, #0]
 8000bec:	f022 0208 	bic.w	r2, r2, #8
 8000bf0:	619a      	str	r2, [r3, #24]
  if (HAL_TIM_PWM_ConfigChannel(&htim1, &sConfigOC, TIM_CHANNEL_2) != HAL_OK)
 8000bf2:	f107 0330 	add.w	r3, r7, #48	@ 0x30
 8000bf6:	2204      	movs	r2, #4
 8000bf8:	4619      	mov	r1, r3
 8000bfa:	4830      	ldr	r0, [pc, #192]	@ (8000cbc <MX_TIM1_Init+0x1d8>)
 8000bfc:	f005 fa62 	bl	80060c4 <HAL_TIM_PWM_ConfigChannel>
 8000c00:	4603      	mov	r3, r0
 8000c02:	2b00      	cmp	r3, #0
 8000c04:	d001      	beq.n	8000c0a <MX_TIM1_Init+0x126>
  {
    Error_Handler();
 8000c06:	f000 fc25 	bl	8001454 <Error_Handler>
  }
  __HAL_TIM_DISABLE_OCxPRELOAD(&htim1, TIM_CHANNEL_2);
 8000c0a:	4b2c      	ldr	r3, [pc, #176]	@ (8000cbc <MX_TIM1_Init+0x1d8>)
 8000c0c:	681b      	ldr	r3, [r3, #0]
 8000c0e:	699a      	ldr	r2, [r3, #24]
 8000c10:	4b2a      	ldr	r3, [pc, #168]	@ (8000cbc <MX_TIM1_Init+0x1d8>)
 8000c12:	681b      	ldr	r3, [r3, #0]
 8000c14:	f422 6200 	bic.w	r2, r2, #2048	@ 0x800
 8000c18:	619a      	str	r2, [r3, #24]
  if (HAL_TIM_PWM_ConfigChannel(&htim1, &sConfigOC, TIM_CHANNEL_3) != HAL_OK)
 8000c1a:	f107 0330 	add.w	r3, r7, #48	@ 0x30
 8000c1e:	2208      	movs	r2, #8
 8000c20:	4619      	mov	r1, r3
 8000c22:	4826      	ldr	r0, [pc, #152]	@ (8000cbc <MX_TIM1_Init+0x1d8>)
 8000c24:	f005 fa4e 	bl	80060c4 <HAL_TIM_PWM_ConfigChannel>
 8000c28:	4603      	mov	r3, r0
 8000c2a:	2b00      	cmp	r3, #0
 8000c2c:	d001      	beq.n	8000c32 <MX_TIM1_Init+0x14e>
  {
    Error_Handler();
 8000c2e:	f000 fc11 	bl	8001454 <Error_Handler>
  }
  __HAL_TIM_DISABLE_OCxPRELOAD(&htim1, TIM_CHANNEL_3);
 8000c32:	4b22      	ldr	r3, [pc, #136]	@ (8000cbc <MX_TIM1_Init+0x1d8>)
 8000c34:	681b      	ldr	r3, [r3, #0]
 8000c36:	69da      	ldr	r2, [r3, #28]
 8000c38:	4b20      	ldr	r3, [pc, #128]	@ (8000cbc <MX_TIM1_Init+0x1d8>)
 8000c3a:	681b      	ldr	r3, [r3, #0]
 8000c3c:	f022 0208 	bic.w	r2, r2, #8
 8000c40:	61da      	str	r2, [r3, #28]
  if (HAL_TIM_PWM_ConfigChannel(&htim1, &sConfigOC, TIM_CHANNEL_4) != HAL_OK)
 8000c42:	f107 0330 	add.w	r3, r7, #48	@ 0x30
 8000c46:	220c      	movs	r2, #12
 8000c48:	4619      	mov	r1, r3
 8000c4a:	481c      	ldr	r0, [pc, #112]	@ (8000cbc <MX_TIM1_Init+0x1d8>)
 8000c4c:	f005 fa3a 	bl	80060c4 <HAL_TIM_PWM_ConfigChannel>
 8000c50:	4603      	mov	r3, r0
 8000c52:	2b00      	cmp	r3, #0
 8000c54:	d001      	beq.n	8000c5a <MX_TIM1_Init+0x176>
  {
    Error_Handler();
 8000c56:	f000 fbfd 	bl	8001454 <Error_Handler>
  }
  __HAL_TIM_DISABLE_OCxPRELOAD(&htim1, TIM_CHANNEL_4);
 8000c5a:	4b18      	ldr	r3, [pc, #96]	@ (8000cbc <MX_TIM1_Init+0x1d8>)
 8000c5c:	681b      	ldr	r3, [r3, #0]
 8000c5e:	69da      	ldr	r2, [r3, #28]
 8000c60:	4b16      	ldr	r3, [pc, #88]	@ (8000cbc <MX_TIM1_Init+0x1d8>)
 8000c62:	681b      	ldr	r3, [r3, #0]
 8000c64:	f422 6200 	bic.w	r2, r2, #2048	@ 0x800
 8000c68:	61da      	str	r2, [r3, #28]
  sBreakDeadTimeConfig.OffStateRunMode = TIM_OSSR_DISABLE;
 8000c6a:	2300      	movs	r3, #0
 8000c6c:	607b      	str	r3, [r7, #4]
  sBreakDeadTimeConfig.OffStateIDLEMode = TIM_OSSI_DISABLE;
 8000c6e:	2300      	movs	r3, #0
 8000c70:	60bb      	str	r3, [r7, #8]
  sBreakDeadTimeConfig.LockLevel = TIM_LOCKLEVEL_OFF;
 8000c72:	2300      	movs	r3, #0
 8000c74:	60fb      	str	r3, [r7, #12]
  sBreakDeadTimeConfig.DeadTime = 0;
 8000c76:	2300      	movs	r3, #0
 8000c78:	613b      	str	r3, [r7, #16]
  sBreakDeadTimeConfig.BreakState = TIM_BREAK_DISABLE;
 8000c7a:	2300      	movs	r3, #0
 8000c7c:	617b      	str	r3, [r7, #20]
  sBreakDeadTimeConfig.BreakPolarity = TIM_BREAKPOLARITY_HIGH;
 8000c7e:	f44f 5300 	mov.w	r3, #8192	@ 0x2000
 8000c82:	61bb      	str	r3, [r7, #24]
  sBreakDeadTimeConfig.BreakFilter = 0;
 8000c84:	2300      	movs	r3, #0
 8000c86:	61fb      	str	r3, [r7, #28]
  sBreakDeadTimeConfig.Break2State = TIM_BREAK2_DISABLE;
 8000c88:	2300      	movs	r3, #0
 8000c8a:	623b      	str	r3, [r7, #32]
  sBreakDeadTimeConfig.Break2Polarity = TIM_BREAK2POLARITY_HIGH;
 8000c8c:	f04f 7300 	mov.w	r3, #33554432	@ 0x2000000
 8000c90:	627b      	str	r3, [r7, #36]	@ 0x24
  sBreakDeadTimeConfig.Break2Filter = 0;
 8000c92:	2300      	movs	r3, #0
 8000c94:	62bb      	str	r3, [r7, #40]	@ 0x28
  sBreakDeadTimeConfig.AutomaticOutput = TIM_AUTOMATICOUTPUT_DISABLE;
 8000c96:	2300      	movs	r3, #0
 8000c98:	62fb      	str	r3, [r7, #44]	@ 0x2c
  if (HAL_TIMEx_ConfigBreakDeadTime(&htim1, &sBreakDeadTimeConfig) != HAL_OK)
 8000c9a:	1d3b      	adds	r3, r7, #4
 8000c9c:	4619      	mov	r1, r3
 8000c9e:	4807      	ldr	r0, [pc, #28]	@ (8000cbc <MX_TIM1_Init+0x1d8>)
 8000ca0:	f006 fa36 	bl	8007110 <HAL_TIMEx_ConfigBreakDeadTime>
 8000ca4:	4603      	mov	r3, r0
 8000ca6:	2b00      	cmp	r3, #0
 8000ca8:	d001      	beq.n	8000cae <MX_TIM1_Init+0x1ca>
  {
    Error_Handler();
 8000caa:	f000 fbd3 	bl	8001454 <Error_Handler>
  }
  /* USER CODE BEGIN TIM1_Init 2 */
  /* USER CODE END TIM1_Init 2 */
  HAL_TIM_MspPostInit(&htim1);
 8000cae:	4803      	ldr	r0, [pc, #12]	@ (8000cbc <MX_TIM1_Init+0x1d8>)
 8000cb0:	f000 ff14 	bl	8001adc <HAL_TIM_MspPostInit>

}
 8000cb4:	bf00      	nop
 8000cb6:	3768      	adds	r7, #104	@ 0x68
 8000cb8:	46bd      	mov	sp, r7
 8000cba:	bd80      	pop	{r7, pc}
 8000cbc:	2000020c 	.word	0x2000020c
 8000cc0:	40012c00 	.word	0x40012c00

08000cc4 <MX_TIM2_Init>:
  * @brief TIM2 Initialization Function
  * @param None
  * @retval None
  */
static void MX_TIM2_Init(void)
{
 8000cc4:	b580      	push	{r7, lr}
 8000cc6:	b08c      	sub	sp, #48	@ 0x30
 8000cc8:	af00      	add	r7, sp, #0

  /* USER CODE BEGIN TIM2_Init 0 */

  /* USER CODE END TIM2_Init 0 */

  TIM_Encoder_InitTypeDef sConfig = {0};
 8000cca:	f107 030c 	add.w	r3, r7, #12
 8000cce:	2224      	movs	r2, #36	@ 0x24
 8000cd0:	2100      	movs	r1, #0
 8000cd2:	4618      	mov	r0, r3
 8000cd4:	f007 fdf6 	bl	80088c4 <memset>
  TIM_MasterConfigTypeDef sMasterConfig = {0};
 8000cd8:	463b      	mov	r3, r7
 8000cda:	2200      	movs	r2, #0
 8000cdc:	601a      	str	r2, [r3, #0]
 8000cde:	605a      	str	r2, [r3, #4]
 8000ce0:	609a      	str	r2, [r3, #8]

  /* USER CODE BEGIN TIM2_Init 1 */

  /* USER CODE END TIM2_Init 1 */
  htim2.Instance = TIM2;
 8000ce2:	4b21      	ldr	r3, [pc, #132]	@ (8000d68 <MX_TIM2_Init+0xa4>)
 8000ce4:	f04f 4280 	mov.w	r2, #1073741824	@ 0x40000000
 8000ce8:	601a      	str	r2, [r3, #0]
  htim2.Init.Prescaler = 0;
 8000cea:	4b1f      	ldr	r3, [pc, #124]	@ (8000d68 <MX_TIM2_Init+0xa4>)
 8000cec:	2200      	movs	r2, #0
 8000cee:	605a      	str	r2, [r3, #4]
  htim2.Init.CounterMode = TIM_COUNTERMODE_UP;
 8000cf0:	4b1d      	ldr	r3, [pc, #116]	@ (8000d68 <MX_TIM2_Init+0xa4>)
 8000cf2:	2200      	movs	r2, #0
 8000cf4:	609a      	str	r2, [r3, #8]
  htim2.Init.Period = 65535;
 8000cf6:	4b1c      	ldr	r3, [pc, #112]	@ (8000d68 <MX_TIM2_Init+0xa4>)
 8000cf8:	f64f 72ff 	movw	r2, #65535	@ 0xffff
 8000cfc:	60da      	str	r2, [r3, #12]
  htim2.Init.ClockDivision = TIM_CLOCKDIVISION_DIV1;
 8000cfe:	4b1a      	ldr	r3, [pc, #104]	@ (8000d68 <MX_TIM2_Init+0xa4>)
 8000d00:	2200      	movs	r2, #0
 8000d02:	611a      	str	r2, [r3, #16]
  htim2.Init.AutoReloadPreload = TIM_AUTORELOAD_PRELOAD_DISABLE;
 8000d04:	4b18      	ldr	r3, [pc, #96]	@ (8000d68 <MX_TIM2_Init+0xa4>)
 8000d06:	2200      	movs	r2, #0
 8000d08:	619a      	str	r2, [r3, #24]
  sConfig.EncoderMode = TIM_ENCODERMODE_TI1;
 8000d0a:	2301      	movs	r3, #1
 8000d0c:	60fb      	str	r3, [r7, #12]
  sConfig.IC1Polarity = TIM_ICPOLARITY_RISING;
 8000d0e:	2300      	movs	r3, #0
 8000d10:	613b      	str	r3, [r7, #16]
  sConfig.IC1Selection = TIM_ICSELECTION_DIRECTTI;
 8000d12:	2301      	movs	r3, #1
 8000d14:	617b      	str	r3, [r7, #20]
  sConfig.IC1Prescaler = TIM_ICPSC_DIV1;
 8000d16:	2300      	movs	r3, #0
 8000d18:	61bb      	str	r3, [r7, #24]
  sConfig.IC1Filter = 0;
 8000d1a:	2300      	movs	r3, #0
 8000d1c:	61fb      	str	r3, [r7, #28]
  sConfig.IC2Polarity = TIM_ICPOLARITY_RISING;
 8000d1e:	2300      	movs	r3, #0
 8000d20:	623b      	str	r3, [r7, #32]
  sConfig.IC2Selection = TIM_ICSELECTION_DIRECTTI;
 8000d22:	2301      	movs	r3, #1
 8000d24:	627b      	str	r3, [r7, #36]	@ 0x24
  sConfig.IC2Prescaler = TIM_ICPSC_DIV1;
 8000d26:	2300      	movs	r3, #0
 8000d28:	62bb      	str	r3, [r7, #40]	@ 0x28
  sConfig.IC2Filter = 0;
 8000d2a:	2300      	movs	r3, #0
 8000d2c:	62fb      	str	r3, [r7, #44]	@ 0x2c
  if (HAL_TIM_Encoder_Init(&htim2, &sConfig) != HAL_OK)
 8000d2e:	f107 030c 	add.w	r3, r7, #12
 8000d32:	4619      	mov	r1, r3
 8000d34:	480c      	ldr	r0, [pc, #48]	@ (8000d68 <MX_TIM2_Init+0xa4>)
 8000d36:	f004 fed3 	bl	8005ae0 <HAL_TIM_Encoder_Init>
 8000d3a:	4603      	mov	r3, r0
 8000d3c:	2b00      	cmp	r3, #0
 8000d3e:	d001      	beq.n	8000d44 <MX_TIM2_Init+0x80>
  {
    Error_Handler();
 8000d40:	f000 fb88 	bl	8001454 <Error_Handler>
  }
  sMasterConfig.MasterOutputTrigger = TIM_TRGO_RESET;
 8000d44:	2300      	movs	r3, #0
 8000d46:	603b      	str	r3, [r7, #0]
  sMasterConfig.MasterSlaveMode = TIM_MASTERSLAVEMODE_DISABLE;
 8000d48:	2300      	movs	r3, #0
 8000d4a:	60bb      	str	r3, [r7, #8]
  if (HAL_TIMEx_MasterConfigSynchronization(&htim2, &sMasterConfig) != HAL_OK)
 8000d4c:	463b      	mov	r3, r7
 8000d4e:	4619      	mov	r1, r3
 8000d50:	4805      	ldr	r0, [pc, #20]	@ (8000d68 <MX_TIM2_Init+0xa4>)
 8000d52:	f006 f955 	bl	8007000 <HAL_TIMEx_MasterConfigSynchronization>
 8000d56:	4603      	mov	r3, r0
 8000d58:	2b00      	cmp	r3, #0
 8000d5a:	d001      	beq.n	8000d60 <MX_TIM2_Init+0x9c>
  {
    Error_Handler();
 8000d5c:	f000 fb7a 	bl	8001454 <Error_Handler>
  }
  /* USER CODE BEGIN TIM2_Init 2 */

  /* USER CODE END TIM2_Init 2 */

}
 8000d60:	bf00      	nop
 8000d62:	3730      	adds	r7, #48	@ 0x30
 8000d64:	46bd      	mov	sp, r7
 8000d66:	bd80      	pop	{r7, pc}
 8000d68:	20000258 	.word	0x20000258

08000d6c <MX_TIM3_Init>:
  * @brief TIM3 Initialization Function
  * @param None
  * @retval None
  */
static void MX_TIM3_Init(void)
{
 8000d6c:	b580      	push	{r7, lr}
 8000d6e:	b08c      	sub	sp, #48	@ 0x30
 8000d70:	af00      	add	r7, sp, #0

  /* USER CODE BEGIN TIM3_Init 0 */

  /* USER CODE END TIM3_Init 0 */

  TIM_Encoder_InitTypeDef sConfig = {0};
 8000d72:	f107 030c 	add.w	r3, r7, #12
 8000d76:	2224      	movs	r2, #36	@ 0x24
 8000d78:	2100      	movs	r1, #0
 8000d7a:	4618      	mov	r0, r3
 8000d7c:	f007 fda2 	bl	80088c4 <memset>
  TIM_MasterConfigTypeDef sMasterConfig = {0};
 8000d80:	463b      	mov	r3, r7
 8000d82:	2200      	movs	r2, #0
 8000d84:	601a      	str	r2, [r3, #0]
 8000d86:	605a      	str	r2, [r3, #4]
 8000d88:	609a      	str	r2, [r3, #8]

  /* USER CODE BEGIN TIM3_Init 1 */

  /* USER CODE END TIM3_Init 1 */
  htim3.Instance = TIM3;
 8000d8a:	4b21      	ldr	r3, [pc, #132]	@ (8000e10 <MX_TIM3_Init+0xa4>)
 8000d8c:	4a21      	ldr	r2, [pc, #132]	@ (8000e14 <MX_TIM3_Init+0xa8>)
 8000d8e:	601a      	str	r2, [r3, #0]
  htim3.Init.Prescaler = 0;
 8000d90:	4b1f      	ldr	r3, [pc, #124]	@ (8000e10 <MX_TIM3_Init+0xa4>)
 8000d92:	2200      	movs	r2, #0
 8000d94:	605a      	str	r2, [r3, #4]
  htim3.Init.CounterMode = TIM_COUNTERMODE_UP;
 8000d96:	4b1e      	ldr	r3, [pc, #120]	@ (8000e10 <MX_TIM3_Init+0xa4>)
 8000d98:	2200      	movs	r2, #0
 8000d9a:	609a      	str	r2, [r3, #8]
  htim3.Init.Period = 65535;
 8000d9c:	4b1c      	ldr	r3, [pc, #112]	@ (8000e10 <MX_TIM3_Init+0xa4>)
 8000d9e:	f64f 72ff 	movw	r2, #65535	@ 0xffff
 8000da2:	60da      	str	r2, [r3, #12]
  htim3.Init.ClockDivision = TIM_CLOCKDIVISION_DIV1;
 8000da4:	4b1a      	ldr	r3, [pc, #104]	@ (8000e10 <MX_TIM3_Init+0xa4>)
 8000da6:	2200      	movs	r2, #0
 8000da8:	611a      	str	r2, [r3, #16]
  htim3.Init.AutoReloadPreload = TIM_AUTORELOAD_PRELOAD_DISABLE;
 8000daa:	4b19      	ldr	r3, [pc, #100]	@ (8000e10 <MX_TIM3_Init+0xa4>)
 8000dac:	2200      	movs	r2, #0
 8000dae:	619a      	str	r2, [r3, #24]
  sConfig.EncoderMode = TIM_ENCODERMODE_TI1;
 8000db0:	2301      	movs	r3, #1
 8000db2:	60fb      	str	r3, [r7, #12]
  sConfig.IC1Polarity = TIM_ICPOLARITY_RISING;
 8000db4:	2300      	movs	r3, #0
 8000db6:	613b      	str	r3, [r7, #16]
  sConfig.IC1Selection = TIM_ICSELECTION_DIRECTTI;
 8000db8:	2301      	movs	r3, #1
 8000dba:	617b      	str	r3, [r7, #20]
  sConfig.IC1Prescaler = TIM_ICPSC_DIV1;
 8000dbc:	2300      	movs	r3, #0
 8000dbe:	61bb      	str	r3, [r7, #24]
  sConfig.IC1Filter = 0;
 8000dc0:	2300      	movs	r3, #0
 8000dc2:	61fb      	str	r3, [r7, #28]
  sConfig.IC2Polarity = TIM_ICPOLARITY_RISING;
 8000dc4:	2300      	movs	r3, #0
 8000dc6:	623b      	str	r3, [r7, #32]
  sConfig.IC2Selection = TIM_ICSELECTION_DIRECTTI;
 8000dc8:	2301      	movs	r3, #1
 8000dca:	627b      	str	r3, [r7, #36]	@ 0x24
  sConfig.IC2Prescaler = TIM_ICPSC_DIV1;
 8000dcc:	2300      	movs	r3, #0
 8000dce:	62bb      	str	r3, [r7, #40]	@ 0x28
  sConfig.IC2Filter = 0;
 8000dd0:	2300      	movs	r3, #0
 8000dd2:	62fb      	str	r3, [r7, #44]	@ 0x2c
  if (HAL_TIM_Encoder_Init(&htim3, &sConfig) != HAL_OK)
 8000dd4:	f107 030c 	add.w	r3, r7, #12
 8000dd8:	4619      	mov	r1, r3
 8000dda:	480d      	ldr	r0, [pc, #52]	@ (8000e10 <MX_TIM3_Init+0xa4>)
 8000ddc:	f004 fe80 	bl	8005ae0 <HAL_TIM_Encoder_Init>
 8000de0:	4603      	mov	r3, r0
 8000de2:	2b00      	cmp	r3, #0
 8000de4:	d001      	beq.n	8000dea <MX_TIM3_Init+0x7e>
  {
    Error_Handler();
 8000de6:	f000 fb35 	bl	8001454 <Error_Handler>
  }
  sMasterConfig.MasterOutputTrigger = TIM_TRGO_RESET;
 8000dea:	2300      	movs	r3, #0
 8000dec:	603b      	str	r3, [r7, #0]
  sMasterConfig.MasterSlaveMode = TIM_MASTERSLAVEMODE_DISABLE;
 8000dee:	2300      	movs	r3, #0
 8000df0:	60bb      	str	r3, [r7, #8]
  if (HAL_TIMEx_MasterConfigSynchronization(&htim3, &sMasterConfig) != HAL_OK)
 8000df2:	463b      	mov	r3, r7
 8000df4:	4619      	mov	r1, r3
 8000df6:	4806      	ldr	r0, [pc, #24]	@ (8000e10 <MX_TIM3_Init+0xa4>)
 8000df8:	f006 f902 	bl	8007000 <HAL_TIMEx_MasterConfigSynchronization>
 8000dfc:	4603      	mov	r3, r0
 8000dfe:	2b00      	cmp	r3, #0
 8000e00:	d001      	beq.n	8000e06 <MX_TIM3_Init+0x9a>
  {
    Error_Handler();
 8000e02:	f000 fb27 	bl	8001454 <Error_Handler>
  }
  /* USER CODE BEGIN TIM3_Init 2 */

  /* USER CODE END TIM3_Init 2 */

}
 8000e06:	bf00      	nop
 8000e08:	3730      	adds	r7, #48	@ 0x30
 8000e0a:	46bd      	mov	sp, r7
 8000e0c:	bd80      	pop	{r7, pc}
 8000e0e:	bf00      	nop
 8000e10:	200002a4 	.word	0x200002a4
 8000e14:	40000400 	.word	0x40000400

08000e18 <MX_TIM4_Init>:
  * @brief TIM4 Initialization Function
  * @param None
  * @retval None
  */
static void MX_TIM4_Init(void)
{
 8000e18:	b580      	push	{r7, lr}
 8000e1a:	b08c      	sub	sp, #48	@ 0x30
 8000e1c:	af00      	add	r7, sp, #0

  /* USER CODE BEGIN TIM4_Init 0 */

  /* USER CODE END TIM4_Init 0 */

  TIM_Encoder_InitTypeDef sConfig = {0};
 8000e1e:	f107 030c 	add.w	r3, r7, #12
 8000e22:	2224      	movs	r2, #36	@ 0x24
 8000e24:	2100      	movs	r1, #0
 8000e26:	4618      	mov	r0, r3
 8000e28:	f007 fd4c 	bl	80088c4 <memset>
  TIM_MasterConfigTypeDef sMasterConfig = {0};
 8000e2c:	463b      	mov	r3, r7
 8000e2e:	2200      	movs	r2, #0
 8000e30:	601a      	str	r2, [r3, #0]
 8000e32:	605a      	str	r2, [r3, #4]
 8000e34:	609a      	str	r2, [r3, #8]

  /* USER CODE BEGIN TIM4_Init 1 */

  /* USER CODE END TIM4_Init 1 */
  htim4.Instance = TIM4;
 8000e36:	4b21      	ldr	r3, [pc, #132]	@ (8000ebc <MX_TIM4_Init+0xa4>)
 8000e38:	4a21      	ldr	r2, [pc, #132]	@ (8000ec0 <MX_TIM4_Init+0xa8>)
 8000e3a:	601a      	str	r2, [r3, #0]
  htim4.Init.Prescaler = 0;
 8000e3c:	4b1f      	ldr	r3, [pc, #124]	@ (8000ebc <MX_TIM4_Init+0xa4>)
 8000e3e:	2200      	movs	r2, #0
 8000e40:	605a      	str	r2, [r3, #4]
  htim4.Init.CounterMode = TIM_COUNTERMODE_UP;
 8000e42:	4b1e      	ldr	r3, [pc, #120]	@ (8000ebc <MX_TIM4_Init+0xa4>)
 8000e44:	2200      	movs	r2, #0
 8000e46:	609a      	str	r2, [r3, #8]
  htim4.Init.Period = 65535;
 8000e48:	4b1c      	ldr	r3, [pc, #112]	@ (8000ebc <MX_TIM4_Init+0xa4>)
 8000e4a:	f64f 72ff 	movw	r2, #65535	@ 0xffff
 8000e4e:	60da      	str	r2, [r3, #12]
  htim4.Init.ClockDivision = TIM_CLOCKDIVISION_DIV1;
 8000e50:	4b1a      	ldr	r3, [pc, #104]	@ (8000ebc <MX_TIM4_Init+0xa4>)
 8000e52:	2200      	movs	r2, #0
 8000e54:	611a      	str	r2, [r3, #16]
  htim4.Init.AutoReloadPreload = TIM_AUTORELOAD_PRELOAD_DISABLE;
 8000e56:	4b19      	ldr	r3, [pc, #100]	@ (8000ebc <MX_TIM4_Init+0xa4>)
 8000e58:	2200      	movs	r2, #0
 8000e5a:	619a      	str	r2, [r3, #24]
  sConfig.EncoderMode = TIM_ENCODERMODE_TI1;
 8000e5c:	2301      	movs	r3, #1
 8000e5e:	60fb      	str	r3, [r7, #12]
  sConfig.IC1Polarity = TIM_ICPOLARITY_RISING;
 8000e60:	2300      	movs	r3, #0
 8000e62:	613b      	str	r3, [r7, #16]
  sConfig.IC1Selection = TIM_ICSELECTION_DIRECTTI;
 8000e64:	2301      	movs	r3, #1
 8000e66:	617b      	str	r3, [r7, #20]
  sConfig.IC1Prescaler = TIM_ICPSC_DIV1;
 8000e68:	2300      	movs	r3, #0
 8000e6a:	61bb      	str	r3, [r7, #24]
  sConfig.IC1Filter = 0;
 8000e6c:	2300      	movs	r3, #0
 8000e6e:	61fb      	str	r3, [r7, #28]
  sConfig.IC2Polarity = TIM_ICPOLARITY_RISING;
 8000e70:	2300      	movs	r3, #0
 8000e72:	623b      	str	r3, [r7, #32]
  sConfig.IC2Selection = TIM_ICSELECTION_DIRECTTI;
 8000e74:	2301      	movs	r3, #1
 8000e76:	627b      	str	r3, [r7, #36]	@ 0x24
  sConfig.IC2Prescaler = TIM_ICPSC_DIV1;
 8000e78:	2300      	movs	r3, #0
 8000e7a:	62bb      	str	r3, [r7, #40]	@ 0x28
  sConfig.IC2Filter = 0;
 8000e7c:	2300      	movs	r3, #0
 8000e7e:	62fb      	str	r3, [r7, #44]	@ 0x2c
  if (HAL_TIM_Encoder_Init(&htim4, &sConfig) != HAL_OK)
 8000e80:	f107 030c 	add.w	r3, r7, #12
 8000e84:	4619      	mov	r1, r3
 8000e86:	480d      	ldr	r0, [pc, #52]	@ (8000ebc <MX_TIM4_Init+0xa4>)
 8000e88:	f004 fe2a 	bl	8005ae0 <HAL_TIM_Encoder_Init>
 8000e8c:	4603      	mov	r3, r0
 8000e8e:	2b00      	cmp	r3, #0
 8000e90:	d001      	beq.n	8000e96 <MX_TIM4_Init+0x7e>
  {
    Error_Handler();
 8000e92:	f000 fadf 	bl	8001454 <Error_Handler>
  }
  sMasterConfig.MasterOutputTrigger = TIM_TRGO_RESET;
 8000e96:	2300      	movs	r3, #0
 8000e98:	603b      	str	r3, [r7, #0]
  sMasterConfig.MasterSlaveMode = TIM_MASTERSLAVEMODE_DISABLE;
 8000e9a:	2300      	movs	r3, #0
 8000e9c:	60bb      	str	r3, [r7, #8]
  if (HAL_TIMEx_MasterConfigSynchronization(&htim4, &sMasterConfig) != HAL_OK)
 8000e9e:	463b      	mov	r3, r7
 8000ea0:	4619      	mov	r1, r3
 8000ea2:	4806      	ldr	r0, [pc, #24]	@ (8000ebc <MX_TIM4_Init+0xa4>)
 8000ea4:	f006 f8ac 	bl	8007000 <HAL_TIMEx_MasterConfigSynchronization>
 8000ea8:	4603      	mov	r3, r0
 8000eaa:	2b00      	cmp	r3, #0
 8000eac:	d001      	beq.n	8000eb2 <MX_TIM4_Init+0x9a>
  {
    Error_Handler();
 8000eae:	f000 fad1 	bl	8001454 <Error_Handler>
  }
  /* USER CODE BEGIN TIM4_Init 2 */

  /* USER CODE END TIM4_Init 2 */

}
 8000eb2:	bf00      	nop
 8000eb4:	3730      	adds	r7, #48	@ 0x30
 8000eb6:	46bd      	mov	sp, r7
 8000eb8:	bd80      	pop	{r7, pc}
 8000eba:	bf00      	nop
 8000ebc:	200002f0 	.word	0x200002f0
 8000ec0:	40000800 	.word	0x40000800

08000ec4 <MX_TIM5_Init>:
  * @brief TIM5 Initialization Function
  * @param None
  * @retval None
  */
static void MX_TIM5_Init(void)
{
 8000ec4:	b580      	push	{r7, lr}
 8000ec6:	b088      	sub	sp, #32
 8000ec8:	af00      	add	r7, sp, #0

  /* USER CODE BEGIN TIM5_Init 0 */

  /* USER CODE END TIM5_Init 0 */

  TIM_MasterConfigTypeDef sMasterConfig = {0};
 8000eca:	f107 0314 	add.w	r3, r7, #20
 8000ece:	2200      	movs	r2, #0
 8000ed0:	601a      	str	r2, [r3, #0]
 8000ed2:	605a      	str	r2, [r3, #4]
 8000ed4:	609a      	str	r2, [r3, #8]
  TIM_IC_InitTypeDef sConfigIC = {0};
 8000ed6:	1d3b      	adds	r3, r7, #4
 8000ed8:	2200      	movs	r2, #0
 8000eda:	601a      	str	r2, [r3, #0]
 8000edc:	605a      	str	r2, [r3, #4]
 8000ede:	609a      	str	r2, [r3, #8]
 8000ee0:	60da      	str	r2, [r3, #12]

  /* USER CODE BEGIN TIM5_Init 1 */

  /* USER CODE END TIM5_Init 1 */
  htim5.Instance = TIM5;
 8000ee2:	4b26      	ldr	r3, [pc, #152]	@ (8000f7c <MX_TIM5_Init+0xb8>)
 8000ee4:	4a26      	ldr	r2, [pc, #152]	@ (8000f80 <MX_TIM5_Init+0xbc>)
 8000ee6:	601a      	str	r2, [r3, #0]
  htim5.Init.Prescaler = 0;
 8000ee8:	4b24      	ldr	r3, [pc, #144]	@ (8000f7c <MX_TIM5_Init+0xb8>)
 8000eea:	2200      	movs	r2, #0
 8000eec:	605a      	str	r2, [r3, #4]
  htim5.Init.CounterMode = TIM_COUNTERMODE_UP;
 8000eee:	4b23      	ldr	r3, [pc, #140]	@ (8000f7c <MX_TIM5_Init+0xb8>)
 8000ef0:	2200      	movs	r2, #0
 8000ef2:	609a      	str	r2, [r3, #8]
  htim5.Init.Period = 4294967295;
 8000ef4:	4b21      	ldr	r3, [pc, #132]	@ (8000f7c <MX_TIM5_Init+0xb8>)
 8000ef6:	f04f 32ff 	mov.w	r2, #4294967295
 8000efa:	60da      	str	r2, [r3, #12]
  htim5.Init.ClockDivision = TIM_CLOCKDIVISION_DIV1;
 8000efc:	4b1f      	ldr	r3, [pc, #124]	@ (8000f7c <MX_TIM5_Init+0xb8>)
 8000efe:	2200      	movs	r2, #0
 8000f00:	611a      	str	r2, [r3, #16]
  htim5.Init.AutoReloadPreload = TIM_AUTORELOAD_PRELOAD_DISABLE;
 8000f02:	4b1e      	ldr	r3, [pc, #120]	@ (8000f7c <MX_TIM5_Init+0xb8>)
 8000f04:	2200      	movs	r2, #0
 8000f06:	619a      	str	r2, [r3, #24]
  if (HAL_TIM_IC_Init(&htim5) != HAL_OK)
 8000f08:	481c      	ldr	r0, [pc, #112]	@ (8000f7c <MX_TIM5_Init+0xb8>)
 8000f0a:	f004 fc47 	bl	800579c <HAL_TIM_IC_Init>
 8000f0e:	4603      	mov	r3, r0
 8000f10:	2b00      	cmp	r3, #0
 8000f12:	d001      	beq.n	8000f18 <MX_TIM5_Init+0x54>
  {
    Error_Handler();
 8000f14:	f000 fa9e 	bl	8001454 <Error_Handler>
  }
  sMasterConfig.MasterOutputTrigger = TIM_TRGO_RESET;
 8000f18:	2300      	movs	r3, #0
 8000f1a:	617b      	str	r3, [r7, #20]
  sMasterConfig.MasterSlaveMode = TIM_MASTERSLAVEMODE_DISABLE;
 8000f1c:	2300      	movs	r3, #0
 8000f1e:	61fb      	str	r3, [r7, #28]
  if (HAL_TIMEx_MasterConfigSynchronization(&htim5, &sMasterConfig) != HAL_OK)
 8000f20:	f107 0314 	add.w	r3, r7, #20
 8000f24:	4619      	mov	r1, r3
 8000f26:	4815      	ldr	r0, [pc, #84]	@ (8000f7c <MX_TIM5_Init+0xb8>)
 8000f28:	f006 f86a 	bl	8007000 <HAL_TIMEx_MasterConfigSynchronization>
 8000f2c:	4603      	mov	r3, r0
 8000f2e:	2b00      	cmp	r3, #0
 8000f30:	d001      	beq.n	8000f36 <MX_TIM5_Init+0x72>
  {
    Error_Handler();
 8000f32:	f000 fa8f 	bl	8001454 <Error_Handler>
  }
  sConfigIC.ICPolarity = TIM_INPUTCHANNELPOLARITY_RISING;
 8000f36:	2300      	movs	r3, #0
 8000f38:	607b      	str	r3, [r7, #4]
  sConfigIC.ICSelection = TIM_ICSELECTION_DIRECTTI;
 8000f3a:	2301      	movs	r3, #1
 8000f3c:	60bb      	str	r3, [r7, #8]
  sConfigIC.ICPrescaler = TIM_ICPSC_DIV1;
 8000f3e:	2300      	movs	r3, #0
 8000f40:	60fb      	str	r3, [r7, #12]
  sConfigIC.ICFilter = 0;
 8000f42:	2300      	movs	r3, #0
 8000f44:	613b      	str	r3, [r7, #16]
  if (HAL_TIM_IC_ConfigChannel(&htim5, &sConfigIC, TIM_CHANNEL_3) != HAL_OK)
 8000f46:	1d3b      	adds	r3, r7, #4
 8000f48:	2208      	movs	r2, #8
 8000f4a:	4619      	mov	r1, r3
 8000f4c:	480b      	ldr	r0, [pc, #44]	@ (8000f7c <MX_TIM5_Init+0xb8>)
 8000f4e:	f005 f81d 	bl	8005f8c <HAL_TIM_IC_ConfigChannel>
 8000f52:	4603      	mov	r3, r0
 8000f54:	2b00      	cmp	r3, #0
 8000f56:	d001      	beq.n	8000f5c <MX_TIM5_Init+0x98>
  {
    Error_Handler();
 8000f58:	f000 fa7c 	bl	8001454 <Error_Handler>
  }
  if (HAL_TIM_IC_ConfigChannel(&htim5, &sConfigIC, TIM_CHANNEL_4) != HAL_OK)
 8000f5c:	1d3b      	adds	r3, r7, #4
 8000f5e:	220c      	movs	r2, #12
 8000f60:	4619      	mov	r1, r3
 8000f62:	4806      	ldr	r0, [pc, #24]	@ (8000f7c <MX_TIM5_Init+0xb8>)
 8000f64:	f005 f812 	bl	8005f8c <HAL_TIM_IC_ConfigChannel>
 8000f68:	4603      	mov	r3, r0
 8000f6a:	2b00      	cmp	r3, #0
 8000f6c:	d001      	beq.n	8000f72 <MX_TIM5_Init+0xae>
  {
    Error_Handler();
 8000f6e:	f000 fa71 	bl	8001454 <Error_Handler>
  }
  /* USER CODE BEGIN TIM5_Init 2 */

  /* USER CODE END TIM5_Init 2 */

}
 8000f72:	bf00      	nop
 8000f74:	3720      	adds	r7, #32
 8000f76:	46bd      	mov	sp, r7
 8000f78:	bd80      	pop	{r7, pc}
 8000f7a:	bf00      	nop
 8000f7c:	2000033c 	.word	0x2000033c
 8000f80:	40000c00 	.word	0x40000c00

08000f84 <MX_TIM8_Init>:
  * @brief TIM8 Initialization Function
  * @param None
  * @retval None
  */
static void MX_TIM8_Init(void)
{
 8000f84:	b580      	push	{r7, lr}
 8000f86:	b096      	sub	sp, #88	@ 0x58
 8000f88:	af00      	add	r7, sp, #0

  /* USER CODE BEGIN TIM8_Init 0 */

  /* USER CODE END TIM8_Init 0 */

  TIM_MasterConfigTypeDef sMasterConfig = {0};
 8000f8a:	f107 034c 	add.w	r3, r7, #76	@ 0x4c
 8000f8e:	2200      	movs	r2, #0
 8000f90:	601a      	str	r2, [r3, #0]
 8000f92:	605a      	str	r2, [r3, #4]
 8000f94:	609a      	str	r2, [r3, #8]
  TIM_OC_InitTypeDef sConfigOC = {0};
 8000f96:	f107 0330 	add.w	r3, r7, #48	@ 0x30
 8000f9a:	2200      	movs	r2, #0
 8000f9c:	601a      	str	r2, [r3, #0]
 8000f9e:	605a      	str	r2, [r3, #4]
 8000fa0:	609a      	str	r2, [r3, #8]
 8000fa2:	60da      	str	r2, [r3, #12]
 8000fa4:	611a      	str	r2, [r3, #16]
 8000fa6:	615a      	str	r2, [r3, #20]
 8000fa8:	619a      	str	r2, [r3, #24]
  TIM_BreakDeadTimeConfigTypeDef sBreakDeadTimeConfig = {0};
 8000faa:	1d3b      	adds	r3, r7, #4
 8000fac:	222c      	movs	r2, #44	@ 0x2c
 8000fae:	2100      	movs	r1, #0
 8000fb0:	4618      	mov	r0, r3
 8000fb2:	f007 fc87 	bl	80088c4 <memset>

  /* USER CODE BEGIN TIM8_Init 1 */

  /* USER CODE END TIM8_Init 1 */
  htim8.Instance = TIM8;
 8000fb6:	4b4b      	ldr	r3, [pc, #300]	@ (80010e4 <MX_TIM8_Init+0x160>)
 8000fb8:	4a4b      	ldr	r2, [pc, #300]	@ (80010e8 <MX_TIM8_Init+0x164>)
 8000fba:	601a      	str	r2, [r3, #0]
  htim8.Init.Prescaler = 0;
 8000fbc:	4b49      	ldr	r3, [pc, #292]	@ (80010e4 <MX_TIM8_Init+0x160>)
 8000fbe:	2200      	movs	r2, #0
 8000fc0:	605a      	str	r2, [r3, #4]
  htim8.Init.CounterMode = TIM_COUNTERMODE_UP;
 8000fc2:	4b48      	ldr	r3, [pc, #288]	@ (80010e4 <MX_TIM8_Init+0x160>)
 8000fc4:	2200      	movs	r2, #0
 8000fc6:	609a      	str	r2, [r3, #8]
  htim8.Init.Period = 59999;
 8000fc8:	4b46      	ldr	r3, [pc, #280]	@ (80010e4 <MX_TIM8_Init+0x160>)
 8000fca:	f64e 225f 	movw	r2, #59999	@ 0xea5f
 8000fce:	60da      	str	r2, [r3, #12]
  htim8.Init.ClockDivision = TIM_CLOCKDIVISION_DIV1;
 8000fd0:	4b44      	ldr	r3, [pc, #272]	@ (80010e4 <MX_TIM8_Init+0x160>)
 8000fd2:	2200      	movs	r2, #0
 8000fd4:	611a      	str	r2, [r3, #16]
  htim8.Init.RepetitionCounter = 0;
 8000fd6:	4b43      	ldr	r3, [pc, #268]	@ (80010e4 <MX_TIM8_Init+0x160>)
 8000fd8:	2200      	movs	r2, #0
 8000fda:	615a      	str	r2, [r3, #20]
  htim8.Init.AutoReloadPreload = TIM_AUTORELOAD_PRELOAD_DISABLE;
 8000fdc:	4b41      	ldr	r3, [pc, #260]	@ (80010e4 <MX_TIM8_Init+0x160>)
 8000fde:	2200      	movs	r2, #0
 8000fe0:	619a      	str	r2, [r3, #24]
  if (HAL_TIM_PWM_Init(&htim8) != HAL_OK)
 8000fe2:	4840      	ldr	r0, [pc, #256]	@ (80010e4 <MX_TIM8_Init+0x160>)
 8000fe4:	f004 fa7c 	bl	80054e0 <HAL_TIM_PWM_Init>
 8000fe8:	4603      	mov	r3, r0
 8000fea:	2b00      	cmp	r3, #0
 8000fec:	d001      	beq.n	8000ff2 <MX_TIM8_Init+0x6e>
  {
    Error_Handler();
 8000fee:	f000 fa31 	bl	8001454 <Error_Handler>
  }
  sMasterConfig.MasterOutputTrigger = TIM_TRGO_RESET;
 8000ff2:	2300      	movs	r3, #0
 8000ff4:	64fb      	str	r3, [r7, #76]	@ 0x4c
  sMasterConfig.MasterOutputTrigger2 = TIM_TRGO2_RESET;
 8000ff6:	2300      	movs	r3, #0
 8000ff8:	653b      	str	r3, [r7, #80]	@ 0x50
  sMasterConfig.MasterSlaveMode = TIM_MASTERSLAVEMODE_DISABLE;
 8000ffa:	2300      	movs	r3, #0
 8000ffc:	657b      	str	r3, [r7, #84]	@ 0x54
  if (HAL_TIMEx_MasterConfigSynchronization(&htim8, &sMasterConfig) != HAL_OK)
 8000ffe:	f107 034c 	add.w	r3, r7, #76	@ 0x4c
 8001002:	4619      	mov	r1, r3
 8001004:	4837      	ldr	r0, [pc, #220]	@ (80010e4 <MX_TIM8_Init+0x160>)
 8001006:	f005 fffb 	bl	8007000 <HAL_TIMEx_MasterConfigSynchronization>
 800100a:	4603      	mov	r3, r0
 800100c:	2b00      	cmp	r3, #0
 800100e:	d001      	beq.n	8001014 <MX_TIM8_Init+0x90>
  {
    Error_Handler();
 8001010:	f000 fa20 	bl	8001454 <Error_Handler>
  }
  sConfigOC.OCMode = TIM_OCMODE_PWM1;
 8001014:	2360      	movs	r3, #96	@ 0x60
 8001016:	633b      	str	r3, [r7, #48]	@ 0x30
  sConfigOC.Pulse = 0;
 8001018:	2300      	movs	r3, #0
 800101a:	637b      	str	r3, [r7, #52]	@ 0x34
  sConfigOC.OCPolarity = TIM_OCPOLARITY_HIGH;
 800101c:	2300      	movs	r3, #0
 800101e:	63bb      	str	r3, [r7, #56]	@ 0x38
  sConfigOC.OCNPolarity = TIM_OCNPOLARITY_HIGH;
 8001020:	2300      	movs	r3, #0
 8001022:	63fb      	str	r3, [r7, #60]	@ 0x3c
  sConfigOC.OCFastMode = TIM_OCFAST_DISABLE;
 8001024:	2300      	movs	r3, #0
 8001026:	643b      	str	r3, [r7, #64]	@ 0x40
  sConfigOC.OCIdleState = TIM_OCIDLESTATE_RESET;
 8001028:	2300      	movs	r3, #0
 800102a:	647b      	str	r3, [r7, #68]	@ 0x44
  sConfigOC.OCNIdleState = TIM_OCNIDLESTATE_RESET;
 800102c:	2300      	movs	r3, #0
 800102e:	64bb      	str	r3, [r7, #72]	@ 0x48
  if (HAL_TIM_PWM_ConfigChannel(&htim8, &sConfigOC, TIM_CHANNEL_1) != HAL_OK)
 8001030:	f107 0330 	add.w	r3, r7, #48	@ 0x30
 8001034:	2200      	movs	r2, #0
 8001036:	4619      	mov	r1, r3
 8001038:	482a      	ldr	r0, [pc, #168]	@ (80010e4 <MX_TIM8_Init+0x160>)
 800103a:	f005 f843 	bl	80060c4 <HAL_TIM_PWM_ConfigChannel>
 800103e:	4603      	mov	r3, r0
 8001040:	2b00      	cmp	r3, #0
 8001042:	d001      	beq.n	8001048 <MX_TIM8_Init+0xc4>
  {
    Error_Handler();
 8001044:	f000 fa06 	bl	8001454 <Error_Handler>
  }
  if (HAL_TIM_PWM_ConfigChannel(&htim8, &sConfigOC, TIM_CHANNEL_2) != HAL_OK)
 8001048:	f107 0330 	add.w	r3, r7, #48	@ 0x30
 800104c:	2204      	movs	r2, #4
 800104e:	4619      	mov	r1, r3
 8001050:	4824      	ldr	r0, [pc, #144]	@ (80010e4 <MX_TIM8_Init+0x160>)
 8001052:	f005 f837 	bl	80060c4 <HAL_TIM_PWM_ConfigChannel>
 8001056:	4603      	mov	r3, r0
 8001058:	2b00      	cmp	r3, #0
 800105a:	d001      	beq.n	8001060 <MX_TIM8_Init+0xdc>
  {
    Error_Handler();
 800105c:	f000 f9fa 	bl	8001454 <Error_Handler>
  }
  if (HAL_TIM_PWM_ConfigChannel(&htim8, &sConfigOC, TIM_CHANNEL_3) != HAL_OK)
 8001060:	f107 0330 	add.w	r3, r7, #48	@ 0x30
 8001064:	2208      	movs	r2, #8
 8001066:	4619      	mov	r1, r3
 8001068:	481e      	ldr	r0, [pc, #120]	@ (80010e4 <MX_TIM8_Init+0x160>)
 800106a:	f005 f82b 	bl	80060c4 <HAL_TIM_PWM_ConfigChannel>
 800106e:	4603      	mov	r3, r0
 8001070:	2b00      	cmp	r3, #0
 8001072:	d001      	beq.n	8001078 <MX_TIM8_Init+0xf4>
  {
    Error_Handler();
 8001074:	f000 f9ee 	bl	8001454 <Error_Handler>
  }
  if (HAL_TIM_PWM_ConfigChannel(&htim8, &sConfigOC, TIM_CHANNEL_4) != HAL_OK)
 8001078:	f107 0330 	add.w	r3, r7, #48	@ 0x30
 800107c:	220c      	movs	r2, #12
 800107e:	4619      	mov	r1, r3
 8001080:	4818      	ldr	r0, [pc, #96]	@ (80010e4 <MX_TIM8_Init+0x160>)
 8001082:	f005 f81f 	bl	80060c4 <HAL_TIM_PWM_ConfigChannel>
 8001086:	4603      	mov	r3, r0
 8001088:	2b00      	cmp	r3, #0
 800108a:	d001      	beq.n	8001090 <MX_TIM8_Init+0x10c>
  {
    Error_Handler();
 800108c:	f000 f9e2 	bl	8001454 <Error_Handler>
  }
  sBreakDeadTimeConfig.OffStateRunMode = TIM_OSSR_DISABLE;
 8001090:	2300      	movs	r3, #0
 8001092:	607b      	str	r3, [r7, #4]
  sBreakDeadTimeConfig.OffStateIDLEMode = TIM_OSSI_DISABLE;
 8001094:	2300      	movs	r3, #0
 8001096:	60bb      	str	r3, [r7, #8]
  sBreakDeadTimeConfig.LockLevel = TIM_LOCKLEVEL_OFF;
 8001098:	2300      	movs	r3, #0
 800109a:	60fb      	str	r3, [r7, #12]
  sBreakDeadTimeConfig.DeadTime = 0;
 800109c:	2300      	movs	r3, #0
 800109e:	613b      	str	r3, [r7, #16]
  sBreakDeadTimeConfig.BreakState = TIM_BREAK_DISABLE;
 80010a0:	2300      	movs	r3, #0
 80010a2:	617b      	str	r3, [r7, #20]
  sBreakDeadTimeConfig.BreakPolarity = TIM_BREAKPOLARITY_HIGH;
 80010a4:	f44f 5300 	mov.w	r3, #8192	@ 0x2000
 80010a8:	61bb      	str	r3, [r7, #24]
  sBreakDeadTimeConfig.BreakFilter = 0;
 80010aa:	2300      	movs	r3, #0
 80010ac:	61fb      	str	r3, [r7, #28]
  sBreakDeadTimeConfig.Break2State = TIM_BREAK2_DISABLE;
 80010ae:	2300      	movs	r3, #0
 80010b0:	623b      	str	r3, [r7, #32]
  sBreakDeadTimeConfig.Break2Polarity = TIM_BREAK2POLARITY_HIGH;
 80010b2:	f04f 7300 	mov.w	r3, #33554432	@ 0x2000000
 80010b6:	627b      	str	r3, [r7, #36]	@ 0x24
  sBreakDeadTimeConfig.Break2Filter = 0;
 80010b8:	2300      	movs	r3, #0
 80010ba:	62bb      	str	r3, [r7, #40]	@ 0x28
  sBreakDeadTimeConfig.AutomaticOutput = TIM_AUTOMATICOUTPUT_DISABLE;
 80010bc:	2300      	movs	r3, #0
 80010be:	62fb      	str	r3, [r7, #44]	@ 0x2c
  if (HAL_TIMEx_ConfigBreakDeadTime(&htim8, &sBreakDeadTimeConfig) != HAL_OK)
 80010c0:	1d3b      	adds	r3, r7, #4
 80010c2:	4619      	mov	r1, r3
 80010c4:	4807      	ldr	r0, [pc, #28]	@ (80010e4 <MX_TIM8_Init+0x160>)
 80010c6:	f006 f823 	bl	8007110 <HAL_TIMEx_ConfigBreakDeadTime>
 80010ca:	4603      	mov	r3, r0
 80010cc:	2b00      	cmp	r3, #0
 80010ce:	d001      	beq.n	80010d4 <MX_TIM8_Init+0x150>
  {
    Error_Handler();
 80010d0:	f000 f9c0 	bl	8001454 <Error_Handler>
  }
  /* USER CODE BEGIN TIM8_Init 2 */

  /* USER CODE END TIM8_Init 2 */
  HAL_TIM_MspPostInit(&htim8);
 80010d4:	4803      	ldr	r0, [pc, #12]	@ (80010e4 <MX_TIM8_Init+0x160>)
 80010d6:	f000 fd01 	bl	8001adc <HAL_TIM_MspPostInit>

}
 80010da:	bf00      	nop
 80010dc:	3758      	adds	r7, #88	@ 0x58
 80010de:	46bd      	mov	sp, r7
 80010e0:	bd80      	pop	{r7, pc}
 80010e2:	bf00      	nop
 80010e4:	20000388 	.word	0x20000388
 80010e8:	40013400 	.word	0x40013400

080010ec <MX_TIM15_Init>:
  * @brief TIM15 Initialization Function
  * @param None
  * @retval None
  */
static void MX_TIM15_Init(void)
{
 80010ec:	b580      	push	{r7, lr}
 80010ee:	b088      	sub	sp, #32
 80010f0:	af00      	add	r7, sp, #0

  /* USER CODE BEGIN TIM15_Init 0 */

  /* USER CODE END TIM15_Init 0 */

  TIM_MasterConfigTypeDef sMasterConfig = {0};
 80010f2:	f107 0314 	add.w	r3, r7, #20
 80010f6:	2200      	movs	r2, #0
 80010f8:	601a      	str	r2, [r3, #0]
 80010fa:	605a      	str	r2, [r3, #4]
 80010fc:	609a      	str	r2, [r3, #8]
  TIM_IC_InitTypeDef sConfigIC = {0};
 80010fe:	1d3b      	adds	r3, r7, #4
 8001100:	2200      	movs	r2, #0
 8001102:	601a      	str	r2, [r3, #0]
 8001104:	605a      	str	r2, [r3, #4]
 8001106:	609a      	str	r2, [r3, #8]
 8001108:	60da      	str	r2, [r3, #12]

  /* USER CODE BEGIN TIM15_Init 1 */

  /* USER CODE END TIM15_Init 1 */
  htim15.Instance = TIM15;
 800110a:	4b22      	ldr	r3, [pc, #136]	@ (8001194 <MX_TIM15_Init+0xa8>)
 800110c:	4a22      	ldr	r2, [pc, #136]	@ (8001198 <MX_TIM15_Init+0xac>)
 800110e:	601a      	str	r2, [r3, #0]
  htim15.Init.Prescaler = 79;
 8001110:	4b20      	ldr	r3, [pc, #128]	@ (8001194 <MX_TIM15_Init+0xa8>)
 8001112:	224f      	movs	r2, #79	@ 0x4f
 8001114:	605a      	str	r2, [r3, #4]
  htim15.Init.CounterMode = TIM_COUNTERMODE_UP;
 8001116:	4b1f      	ldr	r3, [pc, #124]	@ (8001194 <MX_TIM15_Init+0xa8>)
 8001118:	2200      	movs	r2, #0
 800111a:	609a      	str	r2, [r3, #8]
  htim15.Init.Period = 65535;
 800111c:	4b1d      	ldr	r3, [pc, #116]	@ (8001194 <MX_TIM15_Init+0xa8>)
 800111e:	f64f 72ff 	movw	r2, #65535	@ 0xffff
 8001122:	60da      	str	r2, [r3, #12]
  htim15.Init.ClockDivision = TIM_CLOCKDIVISION_DIV1;
 8001124:	4b1b      	ldr	r3, [pc, #108]	@ (8001194 <MX_TIM15_Init+0xa8>)
 8001126:	2200      	movs	r2, #0
 8001128:	611a      	str	r2, [r3, #16]
  htim15.Init.RepetitionCounter = 0;
 800112a:	4b1a      	ldr	r3, [pc, #104]	@ (8001194 <MX_TIM15_Init+0xa8>)
 800112c:	2200      	movs	r2, #0
 800112e:	615a      	str	r2, [r3, #20]
  htim15.Init.AutoReloadPreload = TIM_AUTORELOAD_PRELOAD_ENABLE;
 8001130:	4b18      	ldr	r3, [pc, #96]	@ (8001194 <MX_TIM15_Init+0xa8>)
 8001132:	2280      	movs	r2, #128	@ 0x80
 8001134:	619a      	str	r2, [r3, #24]
  if (HAL_TIM_IC_Init(&htim15) != HAL_OK)
 8001136:	4817      	ldr	r0, [pc, #92]	@ (8001194 <MX_TIM15_Init+0xa8>)
 8001138:	f004 fb30 	bl	800579c <HAL_TIM_IC_Init>
 800113c:	4603      	mov	r3, r0
 800113e:	2b00      	cmp	r3, #0
 8001140:	d001      	beq.n	8001146 <MX_TIM15_Init+0x5a>
  {
    Error_Handler();
 8001142:	f000 f987 	bl	8001454 <Error_Handler>
  }
  sMasterConfig.MasterOutputTrigger = TIM_TRGO_RESET;
 8001146:	2300      	movs	r3, #0
 8001148:	617b      	str	r3, [r7, #20]
  sMasterConfig.MasterSlaveMode = TIM_MASTERSLAVEMODE_DISABLE;
 800114a:	2300      	movs	r3, #0
 800114c:	61fb      	str	r3, [r7, #28]
  if (HAL_TIMEx_MasterConfigSynchronization(&htim15, &sMasterConfig) != HAL_OK)
 800114e:	f107 0314 	add.w	r3, r7, #20
 8001152:	4619      	mov	r1, r3
 8001154:	480f      	ldr	r0, [pc, #60]	@ (8001194 <MX_TIM15_Init+0xa8>)
 8001156:	f005 ff53 	bl	8007000 <HAL_TIMEx_MasterConfigSynchronization>
 800115a:	4603      	mov	r3, r0
 800115c:	2b00      	cmp	r3, #0
 800115e:	d001      	beq.n	8001164 <MX_TIM15_Init+0x78>
  {
    Error_Handler();
 8001160:	f000 f978 	bl	8001454 <Error_Handler>
  }
  sConfigIC.ICPolarity = TIM_INPUTCHANNELPOLARITY_BOTHEDGE;
 8001164:	230a      	movs	r3, #10
 8001166:	607b      	str	r3, [r7, #4]
  sConfigIC.ICSelection = TIM_ICSELECTION_DIRECTTI;
 8001168:	2301      	movs	r3, #1
 800116a:	60bb      	str	r3, [r7, #8]
  sConfigIC.ICPrescaler = TIM_ICPSC_DIV1;
 800116c:	2300      	movs	r3, #0
 800116e:	60fb      	str	r3, [r7, #12]
  sConfigIC.ICFilter = 0;
 8001170:	2300      	movs	r3, #0
 8001172:	613b      	str	r3, [r7, #16]
  if (HAL_TIM_IC_ConfigChannel(&htim15, &sConfigIC, TIM_CHANNEL_1) != HAL_OK)
 8001174:	1d3b      	adds	r3, r7, #4
 8001176:	2200      	movs	r2, #0
 8001178:	4619      	mov	r1, r3
 800117a:	4806      	ldr	r0, [pc, #24]	@ (8001194 <MX_TIM15_Init+0xa8>)
 800117c:	f004 ff06 	bl	8005f8c <HAL_TIM_IC_ConfigChannel>
 8001180:	4603      	mov	r3, r0
 8001182:	2b00      	cmp	r3, #0
 8001184:	d001      	beq.n	800118a <MX_TIM15_Init+0x9e>
  {
    Error_Handler();
 8001186:	f000 f965 	bl	8001454 <Error_Handler>
  }
  /* USER CODE BEGIN TIM15_Init 2 */

  /* USER CODE END TIM15_Init 2 */

}
 800118a:	bf00      	nop
 800118c:	3720      	adds	r7, #32
 800118e:	46bd      	mov	sp, r7
 8001190:	bd80      	pop	{r7, pc}
 8001192:	bf00      	nop
 8001194:	200003d4 	.word	0x200003d4
 8001198:	40014000 	.word	0x40014000

0800119c <MX_TIM17_Init>:
  * @brief TIM17 Initialization Function
  * @param None
  * @retval None
  */
static void MX_TIM17_Init(void)
{
 800119c:	b580      	push	{r7, lr}
 800119e:	af00      	add	r7, sp, #0
  /* USER CODE END TIM17_Init 0 */

  /* USER CODE BEGIN TIM17_Init 1 */

  /* USER CODE END TIM17_Init 1 */
  htim17.Instance = TIM17;
 80011a0:	4b0f      	ldr	r3, [pc, #60]	@ (80011e0 <MX_TIM17_Init+0x44>)
 80011a2:	4a10      	ldr	r2, [pc, #64]	@ (80011e4 <MX_TIM17_Init+0x48>)
 80011a4:	601a      	str	r2, [r3, #0]
  htim17.Init.Prescaler = 79;
 80011a6:	4b0e      	ldr	r3, [pc, #56]	@ (80011e0 <MX_TIM17_Init+0x44>)
 80011a8:	224f      	movs	r2, #79	@ 0x4f
 80011aa:	605a      	str	r2, [r3, #4]
  htim17.Init.CounterMode = TIM_COUNTERMODE_UP;
 80011ac:	4b0c      	ldr	r3, [pc, #48]	@ (80011e0 <MX_TIM17_Init+0x44>)
 80011ae:	2200      	movs	r2, #0
 80011b0:	609a      	str	r2, [r3, #8]
  htim17.Init.Period = 65535;
 80011b2:	4b0b      	ldr	r3, [pc, #44]	@ (80011e0 <MX_TIM17_Init+0x44>)
 80011b4:	f64f 72ff 	movw	r2, #65535	@ 0xffff
 80011b8:	60da      	str	r2, [r3, #12]
  htim17.Init.ClockDivision = TIM_CLOCKDIVISION_DIV1;
 80011ba:	4b09      	ldr	r3, [pc, #36]	@ (80011e0 <MX_TIM17_Init+0x44>)
 80011bc:	2200      	movs	r2, #0
 80011be:	611a      	str	r2, [r3, #16]
  htim17.Init.RepetitionCounter = 0;
 80011c0:	4b07      	ldr	r3, [pc, #28]	@ (80011e0 <MX_TIM17_Init+0x44>)
 80011c2:	2200      	movs	r2, #0
 80011c4:	615a      	str	r2, [r3, #20]
  htim17.Init.AutoReloadPreload = TIM_AUTORELOAD_PRELOAD_DISABLE;
 80011c6:	4b06      	ldr	r3, [pc, #24]	@ (80011e0 <MX_TIM17_Init+0x44>)
 80011c8:	2200      	movs	r2, #0
 80011ca:	619a      	str	r2, [r3, #24]
  if (HAL_TIM_Base_Init(&htim17) != HAL_OK)
 80011cc:	4804      	ldr	r0, [pc, #16]	@ (80011e0 <MX_TIM17_Init+0x44>)
 80011ce:	f004 f930 	bl	8005432 <HAL_TIM_Base_Init>
 80011d2:	4603      	mov	r3, r0
 80011d4:	2b00      	cmp	r3, #0
 80011d6:	d001      	beq.n	80011dc <MX_TIM17_Init+0x40>
  {
    Error_Handler();
 80011d8:	f000 f93c 	bl	8001454 <Error_Handler>
  }
  /* USER CODE BEGIN TIM17_Init 2 */

  /* USER CODE END TIM17_Init 2 */

}
 80011dc:	bf00      	nop
 80011de:	bd80      	pop	{r7, pc}
 80011e0:	20000420 	.word	0x20000420
 80011e4:	40014800 	.word	0x40014800

080011e8 <MX_USART3_UART_Init>:
  * @brief USART3 Initialization Function
  * @param None
  * @retval None
  */
static void MX_USART3_UART_Init(void)
{
 80011e8:	b580      	push	{r7, lr}
 80011ea:	af00      	add	r7, sp, #0
  /* USER CODE END USART3_Init 0 */

  /* USER CODE BEGIN USART3_Init 1 */

  /* USER CODE END USART3_Init 1 */
  huart3.Instance = USART3;
 80011ec:	4b14      	ldr	r3, [pc, #80]	@ (8001240 <MX_USART3_UART_Init+0x58>)
 80011ee:	4a15      	ldr	r2, [pc, #84]	@ (8001244 <MX_USART3_UART_Init+0x5c>)
 80011f0:	601a      	str	r2, [r3, #0]
  huart3.Init.BaudRate = 115200;
 80011f2:	4b13      	ldr	r3, [pc, #76]	@ (8001240 <MX_USART3_UART_Init+0x58>)
 80011f4:	f44f 32e1 	mov.w	r2, #115200	@ 0x1c200
 80011f8:	605a      	str	r2, [r3, #4]
  huart3.Init.WordLength = UART_WORDLENGTH_8B;
 80011fa:	4b11      	ldr	r3, [pc, #68]	@ (8001240 <MX_USART3_UART_Init+0x58>)
 80011fc:	2200      	movs	r2, #0
 80011fe:	609a      	str	r2, [r3, #8]
  huart3.Init.StopBits = UART_STOPBITS_1;
 8001200:	4b0f      	ldr	r3, [pc, #60]	@ (8001240 <MX_USART3_UART_Init+0x58>)
 8001202:	2200      	movs	r2, #0
 8001204:	60da      	str	r2, [r3, #12]
  huart3.Init.Parity = UART_PARITY_NONE;
 8001206:	4b0e      	ldr	r3, [pc, #56]	@ (8001240 <MX_USART3_UART_Init+0x58>)
 8001208:	2200      	movs	r2, #0
 800120a:	611a      	str	r2, [r3, #16]
  huart3.Init.Mode = UART_MODE_TX_RX;
 800120c:	4b0c      	ldr	r3, [pc, #48]	@ (8001240 <MX_USART3_UART_Init+0x58>)
 800120e:	220c      	movs	r2, #12
 8001210:	615a      	str	r2, [r3, #20]
  huart3.Init.HwFlowCtl = UART_HWCONTROL_NONE;
 8001212:	4b0b      	ldr	r3, [pc, #44]	@ (8001240 <MX_USART3_UART_Init+0x58>)
 8001214:	2200      	movs	r2, #0
 8001216:	619a      	str	r2, [r3, #24]
  huart3.Init.OverSampling = UART_OVERSAMPLING_16;
 8001218:	4b09      	ldr	r3, [pc, #36]	@ (8001240 <MX_USART3_UART_Init+0x58>)
 800121a:	2200      	movs	r2, #0
 800121c:	61da      	str	r2, [r3, #28]
  huart3.Init.OneBitSampling = UART_ONE_BIT_SAMPLE_DISABLE;
 800121e:	4b08      	ldr	r3, [pc, #32]	@ (8001240 <MX_USART3_UART_Init+0x58>)
 8001220:	2200      	movs	r2, #0
 8001222:	621a      	str	r2, [r3, #32]
  huart3.AdvancedInit.AdvFeatureInit = UART_ADVFEATURE_NO_INIT;
 8001224:	4b06      	ldr	r3, [pc, #24]	@ (8001240 <MX_USART3_UART_Init+0x58>)
 8001226:	2200      	movs	r2, #0
 8001228:	625a      	str	r2, [r3, #36]	@ 0x24
  if (HAL_UART_Init(&huart3) != HAL_OK)
 800122a:	4805      	ldr	r0, [pc, #20]	@ (8001240 <MX_USART3_UART_Init+0x58>)
 800122c:	f006 f80c 	bl	8007248 <HAL_UART_Init>
 8001230:	4603      	mov	r3, r0
 8001232:	2b00      	cmp	r3, #0
 8001234:	d001      	beq.n	800123a <MX_USART3_UART_Init+0x52>
  {
    Error_Handler();
 8001236:	f000 f90d 	bl	8001454 <Error_Handler>
  }
  /* USER CODE BEGIN USART3_Init 2 */

  /* USER CODE END USART3_Init 2 */

}
 800123a:	bf00      	nop
 800123c:	bd80      	pop	{r7, pc}
 800123e:	bf00      	nop
 8001240:	2000046c 	.word	0x2000046c
 8001244:	40004800 	.word	0x40004800

08001248 <MX_GPIO_Init>:
  * @brief GPIO Initialization Function
  * @param None
  * @retval None
  */
static void MX_GPIO_Init(void)
{
 8001248:	b580      	push	{r7, lr}
 800124a:	b08a      	sub	sp, #40	@ 0x28
 800124c:	af00      	add	r7, sp, #0
  GPIO_InitTypeDef GPIO_InitStruct = {0};
 800124e:	f107 0314 	add.w	r3, r7, #20
 8001252:	2200      	movs	r2, #0
 8001254:	601a      	str	r2, [r3, #0]
 8001256:	605a      	str	r2, [r3, #4]
 8001258:	609a      	str	r2, [r3, #8]
 800125a:	60da      	str	r2, [r3, #12]
 800125c:	611a      	str	r2, [r3, #16]
/* USER CODE BEGIN MX_GPIO_Init_1 */
/* USER CODE END MX_GPIO_Init_1 */

  /* GPIO Ports Clock Enable */
  __HAL_RCC_GPIOH_CLK_ENABLE();
 800125e:	4b39      	ldr	r3, [pc, #228]	@ (8001344 <MX_GPIO_Init+0xfc>)
 8001260:	6cdb      	ldr	r3, [r3, #76]	@ 0x4c
 8001262:	4a38      	ldr	r2, [pc, #224]	@ (8001344 <MX_GPIO_Init+0xfc>)
 8001264:	f043 0380 	orr.w	r3, r3, #128	@ 0x80
 8001268:	64d3      	str	r3, [r2, #76]	@ 0x4c
 800126a:	4b36      	ldr	r3, [pc, #216]	@ (8001344 <MX_GPIO_Init+0xfc>)
 800126c:	6cdb      	ldr	r3, [r3, #76]	@ 0x4c
 800126e:	f003 0380 	and.w	r3, r3, #128	@ 0x80
 8001272:	613b      	str	r3, [r7, #16]
 8001274:	693b      	ldr	r3, [r7, #16]
  __HAL_RCC_GPIOC_CLK_ENABLE();
 8001276:	4b33      	ldr	r3, [pc, #204]	@ (8001344 <MX_GPIO_Init+0xfc>)
 8001278:	6cdb      	ldr	r3, [r3, #76]	@ 0x4c
 800127a:	4a32      	ldr	r2, [pc, #200]	@ (8001344 <MX_GPIO_Init+0xfc>)
 800127c:	f043 0304 	orr.w	r3, r3, #4
 8001280:	64d3      	str	r3, [r2, #76]	@ 0x4c
 8001282:	4b30      	ldr	r3, [pc, #192]	@ (8001344 <MX_GPIO_Init+0xfc>)
 8001284:	6cdb      	ldr	r3, [r3, #76]	@ 0x4c
 8001286:	f003 0304 	and.w	r3, r3, #4
 800128a:	60fb      	str	r3, [r7, #12]
 800128c:	68fb      	ldr	r3, [r7, #12]
  __HAL_RCC_GPIOA_CLK_ENABLE();
 800128e:	4b2d      	ldr	r3, [pc, #180]	@ (8001344 <MX_GPIO_Init+0xfc>)
 8001290:	6cdb      	ldr	r3, [r3, #76]	@ 0x4c
 8001292:	4a2c      	ldr	r2, [pc, #176]	@ (8001344 <MX_GPIO_Init+0xfc>)
 8001294:	f043 0301 	orr.w	r3, r3, #1
 8001298:	64d3      	str	r3, [r2, #76]	@ 0x4c
 800129a:	4b2a      	ldr	r3, [pc, #168]	@ (8001344 <MX_GPIO_Init+0xfc>)
 800129c:	6cdb      	ldr	r3, [r3, #76]	@ 0x4c
 800129e:	f003 0301 	and.w	r3, r3, #1
 80012a2:	60bb      	str	r3, [r7, #8]
 80012a4:	68bb      	ldr	r3, [r7, #8]
  __HAL_RCC_GPIOB_CLK_ENABLE();
 80012a6:	4b27      	ldr	r3, [pc, #156]	@ (8001344 <MX_GPIO_Init+0xfc>)
 80012a8:	6cdb      	ldr	r3, [r3, #76]	@ 0x4c
 80012aa:	4a26      	ldr	r2, [pc, #152]	@ (8001344 <MX_GPIO_Init+0xfc>)
 80012ac:	f043 0302 	orr.w	r3, r3, #2
 80012b0:	64d3      	str	r3, [r2, #76]	@ 0x4c
 80012b2:	4b24      	ldr	r3, [pc, #144]	@ (8001344 <MX_GPIO_Init+0xfc>)
 80012b4:	6cdb      	ldr	r3, [r3, #76]	@ 0x4c
 80012b6:	f003 0302 	and.w	r3, r3, #2
 80012ba:	607b      	str	r3, [r7, #4]
 80012bc:	687b      	ldr	r3, [r7, #4]

  /*Configure GPIO pin Output Level */
  HAL_GPIO_WritePin(GPIOC, GPIO_PIN_3, GPIO_PIN_RESET);
 80012be:	2200      	movs	r2, #0
 80012c0:	2108      	movs	r1, #8
 80012c2:	4821      	ldr	r0, [pc, #132]	@ (8001348 <MX_GPIO_Init+0x100>)
 80012c4:	f002 fac4 	bl	8003850 <HAL_GPIO_WritePin>

  /*Configure GPIO pin Output Level */
  HAL_GPIO_WritePin(GPIOA, GPIO_PIN_5|GPIO_PIN_12, GPIO_PIN_RESET);
 80012c8:	2200      	movs	r2, #0
 80012ca:	f44f 5181 	mov.w	r1, #4128	@ 0x1020
 80012ce:	f04f 4090 	mov.w	r0, #1207959552	@ 0x48000000
 80012d2:	f002 fabd 	bl	8003850 <HAL_GPIO_WritePin>

  /*Configure GPIO pin Output Level */
  HAL_GPIO_WritePin(GPIOB, GPIO_PIN_1|GPIO_PIN_2|GPIO_PIN_12|GPIO_PIN_13, GPIO_PIN_RESET);
 80012d6:	2200      	movs	r2, #0
 80012d8:	f243 0106 	movw	r1, #12294	@ 0x3006
 80012dc:	481b      	ldr	r0, [pc, #108]	@ (800134c <MX_GPIO_Init+0x104>)
 80012de:	f002 fab7 	bl	8003850 <HAL_GPIO_WritePin>

  /*Configure GPIO pin : PC3 */
  GPIO_InitStruct.Pin = GPIO_PIN_3;
 80012e2:	2308      	movs	r3, #8
 80012e4:	617b      	str	r3, [r7, #20]
  GPIO_InitStruct.Mode = GPIO_MODE_OUTPUT_PP;
 80012e6:	2301      	movs	r3, #1
 80012e8:	61bb      	str	r3, [r7, #24]
  GPIO_InitStruct.Pull = GPIO_NOPULL;
 80012ea:	2300      	movs	r3, #0
 80012ec:	61fb      	str	r3, [r7, #28]
  GPIO_InitStruct.Speed = GPIO_SPEED_FREQ_LOW;
 80012ee:	2300      	movs	r3, #0
 80012f0:	623b      	str	r3, [r7, #32]
  HAL_GPIO_Init(GPIOC, &GPIO_InitStruct);
 80012f2:	f107 0314 	add.w	r3, r7, #20
 80012f6:	4619      	mov	r1, r3
 80012f8:	4813      	ldr	r0, [pc, #76]	@ (8001348 <MX_GPIO_Init+0x100>)
 80012fa:	f002 f8ff 	bl	80034fc <HAL_GPIO_Init>

  /*Configure GPIO pins : PA5 PA12 */
  GPIO_InitStruct.Pin = GPIO_PIN_5|GPIO_PIN_12;
 80012fe:	f44f 5381 	mov.w	r3, #4128	@ 0x1020
 8001302:	617b      	str	r3, [r7, #20]
  GPIO_InitStruct.Mode = GPIO_MODE_OUTPUT_PP;
 8001304:	2301      	movs	r3, #1
 8001306:	61bb      	str	r3, [r7, #24]
  GPIO_InitStruct.Pull = GPIO_NOPULL;
 8001308:	2300      	movs	r3, #0
 800130a:	61fb      	str	r3, [r7, #28]
  GPIO_InitStruct.Speed = GPIO_SPEED_FREQ_LOW;
 800130c:	2300      	movs	r3, #0
 800130e:	623b      	str	r3, [r7, #32]
  HAL_GPIO_Init(GPIOA, &GPIO_InitStruct);
 8001310:	f107 0314 	add.w	r3, r7, #20
 8001314:	4619      	mov	r1, r3
 8001316:	f04f 4090 	mov.w	r0, #1207959552	@ 0x48000000
 800131a:	f002 f8ef 	bl	80034fc <HAL_GPIO_Init>

  /*Configure GPIO pins : PB1 PB2 PB12 PB13 */
  GPIO_InitStruct.Pin = GPIO_PIN_1|GPIO_PIN_2|GPIO_PIN_12|GPIO_PIN_13;
 800131e:	f243 0306 	movw	r3, #12294	@ 0x3006
 8001322:	617b      	str	r3, [r7, #20]
  GPIO_InitStruct.Mode = GPIO_MODE_OUTPUT_PP;
 8001324:	2301      	movs	r3, #1
 8001326:	61bb      	str	r3, [r7, #24]
  GPIO_InitStruct.Pull = GPIO_NOPULL;
 8001328:	2300      	movs	r3, #0
 800132a:	61fb      	str	r3, [r7, #28]
  GPIO_InitStruct.Speed = GPIO_SPEED_FREQ_LOW;
 800132c:	2300      	movs	r3, #0
 800132e:	623b      	str	r3, [r7, #32]
  HAL_GPIO_Init(GPIOB, &GPIO_InitStruct);
 8001330:	f107 0314 	add.w	r3, r7, #20
 8001334:	4619      	mov	r1, r3
 8001336:	4805      	ldr	r0, [pc, #20]	@ (800134c <MX_GPIO_Init+0x104>)
 8001338:	f002 f8e0 	bl	80034fc <HAL_GPIO_Init>

/* USER CODE BEGIN MX_GPIO_Init_2 */
/* USER CODE END MX_GPIO_Init_2 */
}
 800133c:	bf00      	nop
 800133e:	3728      	adds	r7, #40	@ 0x28
 8001340:	46bd      	mov	sp, r7
 8001342:	bd80      	pop	{r7, pc}
 8001344:	40021000 	.word	0x40021000
 8001348:	48000800 	.word	0x48000800
 800134c:	48000400 	.word	0x48000400

08001350 <HAL_UART_RxCpltCallback>:

/* USER CODE BEGIN 4 */


void HAL_UART_RxCpltCallback(UART_HandleTypeDef *huart)
{
 8001350:	b480      	push	{r7}
 8001352:	b083      	sub	sp, #12
 8001354:	af00      	add	r7, sp, #0
 8001356:	6078      	str	r0, [r7, #4]
	SPI_Rec = 1;
 8001358:	4b04      	ldr	r3, [pc, #16]	@ (800136c <HAL_UART_RxCpltCallback+0x1c>)
 800135a:	2201      	movs	r2, #1
 800135c:	701a      	strb	r2, [r3, #0]
}
 800135e:	bf00      	nop
 8001360:	370c      	adds	r7, #12
 8001362:	46bd      	mov	sp, r7
 8001364:	f85d 7b04 	ldr.w	r7, [sp], #4
 8001368:	4770      	bx	lr
 800136a:	bf00      	nop
 800136c:	20000508 	.word	0x20000508

08001370 <HAL_TIM_IC_CaptureCallback>:
}



void HAL_TIM_IC_CaptureCallback(TIM_HandleTypeDef *htim) //Function from https://controllerstech.com/input-capture-in-stm32/
{
 8001370:	b580      	push	{r7, lr}
 8001372:	b084      	sub	sp, #16
 8001374:	af00      	add	r7, sp, #0
 8001376:	6078      	str	r0, [r7, #4]
	if (htim->Channel == HAL_TIM_ACTIVE_CHANNEL_1)  // if the interrupt source is channel1
 8001378:	687b      	ldr	r3, [r7, #4]
 800137a:	7f1b      	ldrb	r3, [r3, #28]
 800137c:	2b01      	cmp	r3, #1
 800137e:	d156      	bne.n	800142e <HAL_TIM_IC_CaptureCallback+0xbe>
	{
		if (Is_First_Captured==0) // if the first value is not captured
 8001380:	4b2d      	ldr	r3, [pc, #180]	@ (8001438 <HAL_TIM_IC_CaptureCallback+0xc8>)
 8001382:	681b      	ldr	r3, [r3, #0]
 8001384:	2b00      	cmp	r3, #0
 8001386:	d10b      	bne.n	80013a0 <HAL_TIM_IC_CaptureCallback+0x30>
		{
			IC_Val1 = HAL_TIM_ReadCapturedValue(htim, TIM_CHANNEL_1); // read the first value
 8001388:	2100      	movs	r1, #0
 800138a:	6878      	ldr	r0, [r7, #4]
 800138c:	f005 f878 	bl	8006480 <HAL_TIM_ReadCapturedValue>
 8001390:	4603      	mov	r3, r0
 8001392:	461a      	mov	r2, r3
 8001394:	4b29      	ldr	r3, [pc, #164]	@ (800143c <HAL_TIM_IC_CaptureCallback+0xcc>)
 8001396:	601a      	str	r2, [r3, #0]
			Is_First_Captured = 1;  // set the first captured as true
 8001398:	4b27      	ldr	r3, [pc, #156]	@ (8001438 <HAL_TIM_IC_CaptureCallback+0xc8>)
 800139a:	2201      	movs	r2, #1
 800139c:	601a      	str	r2, [r3, #0]

			__HAL_TIM_SET_COUNTER(htim, 0);  // reset the counter
			Is_First_Captured = 0; // set it back to false
		}
	}
}
 800139e:	e046      	b.n	800142e <HAL_TIM_IC_CaptureCallback+0xbe>
			IC_Val2 = HAL_TIM_ReadCapturedValue(htim, TIM_CHANNEL_1);  // read second value
 80013a0:	2100      	movs	r1, #0
 80013a2:	6878      	ldr	r0, [r7, #4]
 80013a4:	f005 f86c 	bl	8006480 <HAL_TIM_ReadCapturedValue>
 80013a8:	4603      	mov	r3, r0
 80013aa:	461a      	mov	r2, r3
 80013ac:	4b24      	ldr	r3, [pc, #144]	@ (8001440 <HAL_TIM_IC_CaptureCallback+0xd0>)
 80013ae:	601a      	str	r2, [r3, #0]
			if (IC_Val2 > IC_Val1)
 80013b0:	4b23      	ldr	r3, [pc, #140]	@ (8001440 <HAL_TIM_IC_CaptureCallback+0xd0>)
 80013b2:	681a      	ldr	r2, [r3, #0]
 80013b4:	4b21      	ldr	r3, [pc, #132]	@ (800143c <HAL_TIM_IC_CaptureCallback+0xcc>)
 80013b6:	681b      	ldr	r3, [r3, #0]
 80013b8:	429a      	cmp	r2, r3
 80013ba:	dd07      	ble.n	80013cc <HAL_TIM_IC_CaptureCallback+0x5c>
				Difference = IC_Val2-IC_Val1;
 80013bc:	4b20      	ldr	r3, [pc, #128]	@ (8001440 <HAL_TIM_IC_CaptureCallback+0xd0>)
 80013be:	681a      	ldr	r2, [r3, #0]
 80013c0:	4b1e      	ldr	r3, [pc, #120]	@ (800143c <HAL_TIM_IC_CaptureCallback+0xcc>)
 80013c2:	681b      	ldr	r3, [r3, #0]
 80013c4:	1ad3      	subs	r3, r2, r3
 80013c6:	4a1f      	ldr	r2, [pc, #124]	@ (8001444 <HAL_TIM_IC_CaptureCallback+0xd4>)
 80013c8:	6013      	str	r3, [r2, #0]
 80013ca:	e00f      	b.n	80013ec <HAL_TIM_IC_CaptureCallback+0x7c>
			else if (IC_Val1 > IC_Val2)
 80013cc:	4b1b      	ldr	r3, [pc, #108]	@ (800143c <HAL_TIM_IC_CaptureCallback+0xcc>)
 80013ce:	681a      	ldr	r2, [r3, #0]
 80013d0:	4b1b      	ldr	r3, [pc, #108]	@ (8001440 <HAL_TIM_IC_CaptureCallback+0xd0>)
 80013d2:	681b      	ldr	r3, [r3, #0]
 80013d4:	429a      	cmp	r2, r3
 80013d6:	dd09      	ble.n	80013ec <HAL_TIM_IC_CaptureCallback+0x7c>
				Difference = (0xffff - IC_Val1) + IC_Val2;
 80013d8:	4b18      	ldr	r3, [pc, #96]	@ (800143c <HAL_TIM_IC_CaptureCallback+0xcc>)
 80013da:	681b      	ldr	r3, [r3, #0]
 80013dc:	f5c3 437f 	rsb	r3, r3, #65280	@ 0xff00
 80013e0:	33ff      	adds	r3, #255	@ 0xff
 80013e2:	4a17      	ldr	r2, [pc, #92]	@ (8001440 <HAL_TIM_IC_CaptureCallback+0xd0>)
 80013e4:	6812      	ldr	r2, [r2, #0]
 80013e6:	4413      	add	r3, r2
 80013e8:	4a16      	ldr	r2, [pc, #88]	@ (8001444 <HAL_TIM_IC_CaptureCallback+0xd4>)
 80013ea:	6013      	str	r3, [r2, #0]
			float refClock = TIMCLOCK/(PRESCALAR);
 80013ec:	4b16      	ldr	r3, [pc, #88]	@ (8001448 <HAL_TIM_IC_CaptureCallback+0xd8>)
 80013ee:	60fb      	str	r3, [r7, #12]
			float mFactor = 1000000/refClock;
 80013f0:	eddf 6a16 	vldr	s13, [pc, #88]	@ 800144c <HAL_TIM_IC_CaptureCallback+0xdc>
 80013f4:	ed97 7a03 	vldr	s14, [r7, #12]
 80013f8:	eec6 7a87 	vdiv.f32	s15, s13, s14
 80013fc:	edc7 7a02 	vstr	s15, [r7, #8]
			usWidth = Difference*mFactor;
 8001400:	4b10      	ldr	r3, [pc, #64]	@ (8001444 <HAL_TIM_IC_CaptureCallback+0xd4>)
 8001402:	681b      	ldr	r3, [r3, #0]
 8001404:	ee07 3a90 	vmov	s15, r3
 8001408:	eeb8 7ae7 	vcvt.f32.s32	s14, s15
 800140c:	edd7 7a02 	vldr	s15, [r7, #8]
 8001410:	ee67 7a27 	vmul.f32	s15, s14, s15
 8001414:	eefd 7ae7 	vcvt.s32.f32	s15, s15
 8001418:	ee17 2a90 	vmov	r2, s15
 800141c:	4b0c      	ldr	r3, [pc, #48]	@ (8001450 <HAL_TIM_IC_CaptureCallback+0xe0>)
 800141e:	601a      	str	r2, [r3, #0]
			__HAL_TIM_SET_COUNTER(htim, 0);  // reset the counter
 8001420:	687b      	ldr	r3, [r7, #4]
 8001422:	681b      	ldr	r3, [r3, #0]
 8001424:	2200      	movs	r2, #0
 8001426:	625a      	str	r2, [r3, #36]	@ 0x24
			Is_First_Captured = 0; // set it back to false
 8001428:	4b03      	ldr	r3, [pc, #12]	@ (8001438 <HAL_TIM_IC_CaptureCallback+0xc8>)
 800142a:	2200      	movs	r2, #0
 800142c:	601a      	str	r2, [r3, #0]
}
 800142e:	bf00      	nop
 8001430:	3710      	adds	r7, #16
 8001432:	46bd      	mov	sp, r7
 8001434:	bd80      	pop	{r7, pc}
 8001436:	bf00      	nop
 8001438:	20000504 	.word	0x20000504
 800143c:	200004f8 	.word	0x200004f8
 8001440:	200004fc 	.word	0x200004fc
 8001444:	20000500 	.word	0x20000500
 8001448:	49742400 	.word	0x49742400
 800144c:	49742400 	.word	0x49742400
 8001450:	200004f4 	.word	0x200004f4

08001454 <Error_Handler>:
/**
  * @brief  This function is executed in case of error occurrence.
  * @retval None
  */
void Error_Handler(void)
{
 8001454:	b480      	push	{r7}
 8001456:	af00      	add	r7, sp, #0
  /* USER CODE BEGIN Error_Handler_Debug */
  /* USER CODE END Error_Handler_Debug */
}
 8001458:	bf00      	nop
 800145a:	46bd      	mov	sp, r7
 800145c:	f85d 7b04 	ldr.w	r7, [sp], #4
 8001460:	4770      	bx	lr
	...

08001464 <HAL_MspInit>:
void HAL_TIM_MspPostInit(TIM_HandleTypeDef *htim);
                                        /**
  * Initializes the Global MSP.
  */
void HAL_MspInit(void)
{
 8001464:	b580      	push	{r7, lr}
 8001466:	b082      	sub	sp, #8
 8001468:	af00      	add	r7, sp, #0

  /* USER CODE BEGIN MspInit 0 */

  /* USER CODE END MspInit 0 */

  __HAL_RCC_SYSCFG_CLK_ENABLE();
 800146a:	4b12      	ldr	r3, [pc, #72]	@ (80014b4 <HAL_MspInit+0x50>)
 800146c:	6e1b      	ldr	r3, [r3, #96]	@ 0x60
 800146e:	4a11      	ldr	r2, [pc, #68]	@ (80014b4 <HAL_MspInit+0x50>)
 8001470:	f043 0301 	orr.w	r3, r3, #1
 8001474:	6613      	str	r3, [r2, #96]	@ 0x60
 8001476:	4b0f      	ldr	r3, [pc, #60]	@ (80014b4 <HAL_MspInit+0x50>)
 8001478:	6e1b      	ldr	r3, [r3, #96]	@ 0x60
 800147a:	f003 0301 	and.w	r3, r3, #1
 800147e:	607b      	str	r3, [r7, #4]
 8001480:	687b      	ldr	r3, [r7, #4]
  __HAL_RCC_PWR_CLK_ENABLE();
 8001482:	4b0c      	ldr	r3, [pc, #48]	@ (80014b4 <HAL_MspInit+0x50>)
 8001484:	6d9b      	ldr	r3, [r3, #88]	@ 0x58
 8001486:	4a0b      	ldr	r2, [pc, #44]	@ (80014b4 <HAL_MspInit+0x50>)
 8001488:	f043 5380 	orr.w	r3, r3, #268435456	@ 0x10000000
 800148c:	6593      	str	r3, [r2, #88]	@ 0x58
 800148e:	4b09      	ldr	r3, [pc, #36]	@ (80014b4 <HAL_MspInit+0x50>)
 8001490:	6d9b      	ldr	r3, [r3, #88]	@ 0x58
 8001492:	f003 5380 	and.w	r3, r3, #268435456	@ 0x10000000
 8001496:	603b      	str	r3, [r7, #0]
 8001498:	683b      	ldr	r3, [r7, #0]

  /* System interrupt init*/

  /* Peripheral interrupt init */
  /* RCC_IRQn interrupt configuration */
  HAL_NVIC_SetPriority(RCC_IRQn, 0, 0);
 800149a:	2200      	movs	r2, #0
 800149c:	2100      	movs	r1, #0
 800149e:	2005      	movs	r0, #5
 80014a0:	f001 ff77 	bl	8003392 <HAL_NVIC_SetPriority>
  HAL_NVIC_EnableIRQ(RCC_IRQn);
 80014a4:	2005      	movs	r0, #5
 80014a6:	f001 ff90 	bl	80033ca <HAL_NVIC_EnableIRQ>

  /* USER CODE BEGIN MspInit 1 */

  /* USER CODE END MspInit 1 */
}
 80014aa:	bf00      	nop
 80014ac:	3708      	adds	r7, #8
 80014ae:	46bd      	mov	sp, r7
 80014b0:	bd80      	pop	{r7, pc}
 80014b2:	bf00      	nop
 80014b4:	40021000 	.word	0x40021000

080014b8 <HAL_ADC_MspInit>:
* This function configures the hardware resources used in this example
* @param hadc: ADC handle pointer
* @retval None
*/
void HAL_ADC_MspInit(ADC_HandleTypeDef* hadc)
{
 80014b8:	b580      	push	{r7, lr}
 80014ba:	b08e      	sub	sp, #56	@ 0x38
 80014bc:	af00      	add	r7, sp, #0
 80014be:	6078      	str	r0, [r7, #4]
  GPIO_InitTypeDef GPIO_InitStruct = {0};
 80014c0:	f107 0324 	add.w	r3, r7, #36	@ 0x24
 80014c4:	2200      	movs	r2, #0
 80014c6:	601a      	str	r2, [r3, #0]
 80014c8:	605a      	str	r2, [r3, #4]
 80014ca:	609a      	str	r2, [r3, #8]
 80014cc:	60da      	str	r2, [r3, #12]
 80014ce:	611a      	str	r2, [r3, #16]
  if(hadc->Instance==ADC1)
 80014d0:	687b      	ldr	r3, [r7, #4]
 80014d2:	681b      	ldr	r3, [r3, #0]
 80014d4:	4a58      	ldr	r2, [pc, #352]	@ (8001638 <HAL_ADC_MspInit+0x180>)
 80014d6:	4293      	cmp	r3, r2
 80014d8:	d12d      	bne.n	8001536 <HAL_ADC_MspInit+0x7e>
  {
  /* USER CODE BEGIN ADC1_MspInit 0 */

  /* USER CODE END ADC1_MspInit 0 */
    /* Peripheral clock enable */
    HAL_RCC_ADC_CLK_ENABLED++;
 80014da:	4b58      	ldr	r3, [pc, #352]	@ (800163c <HAL_ADC_MspInit+0x184>)
 80014dc:	681b      	ldr	r3, [r3, #0]
 80014de:	3301      	adds	r3, #1
 80014e0:	4a56      	ldr	r2, [pc, #344]	@ (800163c <HAL_ADC_MspInit+0x184>)
 80014e2:	6013      	str	r3, [r2, #0]
    if(HAL_RCC_ADC_CLK_ENABLED==1){
 80014e4:	4b55      	ldr	r3, [pc, #340]	@ (800163c <HAL_ADC_MspInit+0x184>)
 80014e6:	681b      	ldr	r3, [r3, #0]
 80014e8:	2b01      	cmp	r3, #1
 80014ea:	d10b      	bne.n	8001504 <HAL_ADC_MspInit+0x4c>
      __HAL_RCC_ADC_CLK_ENABLE();
 80014ec:	4b54      	ldr	r3, [pc, #336]	@ (8001640 <HAL_ADC_MspInit+0x188>)
 80014ee:	6cdb      	ldr	r3, [r3, #76]	@ 0x4c
 80014f0:	4a53      	ldr	r2, [pc, #332]	@ (8001640 <HAL_ADC_MspInit+0x188>)
 80014f2:	f443 5300 	orr.w	r3, r3, #8192	@ 0x2000
 80014f6:	64d3      	str	r3, [r2, #76]	@ 0x4c
 80014f8:	4b51      	ldr	r3, [pc, #324]	@ (8001640 <HAL_ADC_MspInit+0x188>)
 80014fa:	6cdb      	ldr	r3, [r3, #76]	@ 0x4c
 80014fc:	f403 5300 	and.w	r3, r3, #8192	@ 0x2000
 8001500:	623b      	str	r3, [r7, #32]
 8001502:	6a3b      	ldr	r3, [r7, #32]
    }

    __HAL_RCC_GPIOC_CLK_ENABLE();
 8001504:	4b4e      	ldr	r3, [pc, #312]	@ (8001640 <HAL_ADC_MspInit+0x188>)
 8001506:	6cdb      	ldr	r3, [r3, #76]	@ 0x4c
 8001508:	4a4d      	ldr	r2, [pc, #308]	@ (8001640 <HAL_ADC_MspInit+0x188>)
 800150a:	f043 0304 	orr.w	r3, r3, #4
 800150e:	64d3      	str	r3, [r2, #76]	@ 0x4c
 8001510:	4b4b      	ldr	r3, [pc, #300]	@ (8001640 <HAL_ADC_MspInit+0x188>)
 8001512:	6cdb      	ldr	r3, [r3, #76]	@ 0x4c
 8001514:	f003 0304 	and.w	r3, r3, #4
 8001518:	61fb      	str	r3, [r7, #28]
 800151a:	69fb      	ldr	r3, [r7, #28]
    /**ADC1 GPIO Configuration
    PC0     ------> ADC1_IN1
    PC1     ------> ADC1_IN2
    */
    GPIO_InitStruct.Pin = GPIO_PIN_0|GPIO_PIN_1;
 800151c:	2303      	movs	r3, #3
 800151e:	627b      	str	r3, [r7, #36]	@ 0x24
    GPIO_InitStruct.Mode = GPIO_MODE_ANALOG;
 8001520:	2303      	movs	r3, #3
 8001522:	62bb      	str	r3, [r7, #40]	@ 0x28
    GPIO_InitStruct.Pull = GPIO_NOPULL;
 8001524:	2300      	movs	r3, #0
 8001526:	62fb      	str	r3, [r7, #44]	@ 0x2c
    HAL_GPIO_Init(GPIOC, &GPIO_InitStruct);
 8001528:	f107 0324 	add.w	r3, r7, #36	@ 0x24
 800152c:	4619      	mov	r1, r3
 800152e:	4845      	ldr	r0, [pc, #276]	@ (8001644 <HAL_ADC_MspInit+0x18c>)
 8001530:	f001 ffe4 	bl	80034fc <HAL_GPIO_Init>
  /* USER CODE BEGIN ADC3_MspInit 1 */

  /* USER CODE END ADC3_MspInit 1 */
  }

}
 8001534:	e07c      	b.n	8001630 <HAL_ADC_MspInit+0x178>
  else if(hadc->Instance==ADC2)
 8001536:	687b      	ldr	r3, [r7, #4]
 8001538:	681b      	ldr	r3, [r3, #0]
 800153a:	4a43      	ldr	r2, [pc, #268]	@ (8001648 <HAL_ADC_MspInit+0x190>)
 800153c:	4293      	cmp	r3, r2
 800153e:	d145      	bne.n	80015cc <HAL_ADC_MspInit+0x114>
    HAL_RCC_ADC_CLK_ENABLED++;
 8001540:	4b3e      	ldr	r3, [pc, #248]	@ (800163c <HAL_ADC_MspInit+0x184>)
 8001542:	681b      	ldr	r3, [r3, #0]
 8001544:	3301      	adds	r3, #1
 8001546:	4a3d      	ldr	r2, [pc, #244]	@ (800163c <HAL_ADC_MspInit+0x184>)
 8001548:	6013      	str	r3, [r2, #0]
    if(HAL_RCC_ADC_CLK_ENABLED==1){
 800154a:	4b3c      	ldr	r3, [pc, #240]	@ (800163c <HAL_ADC_MspInit+0x184>)
 800154c:	681b      	ldr	r3, [r3, #0]
 800154e:	2b01      	cmp	r3, #1
 8001550:	d10b      	bne.n	800156a <HAL_ADC_MspInit+0xb2>
      __HAL_RCC_ADC_CLK_ENABLE();
 8001552:	4b3b      	ldr	r3, [pc, #236]	@ (8001640 <HAL_ADC_MspInit+0x188>)
 8001554:	6cdb      	ldr	r3, [r3, #76]	@ 0x4c
 8001556:	4a3a      	ldr	r2, [pc, #232]	@ (8001640 <HAL_ADC_MspInit+0x188>)
 8001558:	f443 5300 	orr.w	r3, r3, #8192	@ 0x2000
 800155c:	64d3      	str	r3, [r2, #76]	@ 0x4c
 800155e:	4b38      	ldr	r3, [pc, #224]	@ (8001640 <HAL_ADC_MspInit+0x188>)
 8001560:	6cdb      	ldr	r3, [r3, #76]	@ 0x4c
 8001562:	f403 5300 	and.w	r3, r3, #8192	@ 0x2000
 8001566:	61bb      	str	r3, [r7, #24]
 8001568:	69bb      	ldr	r3, [r7, #24]
    __HAL_RCC_GPIOC_CLK_ENABLE();
 800156a:	4b35      	ldr	r3, [pc, #212]	@ (8001640 <HAL_ADC_MspInit+0x188>)
 800156c:	6cdb      	ldr	r3, [r3, #76]	@ 0x4c
 800156e:	4a34      	ldr	r2, [pc, #208]	@ (8001640 <HAL_ADC_MspInit+0x188>)
 8001570:	f043 0304 	orr.w	r3, r3, #4
 8001574:	64d3      	str	r3, [r2, #76]	@ 0x4c
 8001576:	4b32      	ldr	r3, [pc, #200]	@ (8001640 <HAL_ADC_MspInit+0x188>)
 8001578:	6cdb      	ldr	r3, [r3, #76]	@ 0x4c
 800157a:	f003 0304 	and.w	r3, r3, #4
 800157e:	617b      	str	r3, [r7, #20]
 8001580:	697b      	ldr	r3, [r7, #20]
    __HAL_RCC_GPIOB_CLK_ENABLE();
 8001582:	4b2f      	ldr	r3, [pc, #188]	@ (8001640 <HAL_ADC_MspInit+0x188>)
 8001584:	6cdb      	ldr	r3, [r3, #76]	@ 0x4c
 8001586:	4a2e      	ldr	r2, [pc, #184]	@ (8001640 <HAL_ADC_MspInit+0x188>)
 8001588:	f043 0302 	orr.w	r3, r3, #2
 800158c:	64d3      	str	r3, [r2, #76]	@ 0x4c
 800158e:	4b2c      	ldr	r3, [pc, #176]	@ (8001640 <HAL_ADC_MspInit+0x188>)
 8001590:	6cdb      	ldr	r3, [r3, #76]	@ 0x4c
 8001592:	f003 0302 	and.w	r3, r3, #2
 8001596:	613b      	str	r3, [r7, #16]
 8001598:	693b      	ldr	r3, [r7, #16]
    GPIO_InitStruct.Pin = GPIO_PIN_1|GPIO_PIN_2;
 800159a:	2306      	movs	r3, #6
 800159c:	627b      	str	r3, [r7, #36]	@ 0x24
    GPIO_InitStruct.Mode = GPIO_MODE_ANALOG;
 800159e:	2303      	movs	r3, #3
 80015a0:	62bb      	str	r3, [r7, #40]	@ 0x28
    GPIO_InitStruct.Pull = GPIO_NOPULL;
 80015a2:	2300      	movs	r3, #0
 80015a4:	62fb      	str	r3, [r7, #44]	@ 0x2c
    HAL_GPIO_Init(GPIOC, &GPIO_InitStruct);
 80015a6:	f107 0324 	add.w	r3, r7, #36	@ 0x24
 80015aa:	4619      	mov	r1, r3
 80015ac:	4825      	ldr	r0, [pc, #148]	@ (8001644 <HAL_ADC_MspInit+0x18c>)
 80015ae:	f001 ffa5 	bl	80034fc <HAL_GPIO_Init>
    GPIO_InitStruct.Pin = GPIO_PIN_0;
 80015b2:	2301      	movs	r3, #1
 80015b4:	627b      	str	r3, [r7, #36]	@ 0x24
    GPIO_InitStruct.Mode = GPIO_MODE_ANALOG_ADC_CONTROL;
 80015b6:	230b      	movs	r3, #11
 80015b8:	62bb      	str	r3, [r7, #40]	@ 0x28
    GPIO_InitStruct.Pull = GPIO_NOPULL;
 80015ba:	2300      	movs	r3, #0
 80015bc:	62fb      	str	r3, [r7, #44]	@ 0x2c
    HAL_GPIO_Init(GPIOB, &GPIO_InitStruct);
 80015be:	f107 0324 	add.w	r3, r7, #36	@ 0x24
 80015c2:	4619      	mov	r1, r3
 80015c4:	4821      	ldr	r0, [pc, #132]	@ (800164c <HAL_ADC_MspInit+0x194>)
 80015c6:	f001 ff99 	bl	80034fc <HAL_GPIO_Init>
}
 80015ca:	e031      	b.n	8001630 <HAL_ADC_MspInit+0x178>
  else if(hadc->Instance==ADC3)
 80015cc:	687b      	ldr	r3, [r7, #4]
 80015ce:	681b      	ldr	r3, [r3, #0]
 80015d0:	4a1f      	ldr	r2, [pc, #124]	@ (8001650 <HAL_ADC_MspInit+0x198>)
 80015d2:	4293      	cmp	r3, r2
 80015d4:	d12c      	bne.n	8001630 <HAL_ADC_MspInit+0x178>
    HAL_RCC_ADC_CLK_ENABLED++;
 80015d6:	4b19      	ldr	r3, [pc, #100]	@ (800163c <HAL_ADC_MspInit+0x184>)
 80015d8:	681b      	ldr	r3, [r3, #0]
 80015da:	3301      	adds	r3, #1
 80015dc:	4a17      	ldr	r2, [pc, #92]	@ (800163c <HAL_ADC_MspInit+0x184>)
 80015de:	6013      	str	r3, [r2, #0]
    if(HAL_RCC_ADC_CLK_ENABLED==1){
 80015e0:	4b16      	ldr	r3, [pc, #88]	@ (800163c <HAL_ADC_MspInit+0x184>)
 80015e2:	681b      	ldr	r3, [r3, #0]
 80015e4:	2b01      	cmp	r3, #1
 80015e6:	d10b      	bne.n	8001600 <HAL_ADC_MspInit+0x148>
      __HAL_RCC_ADC_CLK_ENABLE();
 80015e8:	4b15      	ldr	r3, [pc, #84]	@ (8001640 <HAL_ADC_MspInit+0x188>)
 80015ea:	6cdb      	ldr	r3, [r3, #76]	@ 0x4c
 80015ec:	4a14      	ldr	r2, [pc, #80]	@ (8001640 <HAL_ADC_MspInit+0x188>)
 80015ee:	f443 5300 	orr.w	r3, r3, #8192	@ 0x2000
 80015f2:	64d3      	str	r3, [r2, #76]	@ 0x4c
 80015f4:	4b12      	ldr	r3, [pc, #72]	@ (8001640 <HAL_ADC_MspInit+0x188>)
 80015f6:	6cdb      	ldr	r3, [r3, #76]	@ 0x4c
 80015f8:	f403 5300 	and.w	r3, r3, #8192	@ 0x2000
 80015fc:	60fb      	str	r3, [r7, #12]
 80015fe:	68fb      	ldr	r3, [r7, #12]
    __HAL_RCC_GPIOC_CLK_ENABLE();
 8001600:	4b0f      	ldr	r3, [pc, #60]	@ (8001640 <HAL_ADC_MspInit+0x188>)
 8001602:	6cdb      	ldr	r3, [r3, #76]	@ 0x4c
 8001604:	4a0e      	ldr	r2, [pc, #56]	@ (8001640 <HAL_ADC_MspInit+0x188>)
 8001606:	f043 0304 	orr.w	r3, r3, #4
 800160a:	64d3      	str	r3, [r2, #76]	@ 0x4c
 800160c:	4b0c      	ldr	r3, [pc, #48]	@ (8001640 <HAL_ADC_MspInit+0x188>)
 800160e:	6cdb      	ldr	r3, [r3, #76]	@ 0x4c
 8001610:	f003 0304 	and.w	r3, r3, #4
 8001614:	60bb      	str	r3, [r7, #8]
 8001616:	68bb      	ldr	r3, [r7, #8]
    GPIO_InitStruct.Pin = GPIO_PIN_2;
 8001618:	2304      	movs	r3, #4
 800161a:	627b      	str	r3, [r7, #36]	@ 0x24
    GPIO_InitStruct.Mode = GPIO_MODE_ANALOG;
 800161c:	2303      	movs	r3, #3
 800161e:	62bb      	str	r3, [r7, #40]	@ 0x28
    GPIO_InitStruct.Pull = GPIO_NOPULL;
 8001620:	2300      	movs	r3, #0
 8001622:	62fb      	str	r3, [r7, #44]	@ 0x2c
    HAL_GPIO_Init(GPIOC, &GPIO_InitStruct);
 8001624:	f107 0324 	add.w	r3, r7, #36	@ 0x24
 8001628:	4619      	mov	r1, r3
 800162a:	4806      	ldr	r0, [pc, #24]	@ (8001644 <HAL_ADC_MspInit+0x18c>)
 800162c:	f001 ff66 	bl	80034fc <HAL_GPIO_Init>
}
 8001630:	bf00      	nop
 8001632:	3738      	adds	r7, #56	@ 0x38
 8001634:	46bd      	mov	sp, r7
 8001636:	bd80      	pop	{r7, pc}
 8001638:	50040000 	.word	0x50040000
 800163c:	2000050c 	.word	0x2000050c
 8001640:	40021000 	.word	0x40021000
 8001644:	48000800 	.word	0x48000800
 8001648:	50040100 	.word	0x50040100
 800164c:	48000400 	.word	0x48000400
 8001650:	50040200 	.word	0x50040200

08001654 <HAL_I2C_MspInit>:
* This function configures the hardware resources used in this example
* @param hi2c: I2C handle pointer
* @retval None
*/
void HAL_I2C_MspInit(I2C_HandleTypeDef* hi2c)
{
 8001654:	b580      	push	{r7, lr}
 8001656:	b0aa      	sub	sp, #168	@ 0xa8
 8001658:	af00      	add	r7, sp, #0
 800165a:	6078      	str	r0, [r7, #4]
  GPIO_InitTypeDef GPIO_InitStruct = {0};
 800165c:	f107 0394 	add.w	r3, r7, #148	@ 0x94
 8001660:	2200      	movs	r2, #0
 8001662:	601a      	str	r2, [r3, #0]
 8001664:	605a      	str	r2, [r3, #4]
 8001666:	609a      	str	r2, [r3, #8]
 8001668:	60da      	str	r2, [r3, #12]
 800166a:	611a      	str	r2, [r3, #16]
  RCC_PeriphCLKInitTypeDef PeriphClkInit = {0};
 800166c:	f107 0310 	add.w	r3, r7, #16
 8001670:	2284      	movs	r2, #132	@ 0x84
 8001672:	2100      	movs	r1, #0
 8001674:	4618      	mov	r0, r3
 8001676:	f007 f925 	bl	80088c4 <memset>
  if(hi2c->Instance==I2C2)
 800167a:	687b      	ldr	r3, [r7, #4]
 800167c:	681b      	ldr	r3, [r3, #0]
 800167e:	4a21      	ldr	r2, [pc, #132]	@ (8001704 <HAL_I2C_MspInit+0xb0>)
 8001680:	4293      	cmp	r3, r2
 8001682:	d13b      	bne.n	80016fc <HAL_I2C_MspInit+0xa8>

  /* USER CODE END I2C2_MspInit 0 */

  /** Initializes the peripherals clock
  */
    PeriphClkInit.PeriphClockSelection = RCC_PERIPHCLK_I2C2;
 8001684:	2380      	movs	r3, #128	@ 0x80
 8001686:	613b      	str	r3, [r7, #16]
    PeriphClkInit.I2c2ClockSelection = RCC_I2C2CLKSOURCE_PCLK1;
 8001688:	2300      	movs	r3, #0
 800168a:	667b      	str	r3, [r7, #100]	@ 0x64
    if (HAL_RCCEx_PeriphCLKConfig(&PeriphClkInit) != HAL_OK)
 800168c:	f107 0310 	add.w	r3, r7, #16
 8001690:	4618      	mov	r0, r3
 8001692:	f003 f88b 	bl	80047ac <HAL_RCCEx_PeriphCLKConfig>
 8001696:	4603      	mov	r3, r0
 8001698:	2b00      	cmp	r3, #0
 800169a:	d001      	beq.n	80016a0 <HAL_I2C_MspInit+0x4c>
    {
      Error_Handler();
 800169c:	f7ff feda 	bl	8001454 <Error_Handler>
    }

    __HAL_RCC_GPIOB_CLK_ENABLE();
 80016a0:	4b19      	ldr	r3, [pc, #100]	@ (8001708 <HAL_I2C_MspInit+0xb4>)
 80016a2:	6cdb      	ldr	r3, [r3, #76]	@ 0x4c
 80016a4:	4a18      	ldr	r2, [pc, #96]	@ (8001708 <HAL_I2C_MspInit+0xb4>)
 80016a6:	f043 0302 	orr.w	r3, r3, #2
 80016aa:	64d3      	str	r3, [r2, #76]	@ 0x4c
 80016ac:	4b16      	ldr	r3, [pc, #88]	@ (8001708 <HAL_I2C_MspInit+0xb4>)
 80016ae:	6cdb      	ldr	r3, [r3, #76]	@ 0x4c
 80016b0:	f003 0302 	and.w	r3, r3, #2
 80016b4:	60fb      	str	r3, [r7, #12]
 80016b6:	68fb      	ldr	r3, [r7, #12]
    /**I2C2 GPIO Configuration
    PB10     ------> I2C2_SCL
    PB11     ------> I2C2_SDA
    */
    GPIO_InitStruct.Pin = GPIO_PIN_10|GPIO_PIN_11;
 80016b8:	f44f 6340 	mov.w	r3, #3072	@ 0xc00
 80016bc:	f8c7 3094 	str.w	r3, [r7, #148]	@ 0x94
    GPIO_InitStruct.Mode = GPIO_MODE_AF_OD;
 80016c0:	2312      	movs	r3, #18
 80016c2:	f8c7 3098 	str.w	r3, [r7, #152]	@ 0x98
    GPIO_InitStruct.Pull = GPIO_NOPULL;
 80016c6:	2300      	movs	r3, #0
 80016c8:	f8c7 309c 	str.w	r3, [r7, #156]	@ 0x9c
    GPIO_InitStruct.Speed = GPIO_SPEED_FREQ_VERY_HIGH;
 80016cc:	2303      	movs	r3, #3
 80016ce:	f8c7 30a0 	str.w	r3, [r7, #160]	@ 0xa0
    GPIO_InitStruct.Alternate = GPIO_AF4_I2C2;
 80016d2:	2304      	movs	r3, #4
 80016d4:	f8c7 30a4 	str.w	r3, [r7, #164]	@ 0xa4
    HAL_GPIO_Init(GPIOB, &GPIO_InitStruct);
 80016d8:	f107 0394 	add.w	r3, r7, #148	@ 0x94
 80016dc:	4619      	mov	r1, r3
 80016de:	480b      	ldr	r0, [pc, #44]	@ (800170c <HAL_I2C_MspInit+0xb8>)
 80016e0:	f001 ff0c 	bl	80034fc <HAL_GPIO_Init>

    /* Peripheral clock enable */
    __HAL_RCC_I2C2_CLK_ENABLE();
 80016e4:	4b08      	ldr	r3, [pc, #32]	@ (8001708 <HAL_I2C_MspInit+0xb4>)
 80016e6:	6d9b      	ldr	r3, [r3, #88]	@ 0x58
 80016e8:	4a07      	ldr	r2, [pc, #28]	@ (8001708 <HAL_I2C_MspInit+0xb4>)
 80016ea:	f443 0380 	orr.w	r3, r3, #4194304	@ 0x400000
 80016ee:	6593      	str	r3, [r2, #88]	@ 0x58
 80016f0:	4b05      	ldr	r3, [pc, #20]	@ (8001708 <HAL_I2C_MspInit+0xb4>)
 80016f2:	6d9b      	ldr	r3, [r3, #88]	@ 0x58
 80016f4:	f403 0380 	and.w	r3, r3, #4194304	@ 0x400000
 80016f8:	60bb      	str	r3, [r7, #8]
 80016fa:	68bb      	ldr	r3, [r7, #8]
  /* USER CODE BEGIN I2C2_MspInit 1 */

  /* USER CODE END I2C2_MspInit 1 */
  }

}
 80016fc:	bf00      	nop
 80016fe:	37a8      	adds	r7, #168	@ 0xa8
 8001700:	46bd      	mov	sp, r7
 8001702:	bd80      	pop	{r7, pc}
 8001704:	40005800 	.word	0x40005800
 8001708:	40021000 	.word	0x40021000
 800170c:	48000400 	.word	0x48000400

08001710 <HAL_SPI_MspInit>:
* This function configures the hardware resources used in this example
* @param hspi: SPI handle pointer
* @retval None
*/
void HAL_SPI_MspInit(SPI_HandleTypeDef* hspi)
{
 8001710:	b580      	push	{r7, lr}
 8001712:	b08a      	sub	sp, #40	@ 0x28
 8001714:	af00      	add	r7, sp, #0
 8001716:	6078      	str	r0, [r7, #4]
  GPIO_InitTypeDef GPIO_InitStruct = {0};
 8001718:	f107 0314 	add.w	r3, r7, #20
 800171c:	2200      	movs	r2, #0
 800171e:	601a      	str	r2, [r3, #0]
 8001720:	605a      	str	r2, [r3, #4]
 8001722:	609a      	str	r2, [r3, #8]
 8001724:	60da      	str	r2, [r3, #12]
 8001726:	611a      	str	r2, [r3, #16]
  if(hspi->Instance==SPI3)
 8001728:	687b      	ldr	r3, [r7, #4]
 800172a:	681b      	ldr	r3, [r3, #0]
 800172c:	4a2a      	ldr	r2, [pc, #168]	@ (80017d8 <HAL_SPI_MspInit+0xc8>)
 800172e:	4293      	cmp	r3, r2
 8001730:	d14d      	bne.n	80017ce <HAL_SPI_MspInit+0xbe>
  {
  /* USER CODE BEGIN SPI3_MspInit 0 */

  /* USER CODE END SPI3_MspInit 0 */
    /* Peripheral clock enable */
    __HAL_RCC_SPI3_CLK_ENABLE();
 8001732:	4b2a      	ldr	r3, [pc, #168]	@ (80017dc <HAL_SPI_MspInit+0xcc>)
 8001734:	6d9b      	ldr	r3, [r3, #88]	@ 0x58
 8001736:	4a29      	ldr	r2, [pc, #164]	@ (80017dc <HAL_SPI_MspInit+0xcc>)
 8001738:	f443 4300 	orr.w	r3, r3, #32768	@ 0x8000
 800173c:	6593      	str	r3, [r2, #88]	@ 0x58
 800173e:	4b27      	ldr	r3, [pc, #156]	@ (80017dc <HAL_SPI_MspInit+0xcc>)
 8001740:	6d9b      	ldr	r3, [r3, #88]	@ 0x58
 8001742:	f403 4300 	and.w	r3, r3, #32768	@ 0x8000
 8001746:	613b      	str	r3, [r7, #16]
 8001748:	693b      	ldr	r3, [r7, #16]

    __HAL_RCC_GPIOA_CLK_ENABLE();
 800174a:	4b24      	ldr	r3, [pc, #144]	@ (80017dc <HAL_SPI_MspInit+0xcc>)
 800174c:	6cdb      	ldr	r3, [r3, #76]	@ 0x4c
 800174e:	4a23      	ldr	r2, [pc, #140]	@ (80017dc <HAL_SPI_MspInit+0xcc>)
 8001750:	f043 0301 	orr.w	r3, r3, #1
 8001754:	64d3      	str	r3, [r2, #76]	@ 0x4c
 8001756:	4b21      	ldr	r3, [pc, #132]	@ (80017dc <HAL_SPI_MspInit+0xcc>)
 8001758:	6cdb      	ldr	r3, [r3, #76]	@ 0x4c
 800175a:	f003 0301 	and.w	r3, r3, #1
 800175e:	60fb      	str	r3, [r7, #12]
 8001760:	68fb      	ldr	r3, [r7, #12]
    __HAL_RCC_GPIOC_CLK_ENABLE();
 8001762:	4b1e      	ldr	r3, [pc, #120]	@ (80017dc <HAL_SPI_MspInit+0xcc>)
 8001764:	6cdb      	ldr	r3, [r3, #76]	@ 0x4c
 8001766:	4a1d      	ldr	r2, [pc, #116]	@ (80017dc <HAL_SPI_MspInit+0xcc>)
 8001768:	f043 0304 	orr.w	r3, r3, #4
 800176c:	64d3      	str	r3, [r2, #76]	@ 0x4c
 800176e:	4b1b      	ldr	r3, [pc, #108]	@ (80017dc <HAL_SPI_MspInit+0xcc>)
 8001770:	6cdb      	ldr	r3, [r3, #76]	@ 0x4c
 8001772:	f003 0304 	and.w	r3, r3, #4
 8001776:	60bb      	str	r3, [r7, #8]
 8001778:	68bb      	ldr	r3, [r7, #8]
    /**SPI3 GPIO Configuration
    PA4     ------> SPI3_NSS
    PC10     ------> SPI3_SCK
    PC11     ------> SPI3_MISO
    */
    GPIO_InitStruct.Pin = GPIO_PIN_4;
 800177a:	2310      	movs	r3, #16
 800177c:	617b      	str	r3, [r7, #20]
    GPIO_InitStruct.Mode = GPIO_MODE_AF_PP;
 800177e:	2302      	movs	r3, #2
 8001780:	61bb      	str	r3, [r7, #24]
    GPIO_InitStruct.Pull = GPIO_NOPULL;
 8001782:	2300      	movs	r3, #0
 8001784:	61fb      	str	r3, [r7, #28]
    GPIO_InitStruct.Speed = GPIO_SPEED_FREQ_VERY_HIGH;
 8001786:	2303      	movs	r3, #3
 8001788:	623b      	str	r3, [r7, #32]
    GPIO_InitStruct.Alternate = GPIO_AF6_SPI3;
 800178a:	2306      	movs	r3, #6
 800178c:	627b      	str	r3, [r7, #36]	@ 0x24
    HAL_GPIO_Init(GPIOA, &GPIO_InitStruct);
 800178e:	f107 0314 	add.w	r3, r7, #20
 8001792:	4619      	mov	r1, r3
 8001794:	f04f 4090 	mov.w	r0, #1207959552	@ 0x48000000
 8001798:	f001 feb0 	bl	80034fc <HAL_GPIO_Init>

    GPIO_InitStruct.Pin = GPIO_PIN_10|GPIO_PIN_11;
 800179c:	f44f 6340 	mov.w	r3, #3072	@ 0xc00
 80017a0:	617b      	str	r3, [r7, #20]
    GPIO_InitStruct.Mode = GPIO_MODE_AF_PP;
 80017a2:	2302      	movs	r3, #2
 80017a4:	61bb      	str	r3, [r7, #24]
    GPIO_InitStruct.Pull = GPIO_NOPULL;
 80017a6:	2300      	movs	r3, #0
 80017a8:	61fb      	str	r3, [r7, #28]
    GPIO_InitStruct.Speed = GPIO_SPEED_FREQ_VERY_HIGH;
 80017aa:	2303      	movs	r3, #3
 80017ac:	623b      	str	r3, [r7, #32]
    GPIO_InitStruct.Alternate = GPIO_AF6_SPI3;
 80017ae:	2306      	movs	r3, #6
 80017b0:	627b      	str	r3, [r7, #36]	@ 0x24
    HAL_GPIO_Init(GPIOC, &GPIO_InitStruct);
 80017b2:	f107 0314 	add.w	r3, r7, #20
 80017b6:	4619      	mov	r1, r3
 80017b8:	4809      	ldr	r0, [pc, #36]	@ (80017e0 <HAL_SPI_MspInit+0xd0>)
 80017ba:	f001 fe9f 	bl	80034fc <HAL_GPIO_Init>

    /* SPI3 interrupt Init */
    HAL_NVIC_SetPriority(SPI3_IRQn, 0, 0);
 80017be:	2200      	movs	r2, #0
 80017c0:	2100      	movs	r1, #0
 80017c2:	2033      	movs	r0, #51	@ 0x33
 80017c4:	f001 fde5 	bl	8003392 <HAL_NVIC_SetPriority>
    HAL_NVIC_EnableIRQ(SPI3_IRQn);
 80017c8:	2033      	movs	r0, #51	@ 0x33
 80017ca:	f001 fdfe 	bl	80033ca <HAL_NVIC_EnableIRQ>
  /* USER CODE BEGIN SPI3_MspInit 1 */

  /* USER CODE END SPI3_MspInit 1 */
  }

}
 80017ce:	bf00      	nop
 80017d0:	3728      	adds	r7, #40	@ 0x28
 80017d2:	46bd      	mov	sp, r7
 80017d4:	bd80      	pop	{r7, pc}
 80017d6:	bf00      	nop
 80017d8:	40003c00 	.word	0x40003c00
 80017dc:	40021000 	.word	0x40021000
 80017e0:	48000800 	.word	0x48000800

080017e4 <HAL_TIM_Base_MspInit>:
* This function configures the hardware resources used in this example
* @param htim_base: TIM_Base handle pointer
* @retval None
*/
void HAL_TIM_Base_MspInit(TIM_HandleTypeDef* htim_base)
{
 80017e4:	b580      	push	{r7, lr}
 80017e6:	b084      	sub	sp, #16
 80017e8:	af00      	add	r7, sp, #0
 80017ea:	6078      	str	r0, [r7, #4]
  if(htim_base->Instance==TIM1)
 80017ec:	687b      	ldr	r3, [r7, #4]
 80017ee:	681b      	ldr	r3, [r3, #0]
 80017f0:	4a16      	ldr	r2, [pc, #88]	@ (800184c <HAL_TIM_Base_MspInit+0x68>)
 80017f2:	4293      	cmp	r3, r2
 80017f4:	d114      	bne.n	8001820 <HAL_TIM_Base_MspInit+0x3c>
  {
  /* USER CODE BEGIN TIM1_MspInit 0 */

  /* USER CODE END TIM1_MspInit 0 */
    /* Peripheral clock enable */
    __HAL_RCC_TIM1_CLK_ENABLE();
 80017f6:	4b16      	ldr	r3, [pc, #88]	@ (8001850 <HAL_TIM_Base_MspInit+0x6c>)
 80017f8:	6e1b      	ldr	r3, [r3, #96]	@ 0x60
 80017fa:	4a15      	ldr	r2, [pc, #84]	@ (8001850 <HAL_TIM_Base_MspInit+0x6c>)
 80017fc:	f443 6300 	orr.w	r3, r3, #2048	@ 0x800
 8001800:	6613      	str	r3, [r2, #96]	@ 0x60
 8001802:	4b13      	ldr	r3, [pc, #76]	@ (8001850 <HAL_TIM_Base_MspInit+0x6c>)
 8001804:	6e1b      	ldr	r3, [r3, #96]	@ 0x60
 8001806:	f403 6300 	and.w	r3, r3, #2048	@ 0x800
 800180a:	60fb      	str	r3, [r7, #12]
 800180c:	68fb      	ldr	r3, [r7, #12]
    /* TIM1 interrupt Init */
    HAL_NVIC_SetPriority(TIM1_BRK_TIM15_IRQn, 0, 0);
 800180e:	2200      	movs	r2, #0
 8001810:	2100      	movs	r1, #0
 8001812:	2018      	movs	r0, #24
 8001814:	f001 fdbd 	bl	8003392 <HAL_NVIC_SetPriority>
    HAL_NVIC_EnableIRQ(TIM1_BRK_TIM15_IRQn);
 8001818:	2018      	movs	r0, #24
 800181a:	f001 fdd6 	bl	80033ca <HAL_NVIC_EnableIRQ>
  /* USER CODE BEGIN TIM17_MspInit 1 */

  /* USER CODE END TIM17_MspInit 1 */
  }

}
 800181e:	e010      	b.n	8001842 <HAL_TIM_Base_MspInit+0x5e>
  else if(htim_base->Instance==TIM17)
 8001820:	687b      	ldr	r3, [r7, #4]
 8001822:	681b      	ldr	r3, [r3, #0]
 8001824:	4a0b      	ldr	r2, [pc, #44]	@ (8001854 <HAL_TIM_Base_MspInit+0x70>)
 8001826:	4293      	cmp	r3, r2
 8001828:	d10b      	bne.n	8001842 <HAL_TIM_Base_MspInit+0x5e>
    __HAL_RCC_TIM17_CLK_ENABLE();
 800182a:	4b09      	ldr	r3, [pc, #36]	@ (8001850 <HAL_TIM_Base_MspInit+0x6c>)
 800182c:	6e1b      	ldr	r3, [r3, #96]	@ 0x60
 800182e:	4a08      	ldr	r2, [pc, #32]	@ (8001850 <HAL_TIM_Base_MspInit+0x6c>)
 8001830:	f443 2380 	orr.w	r3, r3, #262144	@ 0x40000
 8001834:	6613      	str	r3, [r2, #96]	@ 0x60
 8001836:	4b06      	ldr	r3, [pc, #24]	@ (8001850 <HAL_TIM_Base_MspInit+0x6c>)
 8001838:	6e1b      	ldr	r3, [r3, #96]	@ 0x60
 800183a:	f403 2380 	and.w	r3, r3, #262144	@ 0x40000
 800183e:	60bb      	str	r3, [r7, #8]
 8001840:	68bb      	ldr	r3, [r7, #8]
}
 8001842:	bf00      	nop
 8001844:	3710      	adds	r7, #16
 8001846:	46bd      	mov	sp, r7
 8001848:	bd80      	pop	{r7, pc}
 800184a:	bf00      	nop
 800184c:	40012c00 	.word	0x40012c00
 8001850:	40021000 	.word	0x40021000
 8001854:	40014800 	.word	0x40014800

08001858 <HAL_TIM_Encoder_MspInit>:
* This function configures the hardware resources used in this example
* @param htim_encoder: TIM_Encoder handle pointer
* @retval None
*/
void HAL_TIM_Encoder_MspInit(TIM_HandleTypeDef* htim_encoder)
{
 8001858:	b580      	push	{r7, lr}
 800185a:	b08e      	sub	sp, #56	@ 0x38
 800185c:	af00      	add	r7, sp, #0
 800185e:	6078      	str	r0, [r7, #4]
  GPIO_InitTypeDef GPIO_InitStruct = {0};
 8001860:	f107 0324 	add.w	r3, r7, #36	@ 0x24
 8001864:	2200      	movs	r2, #0
 8001866:	601a      	str	r2, [r3, #0]
 8001868:	605a      	str	r2, [r3, #4]
 800186a:	609a      	str	r2, [r3, #8]
 800186c:	60da      	str	r2, [r3, #12]
 800186e:	611a      	str	r2, [r3, #16]
  if(htim_encoder->Instance==TIM2)
 8001870:	687b      	ldr	r3, [r7, #4]
 8001872:	681b      	ldr	r3, [r3, #0]
 8001874:	f1b3 4f80 	cmp.w	r3, #1073741824	@ 0x40000000
 8001878:	d129      	bne.n	80018ce <HAL_TIM_Encoder_MspInit+0x76>
  {
  /* USER CODE BEGIN TIM2_MspInit 0 */

  /* USER CODE END TIM2_MspInit 0 */
    /* Peripheral clock enable */
    __HAL_RCC_TIM2_CLK_ENABLE();
 800187a:	4b45      	ldr	r3, [pc, #276]	@ (8001990 <HAL_TIM_Encoder_MspInit+0x138>)
 800187c:	6d9b      	ldr	r3, [r3, #88]	@ 0x58
 800187e:	4a44      	ldr	r2, [pc, #272]	@ (8001990 <HAL_TIM_Encoder_MspInit+0x138>)
 8001880:	f043 0301 	orr.w	r3, r3, #1
 8001884:	6593      	str	r3, [r2, #88]	@ 0x58
 8001886:	4b42      	ldr	r3, [pc, #264]	@ (8001990 <HAL_TIM_Encoder_MspInit+0x138>)
 8001888:	6d9b      	ldr	r3, [r3, #88]	@ 0x58
 800188a:	f003 0301 	and.w	r3, r3, #1
 800188e:	623b      	str	r3, [r7, #32]
 8001890:	6a3b      	ldr	r3, [r7, #32]

    __HAL_RCC_GPIOA_CLK_ENABLE();
 8001892:	4b3f      	ldr	r3, [pc, #252]	@ (8001990 <HAL_TIM_Encoder_MspInit+0x138>)
 8001894:	6cdb      	ldr	r3, [r3, #76]	@ 0x4c
 8001896:	4a3e      	ldr	r2, [pc, #248]	@ (8001990 <HAL_TIM_Encoder_MspInit+0x138>)
 8001898:	f043 0301 	orr.w	r3, r3, #1
 800189c:	64d3      	str	r3, [r2, #76]	@ 0x4c
 800189e:	4b3c      	ldr	r3, [pc, #240]	@ (8001990 <HAL_TIM_Encoder_MspInit+0x138>)
 80018a0:	6cdb      	ldr	r3, [r3, #76]	@ 0x4c
 80018a2:	f003 0301 	and.w	r3, r3, #1
 80018a6:	61fb      	str	r3, [r7, #28]
 80018a8:	69fb      	ldr	r3, [r7, #28]
    /**TIM2 GPIO Configuration
    PA0     ------> TIM2_CH1
    PA1     ------> TIM2_CH2
    */
    GPIO_InitStruct.Pin = GPIO_PIN_0|GPIO_PIN_1;
 80018aa:	2303      	movs	r3, #3
 80018ac:	627b      	str	r3, [r7, #36]	@ 0x24
    GPIO_InitStruct.Mode = GPIO_MODE_AF_PP;
 80018ae:	2302      	movs	r3, #2
 80018b0:	62bb      	str	r3, [r7, #40]	@ 0x28
    GPIO_InitStruct.Pull = GPIO_NOPULL;
 80018b2:	2300      	movs	r3, #0
 80018b4:	62fb      	str	r3, [r7, #44]	@ 0x2c
    GPIO_InitStruct.Speed = GPIO_SPEED_FREQ_LOW;
 80018b6:	2300      	movs	r3, #0
 80018b8:	633b      	str	r3, [r7, #48]	@ 0x30
    GPIO_InitStruct.Alternate = GPIO_AF1_TIM2;
 80018ba:	2301      	movs	r3, #1
 80018bc:	637b      	str	r3, [r7, #52]	@ 0x34
    HAL_GPIO_Init(GPIOA, &GPIO_InitStruct);
 80018be:	f107 0324 	add.w	r3, r7, #36	@ 0x24
 80018c2:	4619      	mov	r1, r3
 80018c4:	f04f 4090 	mov.w	r0, #1207959552	@ 0x48000000
 80018c8:	f001 fe18 	bl	80034fc <HAL_GPIO_Init>
  /* USER CODE BEGIN TIM4_MspInit 1 */

  /* USER CODE END TIM4_MspInit 1 */
  }

}
 80018cc:	e05b      	b.n	8001986 <HAL_TIM_Encoder_MspInit+0x12e>
  else if(htim_encoder->Instance==TIM3)
 80018ce:	687b      	ldr	r3, [r7, #4]
 80018d0:	681b      	ldr	r3, [r3, #0]
 80018d2:	4a30      	ldr	r2, [pc, #192]	@ (8001994 <HAL_TIM_Encoder_MspInit+0x13c>)
 80018d4:	4293      	cmp	r3, r2
 80018d6:	d129      	bne.n	800192c <HAL_TIM_Encoder_MspInit+0xd4>
    __HAL_RCC_TIM3_CLK_ENABLE();
 80018d8:	4b2d      	ldr	r3, [pc, #180]	@ (8001990 <HAL_TIM_Encoder_MspInit+0x138>)
 80018da:	6d9b      	ldr	r3, [r3, #88]	@ 0x58
 80018dc:	4a2c      	ldr	r2, [pc, #176]	@ (8001990 <HAL_TIM_Encoder_MspInit+0x138>)
 80018de:	f043 0302 	orr.w	r3, r3, #2
 80018e2:	6593      	str	r3, [r2, #88]	@ 0x58
 80018e4:	4b2a      	ldr	r3, [pc, #168]	@ (8001990 <HAL_TIM_Encoder_MspInit+0x138>)
 80018e6:	6d9b      	ldr	r3, [r3, #88]	@ 0x58
 80018e8:	f003 0302 	and.w	r3, r3, #2
 80018ec:	61bb      	str	r3, [r7, #24]
 80018ee:	69bb      	ldr	r3, [r7, #24]
    __HAL_RCC_GPIOA_CLK_ENABLE();
 80018f0:	4b27      	ldr	r3, [pc, #156]	@ (8001990 <HAL_TIM_Encoder_MspInit+0x138>)
 80018f2:	6cdb      	ldr	r3, [r3, #76]	@ 0x4c
 80018f4:	4a26      	ldr	r2, [pc, #152]	@ (8001990 <HAL_TIM_Encoder_MspInit+0x138>)
 80018f6:	f043 0301 	orr.w	r3, r3, #1
 80018fa:	64d3      	str	r3, [r2, #76]	@ 0x4c
 80018fc:	4b24      	ldr	r3, [pc, #144]	@ (8001990 <HAL_TIM_Encoder_MspInit+0x138>)
 80018fe:	6cdb      	ldr	r3, [r3, #76]	@ 0x4c
 8001900:	f003 0301 	and.w	r3, r3, #1
 8001904:	617b      	str	r3, [r7, #20]
 8001906:	697b      	ldr	r3, [r7, #20]
    GPIO_InitStruct.Pin = GPIO_PIN_6|GPIO_PIN_7;
 8001908:	23c0      	movs	r3, #192	@ 0xc0
 800190a:	627b      	str	r3, [r7, #36]	@ 0x24
    GPIO_InitStruct.Mode = GPIO_MODE_AF_PP;
 800190c:	2302      	movs	r3, #2
 800190e:	62bb      	str	r3, [r7, #40]	@ 0x28
    GPIO_InitStruct.Pull = GPIO_NOPULL;
 8001910:	2300      	movs	r3, #0
 8001912:	62fb      	str	r3, [r7, #44]	@ 0x2c
    GPIO_InitStruct.Speed = GPIO_SPEED_FREQ_LOW;
 8001914:	2300      	movs	r3, #0
 8001916:	633b      	str	r3, [r7, #48]	@ 0x30
    GPIO_InitStruct.Alternate = GPIO_AF2_TIM3;
 8001918:	2302      	movs	r3, #2
 800191a:	637b      	str	r3, [r7, #52]	@ 0x34
    HAL_GPIO_Init(GPIOA, &GPIO_InitStruct);
 800191c:	f107 0324 	add.w	r3, r7, #36	@ 0x24
 8001920:	4619      	mov	r1, r3
 8001922:	f04f 4090 	mov.w	r0, #1207959552	@ 0x48000000
 8001926:	f001 fde9 	bl	80034fc <HAL_GPIO_Init>
}
 800192a:	e02c      	b.n	8001986 <HAL_TIM_Encoder_MspInit+0x12e>
  else if(htim_encoder->Instance==TIM4)
 800192c:	687b      	ldr	r3, [r7, #4]
 800192e:	681b      	ldr	r3, [r3, #0]
 8001930:	4a19      	ldr	r2, [pc, #100]	@ (8001998 <HAL_TIM_Encoder_MspInit+0x140>)
 8001932:	4293      	cmp	r3, r2
 8001934:	d127      	bne.n	8001986 <HAL_TIM_Encoder_MspInit+0x12e>
    __HAL_RCC_TIM4_CLK_ENABLE();
 8001936:	4b16      	ldr	r3, [pc, #88]	@ (8001990 <HAL_TIM_Encoder_MspInit+0x138>)
 8001938:	6d9b      	ldr	r3, [r3, #88]	@ 0x58
 800193a:	4a15      	ldr	r2, [pc, #84]	@ (8001990 <HAL_TIM_Encoder_MspInit+0x138>)
 800193c:	f043 0304 	orr.w	r3, r3, #4
 8001940:	6593      	str	r3, [r2, #88]	@ 0x58
 8001942:	4b13      	ldr	r3, [pc, #76]	@ (8001990 <HAL_TIM_Encoder_MspInit+0x138>)
 8001944:	6d9b      	ldr	r3, [r3, #88]	@ 0x58
 8001946:	f003 0304 	and.w	r3, r3, #4
 800194a:	613b      	str	r3, [r7, #16]
 800194c:	693b      	ldr	r3, [r7, #16]
    __HAL_RCC_GPIOB_CLK_ENABLE();
 800194e:	4b10      	ldr	r3, [pc, #64]	@ (8001990 <HAL_TIM_Encoder_MspInit+0x138>)
 8001950:	6cdb      	ldr	r3, [r3, #76]	@ 0x4c
 8001952:	4a0f      	ldr	r2, [pc, #60]	@ (8001990 <HAL_TIM_Encoder_MspInit+0x138>)
 8001954:	f043 0302 	orr.w	r3, r3, #2
 8001958:	64d3      	str	r3, [r2, #76]	@ 0x4c
 800195a:	4b0d      	ldr	r3, [pc, #52]	@ (8001990 <HAL_TIM_Encoder_MspInit+0x138>)
 800195c:	6cdb      	ldr	r3, [r3, #76]	@ 0x4c
 800195e:	f003 0302 	and.w	r3, r3, #2
 8001962:	60fb      	str	r3, [r7, #12]
 8001964:	68fb      	ldr	r3, [r7, #12]
    GPIO_InitStruct.Pin = GPIO_PIN_6|GPIO_PIN_7;
 8001966:	23c0      	movs	r3, #192	@ 0xc0
 8001968:	627b      	str	r3, [r7, #36]	@ 0x24
    GPIO_InitStruct.Mode = GPIO_MODE_AF_PP;
 800196a:	2302      	movs	r3, #2
 800196c:	62bb      	str	r3, [r7, #40]	@ 0x28
    GPIO_InitStruct.Pull = GPIO_NOPULL;
 800196e:	2300      	movs	r3, #0
 8001970:	62fb      	str	r3, [r7, #44]	@ 0x2c
    GPIO_InitStruct.Speed = GPIO_SPEED_FREQ_LOW;
 8001972:	2300      	movs	r3, #0
 8001974:	633b      	str	r3, [r7, #48]	@ 0x30
    GPIO_InitStruct.Alternate = GPIO_AF2_TIM4;
 8001976:	2302      	movs	r3, #2
 8001978:	637b      	str	r3, [r7, #52]	@ 0x34
    HAL_GPIO_Init(GPIOB, &GPIO_InitStruct);
 800197a:	f107 0324 	add.w	r3, r7, #36	@ 0x24
 800197e:	4619      	mov	r1, r3
 8001980:	4806      	ldr	r0, [pc, #24]	@ (800199c <HAL_TIM_Encoder_MspInit+0x144>)
 8001982:	f001 fdbb 	bl	80034fc <HAL_GPIO_Init>
}
 8001986:	bf00      	nop
 8001988:	3738      	adds	r7, #56	@ 0x38
 800198a:	46bd      	mov	sp, r7
 800198c:	bd80      	pop	{r7, pc}
 800198e:	bf00      	nop
 8001990:	40021000 	.word	0x40021000
 8001994:	40000400 	.word	0x40000400
 8001998:	40000800 	.word	0x40000800
 800199c:	48000400 	.word	0x48000400

080019a0 <HAL_TIM_IC_MspInit>:
* This function configures the hardware resources used in this example
* @param htim_ic: TIM_IC handle pointer
* @retval None
*/
void HAL_TIM_IC_MspInit(TIM_HandleTypeDef* htim_ic)
{
 80019a0:	b580      	push	{r7, lr}
 80019a2:	b08c      	sub	sp, #48	@ 0x30
 80019a4:	af00      	add	r7, sp, #0
 80019a6:	6078      	str	r0, [r7, #4]
  GPIO_InitTypeDef GPIO_InitStruct = {0};
 80019a8:	f107 031c 	add.w	r3, r7, #28
 80019ac:	2200      	movs	r2, #0
 80019ae:	601a      	str	r2, [r3, #0]
 80019b0:	605a      	str	r2, [r3, #4]
 80019b2:	609a      	str	r2, [r3, #8]
 80019b4:	60da      	str	r2, [r3, #12]
 80019b6:	611a      	str	r2, [r3, #16]
  if(htim_ic->Instance==TIM5)
 80019b8:	687b      	ldr	r3, [r7, #4]
 80019ba:	681b      	ldr	r3, [r3, #0]
 80019bc:	4a33      	ldr	r2, [pc, #204]	@ (8001a8c <HAL_TIM_IC_MspInit+0xec>)
 80019be:	4293      	cmp	r3, r2
 80019c0:	d129      	bne.n	8001a16 <HAL_TIM_IC_MspInit+0x76>
  {
  /* USER CODE BEGIN TIM5_MspInit 0 */

  /* USER CODE END TIM5_MspInit 0 */
    /* Peripheral clock enable */
    __HAL_RCC_TIM5_CLK_ENABLE();
 80019c2:	4b33      	ldr	r3, [pc, #204]	@ (8001a90 <HAL_TIM_IC_MspInit+0xf0>)
 80019c4:	6d9b      	ldr	r3, [r3, #88]	@ 0x58
 80019c6:	4a32      	ldr	r2, [pc, #200]	@ (8001a90 <HAL_TIM_IC_MspInit+0xf0>)
 80019c8:	f043 0308 	orr.w	r3, r3, #8
 80019cc:	6593      	str	r3, [r2, #88]	@ 0x58
 80019ce:	4b30      	ldr	r3, [pc, #192]	@ (8001a90 <HAL_TIM_IC_MspInit+0xf0>)
 80019d0:	6d9b      	ldr	r3, [r3, #88]	@ 0x58
 80019d2:	f003 0308 	and.w	r3, r3, #8
 80019d6:	61bb      	str	r3, [r7, #24]
 80019d8:	69bb      	ldr	r3, [r7, #24]

    __HAL_RCC_GPIOA_CLK_ENABLE();
 80019da:	4b2d      	ldr	r3, [pc, #180]	@ (8001a90 <HAL_TIM_IC_MspInit+0xf0>)
 80019dc:	6cdb      	ldr	r3, [r3, #76]	@ 0x4c
 80019de:	4a2c      	ldr	r2, [pc, #176]	@ (8001a90 <HAL_TIM_IC_MspInit+0xf0>)
 80019e0:	f043 0301 	orr.w	r3, r3, #1
 80019e4:	64d3      	str	r3, [r2, #76]	@ 0x4c
 80019e6:	4b2a      	ldr	r3, [pc, #168]	@ (8001a90 <HAL_TIM_IC_MspInit+0xf0>)
 80019e8:	6cdb      	ldr	r3, [r3, #76]	@ 0x4c
 80019ea:	f003 0301 	and.w	r3, r3, #1
 80019ee:	617b      	str	r3, [r7, #20]
 80019f0:	697b      	ldr	r3, [r7, #20]
    /**TIM5 GPIO Configuration
    PA2     ------> TIM5_CH3
    PA3     ------> TIM5_CH4
    */
    GPIO_InitStruct.Pin = GPIO_PIN_2|GPIO_PIN_3;
 80019f2:	230c      	movs	r3, #12
 80019f4:	61fb      	str	r3, [r7, #28]
    GPIO_InitStruct.Mode = GPIO_MODE_AF_PP;
 80019f6:	2302      	movs	r3, #2
 80019f8:	623b      	str	r3, [r7, #32]
    GPIO_InitStruct.Pull = GPIO_NOPULL;
 80019fa:	2300      	movs	r3, #0
 80019fc:	627b      	str	r3, [r7, #36]	@ 0x24
    GPIO_InitStruct.Speed = GPIO_SPEED_FREQ_LOW;
 80019fe:	2300      	movs	r3, #0
 8001a00:	62bb      	str	r3, [r7, #40]	@ 0x28
    GPIO_InitStruct.Alternate = GPIO_AF2_TIM5;
 8001a02:	2302      	movs	r3, #2
 8001a04:	62fb      	str	r3, [r7, #44]	@ 0x2c
    HAL_GPIO_Init(GPIOA, &GPIO_InitStruct);
 8001a06:	f107 031c 	add.w	r3, r7, #28
 8001a0a:	4619      	mov	r1, r3
 8001a0c:	f04f 4090 	mov.w	r0, #1207959552	@ 0x48000000
 8001a10:	f001 fd74 	bl	80034fc <HAL_GPIO_Init>
  /* USER CODE BEGIN TIM15_MspInit 1 */

  /* USER CODE END TIM15_MspInit 1 */
  }

}
 8001a14:	e035      	b.n	8001a82 <HAL_TIM_IC_MspInit+0xe2>
  else if(htim_ic->Instance==TIM15)
 8001a16:	687b      	ldr	r3, [r7, #4]
 8001a18:	681b      	ldr	r3, [r3, #0]
 8001a1a:	4a1e      	ldr	r2, [pc, #120]	@ (8001a94 <HAL_TIM_IC_MspInit+0xf4>)
 8001a1c:	4293      	cmp	r3, r2
 8001a1e:	d130      	bne.n	8001a82 <HAL_TIM_IC_MspInit+0xe2>
    __HAL_RCC_TIM15_CLK_ENABLE();
 8001a20:	4b1b      	ldr	r3, [pc, #108]	@ (8001a90 <HAL_TIM_IC_MspInit+0xf0>)
 8001a22:	6e1b      	ldr	r3, [r3, #96]	@ 0x60
 8001a24:	4a1a      	ldr	r2, [pc, #104]	@ (8001a90 <HAL_TIM_IC_MspInit+0xf0>)
 8001a26:	f443 3380 	orr.w	r3, r3, #65536	@ 0x10000
 8001a2a:	6613      	str	r3, [r2, #96]	@ 0x60
 8001a2c:	4b18      	ldr	r3, [pc, #96]	@ (8001a90 <HAL_TIM_IC_MspInit+0xf0>)
 8001a2e:	6e1b      	ldr	r3, [r3, #96]	@ 0x60
 8001a30:	f403 3380 	and.w	r3, r3, #65536	@ 0x10000
 8001a34:	613b      	str	r3, [r7, #16]
 8001a36:	693b      	ldr	r3, [r7, #16]
    __HAL_RCC_GPIOB_CLK_ENABLE();
 8001a38:	4b15      	ldr	r3, [pc, #84]	@ (8001a90 <HAL_TIM_IC_MspInit+0xf0>)
 8001a3a:	6cdb      	ldr	r3, [r3, #76]	@ 0x4c
 8001a3c:	4a14      	ldr	r2, [pc, #80]	@ (8001a90 <HAL_TIM_IC_MspInit+0xf0>)
 8001a3e:	f043 0302 	orr.w	r3, r3, #2
 8001a42:	64d3      	str	r3, [r2, #76]	@ 0x4c
 8001a44:	4b12      	ldr	r3, [pc, #72]	@ (8001a90 <HAL_TIM_IC_MspInit+0xf0>)
 8001a46:	6cdb      	ldr	r3, [r3, #76]	@ 0x4c
 8001a48:	f003 0302 	and.w	r3, r3, #2
 8001a4c:	60fb      	str	r3, [r7, #12]
 8001a4e:	68fb      	ldr	r3, [r7, #12]
    GPIO_InitStruct.Pin = GPIO_PIN_14|GPIO_PIN_15;
 8001a50:	f44f 4340 	mov.w	r3, #49152	@ 0xc000
 8001a54:	61fb      	str	r3, [r7, #28]
    GPIO_InitStruct.Mode = GPIO_MODE_AF_PP;
 8001a56:	2302      	movs	r3, #2
 8001a58:	623b      	str	r3, [r7, #32]
    GPIO_InitStruct.Pull = GPIO_NOPULL;
 8001a5a:	2300      	movs	r3, #0
 8001a5c:	627b      	str	r3, [r7, #36]	@ 0x24
    GPIO_InitStruct.Speed = GPIO_SPEED_FREQ_LOW;
 8001a5e:	2300      	movs	r3, #0
 8001a60:	62bb      	str	r3, [r7, #40]	@ 0x28
    GPIO_InitStruct.Alternate = GPIO_AF14_TIM15;
 8001a62:	230e      	movs	r3, #14
 8001a64:	62fb      	str	r3, [r7, #44]	@ 0x2c
    HAL_GPIO_Init(GPIOB, &GPIO_InitStruct);
 8001a66:	f107 031c 	add.w	r3, r7, #28
 8001a6a:	4619      	mov	r1, r3
 8001a6c:	480a      	ldr	r0, [pc, #40]	@ (8001a98 <HAL_TIM_IC_MspInit+0xf8>)
 8001a6e:	f001 fd45 	bl	80034fc <HAL_GPIO_Init>
    HAL_NVIC_SetPriority(TIM1_BRK_TIM15_IRQn, 0, 0);
 8001a72:	2200      	movs	r2, #0
 8001a74:	2100      	movs	r1, #0
 8001a76:	2018      	movs	r0, #24
 8001a78:	f001 fc8b 	bl	8003392 <HAL_NVIC_SetPriority>
    HAL_NVIC_EnableIRQ(TIM1_BRK_TIM15_IRQn);
 8001a7c:	2018      	movs	r0, #24
 8001a7e:	f001 fca4 	bl	80033ca <HAL_NVIC_EnableIRQ>
}
 8001a82:	bf00      	nop
 8001a84:	3730      	adds	r7, #48	@ 0x30
 8001a86:	46bd      	mov	sp, r7
 8001a88:	bd80      	pop	{r7, pc}
 8001a8a:	bf00      	nop
 8001a8c:	40000c00 	.word	0x40000c00
 8001a90:	40021000 	.word	0x40021000
 8001a94:	40014000 	.word	0x40014000
 8001a98:	48000400 	.word	0x48000400

08001a9c <HAL_TIM_PWM_MspInit>:
* This function configures the hardware resources used in this example
* @param htim_pwm: TIM_PWM handle pointer
* @retval None
*/
void HAL_TIM_PWM_MspInit(TIM_HandleTypeDef* htim_pwm)
{
 8001a9c:	b480      	push	{r7}
 8001a9e:	b085      	sub	sp, #20
 8001aa0:	af00      	add	r7, sp, #0
 8001aa2:	6078      	str	r0, [r7, #4]
  if(htim_pwm->Instance==TIM8)
 8001aa4:	687b      	ldr	r3, [r7, #4]
 8001aa6:	681b      	ldr	r3, [r3, #0]
 8001aa8:	4a0a      	ldr	r2, [pc, #40]	@ (8001ad4 <HAL_TIM_PWM_MspInit+0x38>)
 8001aaa:	4293      	cmp	r3, r2
 8001aac:	d10b      	bne.n	8001ac6 <HAL_TIM_PWM_MspInit+0x2a>
  {
  /* USER CODE BEGIN TIM8_MspInit 0 */

  /* USER CODE END TIM8_MspInit 0 */
    /* Peripheral clock enable */
    __HAL_RCC_TIM8_CLK_ENABLE();
 8001aae:	4b0a      	ldr	r3, [pc, #40]	@ (8001ad8 <HAL_TIM_PWM_MspInit+0x3c>)
 8001ab0:	6e1b      	ldr	r3, [r3, #96]	@ 0x60
 8001ab2:	4a09      	ldr	r2, [pc, #36]	@ (8001ad8 <HAL_TIM_PWM_MspInit+0x3c>)
 8001ab4:	f443 5300 	orr.w	r3, r3, #8192	@ 0x2000
 8001ab8:	6613      	str	r3, [r2, #96]	@ 0x60
 8001aba:	4b07      	ldr	r3, [pc, #28]	@ (8001ad8 <HAL_TIM_PWM_MspInit+0x3c>)
 8001abc:	6e1b      	ldr	r3, [r3, #96]	@ 0x60
 8001abe:	f403 5300 	and.w	r3, r3, #8192	@ 0x2000
 8001ac2:	60fb      	str	r3, [r7, #12]
 8001ac4:	68fb      	ldr	r3, [r7, #12]
  /* USER CODE BEGIN TIM8_MspInit 1 */

  /* USER CODE END TIM8_MspInit 1 */
  }

}
 8001ac6:	bf00      	nop
 8001ac8:	3714      	adds	r7, #20
 8001aca:	46bd      	mov	sp, r7
 8001acc:	f85d 7b04 	ldr.w	r7, [sp], #4
 8001ad0:	4770      	bx	lr
 8001ad2:	bf00      	nop
 8001ad4:	40013400 	.word	0x40013400
 8001ad8:	40021000 	.word	0x40021000

08001adc <HAL_TIM_MspPostInit>:

void HAL_TIM_MspPostInit(TIM_HandleTypeDef* htim)
{
 8001adc:	b580      	push	{r7, lr}
 8001ade:	b08a      	sub	sp, #40	@ 0x28
 8001ae0:	af00      	add	r7, sp, #0
 8001ae2:	6078      	str	r0, [r7, #4]
  GPIO_InitTypeDef GPIO_InitStruct = {0};
 8001ae4:	f107 0314 	add.w	r3, r7, #20
 8001ae8:	2200      	movs	r2, #0
 8001aea:	601a      	str	r2, [r3, #0]
 8001aec:	605a      	str	r2, [r3, #4]
 8001aee:	609a      	str	r2, [r3, #8]
 8001af0:	60da      	str	r2, [r3, #12]
 8001af2:	611a      	str	r2, [r3, #16]
  if(htim->Instance==TIM1)
 8001af4:	687b      	ldr	r3, [r7, #4]
 8001af6:	681b      	ldr	r3, [r3, #0]
 8001af8:	4a23      	ldr	r2, [pc, #140]	@ (8001b88 <HAL_TIM_MspPostInit+0xac>)
 8001afa:	4293      	cmp	r3, r2
 8001afc:	d11e      	bne.n	8001b3c <HAL_TIM_MspPostInit+0x60>
  {
  /* USER CODE BEGIN TIM1_MspPostInit 0 */

  /* USER CODE END TIM1_MspPostInit 0 */
    __HAL_RCC_GPIOA_CLK_ENABLE();
 8001afe:	4b23      	ldr	r3, [pc, #140]	@ (8001b8c <HAL_TIM_MspPostInit+0xb0>)
 8001b00:	6cdb      	ldr	r3, [r3, #76]	@ 0x4c
 8001b02:	4a22      	ldr	r2, [pc, #136]	@ (8001b8c <HAL_TIM_MspPostInit+0xb0>)
 8001b04:	f043 0301 	orr.w	r3, r3, #1
 8001b08:	64d3      	str	r3, [r2, #76]	@ 0x4c
 8001b0a:	4b20      	ldr	r3, [pc, #128]	@ (8001b8c <HAL_TIM_MspPostInit+0xb0>)
 8001b0c:	6cdb      	ldr	r3, [r3, #76]	@ 0x4c
 8001b0e:	f003 0301 	and.w	r3, r3, #1
 8001b12:	613b      	str	r3, [r7, #16]
 8001b14:	693b      	ldr	r3, [r7, #16]
    PA8     ------> TIM1_CH1
    PA9     ------> TIM1_CH2
    PA10     ------> TIM1_CH3
    PA11     ------> TIM1_CH4
    */
    GPIO_InitStruct.Pin = GPIO_PIN_8|GPIO_PIN_9|GPIO_PIN_10|GPIO_PIN_11;
 8001b16:	f44f 6370 	mov.w	r3, #3840	@ 0xf00
 8001b1a:	617b      	str	r3, [r7, #20]
    GPIO_InitStruct.Mode = GPIO_MODE_AF_PP;
 8001b1c:	2302      	movs	r3, #2
 8001b1e:	61bb      	str	r3, [r7, #24]
    GPIO_InitStruct.Pull = GPIO_NOPULL;
 8001b20:	2300      	movs	r3, #0
 8001b22:	61fb      	str	r3, [r7, #28]
    GPIO_InitStruct.Speed = GPIO_SPEED_FREQ_LOW;
 8001b24:	2300      	movs	r3, #0
 8001b26:	623b      	str	r3, [r7, #32]
    GPIO_InitStruct.Alternate = GPIO_AF1_TIM1;
 8001b28:	2301      	movs	r3, #1
 8001b2a:	627b      	str	r3, [r7, #36]	@ 0x24
    HAL_GPIO_Init(GPIOA, &GPIO_InitStruct);
 8001b2c:	f107 0314 	add.w	r3, r7, #20
 8001b30:	4619      	mov	r1, r3
 8001b32:	f04f 4090 	mov.w	r0, #1207959552	@ 0x48000000
 8001b36:	f001 fce1 	bl	80034fc <HAL_GPIO_Init>
  /* USER CODE BEGIN TIM8_MspPostInit 1 */

  /* USER CODE END TIM8_MspPostInit 1 */
  }

}
 8001b3a:	e021      	b.n	8001b80 <HAL_TIM_MspPostInit+0xa4>
  else if(htim->Instance==TIM8)
 8001b3c:	687b      	ldr	r3, [r7, #4]
 8001b3e:	681b      	ldr	r3, [r3, #0]
 8001b40:	4a13      	ldr	r2, [pc, #76]	@ (8001b90 <HAL_TIM_MspPostInit+0xb4>)
 8001b42:	4293      	cmp	r3, r2
 8001b44:	d11c      	bne.n	8001b80 <HAL_TIM_MspPostInit+0xa4>
    __HAL_RCC_GPIOC_CLK_ENABLE();
 8001b46:	4b11      	ldr	r3, [pc, #68]	@ (8001b8c <HAL_TIM_MspPostInit+0xb0>)
 8001b48:	6cdb      	ldr	r3, [r3, #76]	@ 0x4c
 8001b4a:	4a10      	ldr	r2, [pc, #64]	@ (8001b8c <HAL_TIM_MspPostInit+0xb0>)
 8001b4c:	f043 0304 	orr.w	r3, r3, #4
 8001b50:	64d3      	str	r3, [r2, #76]	@ 0x4c
 8001b52:	4b0e      	ldr	r3, [pc, #56]	@ (8001b8c <HAL_TIM_MspPostInit+0xb0>)
 8001b54:	6cdb      	ldr	r3, [r3, #76]	@ 0x4c
 8001b56:	f003 0304 	and.w	r3, r3, #4
 8001b5a:	60fb      	str	r3, [r7, #12]
 8001b5c:	68fb      	ldr	r3, [r7, #12]
    GPIO_InitStruct.Pin = GPIO_PIN_6|GPIO_PIN_7|GPIO_PIN_8|GPIO_PIN_9;
 8001b5e:	f44f 7370 	mov.w	r3, #960	@ 0x3c0
 8001b62:	617b      	str	r3, [r7, #20]
    GPIO_InitStruct.Mode = GPIO_MODE_AF_PP;
 8001b64:	2302      	movs	r3, #2
 8001b66:	61bb      	str	r3, [r7, #24]
    GPIO_InitStruct.Pull = GPIO_NOPULL;
 8001b68:	2300      	movs	r3, #0
 8001b6a:	61fb      	str	r3, [r7, #28]
    GPIO_InitStruct.Speed = GPIO_SPEED_FREQ_LOW;
 8001b6c:	2300      	movs	r3, #0
 8001b6e:	623b      	str	r3, [r7, #32]
    GPIO_InitStruct.Alternate = GPIO_AF3_TIM8;
 8001b70:	2303      	movs	r3, #3
 8001b72:	627b      	str	r3, [r7, #36]	@ 0x24
    HAL_GPIO_Init(GPIOC, &GPIO_InitStruct);
 8001b74:	f107 0314 	add.w	r3, r7, #20
 8001b78:	4619      	mov	r1, r3
 8001b7a:	4806      	ldr	r0, [pc, #24]	@ (8001b94 <HAL_TIM_MspPostInit+0xb8>)
 8001b7c:	f001 fcbe 	bl	80034fc <HAL_GPIO_Init>
}
 8001b80:	bf00      	nop
 8001b82:	3728      	adds	r7, #40	@ 0x28
 8001b84:	46bd      	mov	sp, r7
 8001b86:	bd80      	pop	{r7, pc}
 8001b88:	40012c00 	.word	0x40012c00
 8001b8c:	40021000 	.word	0x40021000
 8001b90:	40013400 	.word	0x40013400
 8001b94:	48000800 	.word	0x48000800

08001b98 <HAL_UART_MspInit>:
* This function configures the hardware resources used in this example
* @param huart: UART handle pointer
* @retval None
*/
void HAL_UART_MspInit(UART_HandleTypeDef* huart)
{
 8001b98:	b580      	push	{r7, lr}
 8001b9a:	b0aa      	sub	sp, #168	@ 0xa8
 8001b9c:	af00      	add	r7, sp, #0
 8001b9e:	6078      	str	r0, [r7, #4]
  GPIO_InitTypeDef GPIO_InitStruct = {0};
 8001ba0:	f107 0394 	add.w	r3, r7, #148	@ 0x94
 8001ba4:	2200      	movs	r2, #0
 8001ba6:	601a      	str	r2, [r3, #0]
 8001ba8:	605a      	str	r2, [r3, #4]
 8001baa:	609a      	str	r2, [r3, #8]
 8001bac:	60da      	str	r2, [r3, #12]
 8001bae:	611a      	str	r2, [r3, #16]
  RCC_PeriphCLKInitTypeDef PeriphClkInit = {0};
 8001bb0:	f107 0310 	add.w	r3, r7, #16
 8001bb4:	2284      	movs	r2, #132	@ 0x84
 8001bb6:	2100      	movs	r1, #0
 8001bb8:	4618      	mov	r0, r3
 8001bba:	f006 fe83 	bl	80088c4 <memset>
  if(huart->Instance==USART3)
 8001bbe:	687b      	ldr	r3, [r7, #4]
 8001bc0:	681b      	ldr	r3, [r3, #0]
 8001bc2:	4a25      	ldr	r2, [pc, #148]	@ (8001c58 <HAL_UART_MspInit+0xc0>)
 8001bc4:	4293      	cmp	r3, r2
 8001bc6:	d142      	bne.n	8001c4e <HAL_UART_MspInit+0xb6>

  /* USER CODE END USART3_MspInit 0 */

  /** Initializes the peripherals clock
  */
    PeriphClkInit.PeriphClockSelection = RCC_PERIPHCLK_USART3;
 8001bc8:	2304      	movs	r3, #4
 8001bca:	613b      	str	r3, [r7, #16]
    PeriphClkInit.Usart3ClockSelection = RCC_USART3CLKSOURCE_PCLK1;
 8001bcc:	2300      	movs	r3, #0
 8001bce:	653b      	str	r3, [r7, #80]	@ 0x50
    if (HAL_RCCEx_PeriphCLKConfig(&PeriphClkInit) != HAL_OK)
 8001bd0:	f107 0310 	add.w	r3, r7, #16
 8001bd4:	4618      	mov	r0, r3
 8001bd6:	f002 fde9 	bl	80047ac <HAL_RCCEx_PeriphCLKConfig>
 8001bda:	4603      	mov	r3, r0
 8001bdc:	2b00      	cmp	r3, #0
 8001bde:	d001      	beq.n	8001be4 <HAL_UART_MspInit+0x4c>
    {
      Error_Handler();
 8001be0:	f7ff fc38 	bl	8001454 <Error_Handler>
    }

    /* Peripheral clock enable */
    __HAL_RCC_USART3_CLK_ENABLE();
 8001be4:	4b1d      	ldr	r3, [pc, #116]	@ (8001c5c <HAL_UART_MspInit+0xc4>)
 8001be6:	6d9b      	ldr	r3, [r3, #88]	@ 0x58
 8001be8:	4a1c      	ldr	r2, [pc, #112]	@ (8001c5c <HAL_UART_MspInit+0xc4>)
 8001bea:	f443 2380 	orr.w	r3, r3, #262144	@ 0x40000
 8001bee:	6593      	str	r3, [r2, #88]	@ 0x58
 8001bf0:	4b1a      	ldr	r3, [pc, #104]	@ (8001c5c <HAL_UART_MspInit+0xc4>)
 8001bf2:	6d9b      	ldr	r3, [r3, #88]	@ 0x58
 8001bf4:	f403 2380 	and.w	r3, r3, #262144	@ 0x40000
 8001bf8:	60fb      	str	r3, [r7, #12]
 8001bfa:	68fb      	ldr	r3, [r7, #12]

    __HAL_RCC_GPIOC_CLK_ENABLE();
 8001bfc:	4b17      	ldr	r3, [pc, #92]	@ (8001c5c <HAL_UART_MspInit+0xc4>)
 8001bfe:	6cdb      	ldr	r3, [r3, #76]	@ 0x4c
 8001c00:	4a16      	ldr	r2, [pc, #88]	@ (8001c5c <HAL_UART_MspInit+0xc4>)
 8001c02:	f043 0304 	orr.w	r3, r3, #4
 8001c06:	64d3      	str	r3, [r2, #76]	@ 0x4c
 8001c08:	4b14      	ldr	r3, [pc, #80]	@ (8001c5c <HAL_UART_MspInit+0xc4>)
 8001c0a:	6cdb      	ldr	r3, [r3, #76]	@ 0x4c
 8001c0c:	f003 0304 	and.w	r3, r3, #4
 8001c10:	60bb      	str	r3, [r7, #8]
 8001c12:	68bb      	ldr	r3, [r7, #8]
    /**USART3 GPIO Configuration
    PC4     ------> USART3_TX
    PC5     ------> USART3_RX
    */
    GPIO_InitStruct.Pin = GPIO_PIN_4|GPIO_PIN_5;
 8001c14:	2330      	movs	r3, #48	@ 0x30
 8001c16:	f8c7 3094 	str.w	r3, [r7, #148]	@ 0x94
    GPIO_InitStruct.Mode = GPIO_MODE_AF_PP;
 8001c1a:	2302      	movs	r3, #2
 8001c1c:	f8c7 3098 	str.w	r3, [r7, #152]	@ 0x98
    GPIO_InitStruct.Pull = GPIO_NOPULL;
 8001c20:	2300      	movs	r3, #0
 8001c22:	f8c7 309c 	str.w	r3, [r7, #156]	@ 0x9c
    GPIO_InitStruct.Speed = GPIO_SPEED_FREQ_VERY_HIGH;
 8001c26:	2303      	movs	r3, #3
 8001c28:	f8c7 30a0 	str.w	r3, [r7, #160]	@ 0xa0
    GPIO_InitStruct.Alternate = GPIO_AF7_USART3;
 8001c2c:	2307      	movs	r3, #7
 8001c2e:	f8c7 30a4 	str.w	r3, [r7, #164]	@ 0xa4
    HAL_GPIO_Init(GPIOC, &GPIO_InitStruct);
 8001c32:	f107 0394 	add.w	r3, r7, #148	@ 0x94
 8001c36:	4619      	mov	r1, r3
 8001c38:	4809      	ldr	r0, [pc, #36]	@ (8001c60 <HAL_UART_MspInit+0xc8>)
 8001c3a:	f001 fc5f 	bl	80034fc <HAL_GPIO_Init>

    /* USART3 interrupt Init */
    HAL_NVIC_SetPriority(USART3_IRQn, 0, 0);
 8001c3e:	2200      	movs	r2, #0
 8001c40:	2100      	movs	r1, #0
 8001c42:	2027      	movs	r0, #39	@ 0x27
 8001c44:	f001 fba5 	bl	8003392 <HAL_NVIC_SetPriority>
    HAL_NVIC_EnableIRQ(USART3_IRQn);
 8001c48:	2027      	movs	r0, #39	@ 0x27
 8001c4a:	f001 fbbe 	bl	80033ca <HAL_NVIC_EnableIRQ>
  /* USER CODE BEGIN USART3_MspInit 1 */

  /* USER CODE END USART3_MspInit 1 */
  }

}
 8001c4e:	bf00      	nop
 8001c50:	37a8      	adds	r7, #168	@ 0xa8
 8001c52:	46bd      	mov	sp, r7
 8001c54:	bd80      	pop	{r7, pc}
 8001c56:	bf00      	nop
 8001c58:	40004800 	.word	0x40004800
 8001c5c:	40021000 	.word	0x40021000
 8001c60:	48000800 	.word	0x48000800

08001c64 <NMI_Handler>:
/******************************************************************************/
/**
  * @brief This function handles Non maskable interrupt.
  */
void NMI_Handler(void)
{
 8001c64:	b480      	push	{r7}
 8001c66:	af00      	add	r7, sp, #0
  /* USER CODE BEGIN NonMaskableInt_IRQn 0 */

  /* USER CODE END NonMaskableInt_IRQn 0 */
  /* USER CODE BEGIN NonMaskableInt_IRQn 1 */
   while (1)
 8001c68:	bf00      	nop
 8001c6a:	e7fd      	b.n	8001c68 <NMI_Handler+0x4>

08001c6c <HardFault_Handler>:

/**
  * @brief This function handles Hard fault interrupt.
  */
void HardFault_Handler(void)
{
 8001c6c:	b480      	push	{r7}
 8001c6e:	af00      	add	r7, sp, #0
  /* USER CODE BEGIN HardFault_IRQn 0 */

  /* USER CODE END HardFault_IRQn 0 */
  while (1)
 8001c70:	bf00      	nop
 8001c72:	e7fd      	b.n	8001c70 <HardFault_Handler+0x4>

08001c74 <MemManage_Handler>:

/**
  * @brief This function handles Memory management fault.
  */
void MemManage_Handler(void)
{
 8001c74:	b480      	push	{r7}
 8001c76:	af00      	add	r7, sp, #0
  /* USER CODE BEGIN MemoryManagement_IRQn 0 */

  /* USER CODE END MemoryManagement_IRQn 0 */
  while (1)
 8001c78:	bf00      	nop
 8001c7a:	e7fd      	b.n	8001c78 <MemManage_Handler+0x4>

08001c7c <BusFault_Handler>:

/**
  * @brief This function handles Prefetch fault, memory access fault.
  */
void BusFault_Handler(void)
{
 8001c7c:	b480      	push	{r7}
 8001c7e:	af00      	add	r7, sp, #0
  /* USER CODE BEGIN BusFault_IRQn 0 */

  /* USER CODE END BusFault_IRQn 0 */
  while (1)
 8001c80:	bf00      	nop
 8001c82:	e7fd      	b.n	8001c80 <BusFault_Handler+0x4>

08001c84 <UsageFault_Handler>:

/**
  * @brief This function handles Undefined instruction or illegal state.
  */
void UsageFault_Handler(void)
{
 8001c84:	b480      	push	{r7}
 8001c86:	af00      	add	r7, sp, #0
  /* USER CODE BEGIN UsageFault_IRQn 0 */

  /* USER CODE END UsageFault_IRQn 0 */
  while (1)
 8001c88:	bf00      	nop
 8001c8a:	e7fd      	b.n	8001c88 <UsageFault_Handler+0x4>

08001c8c <SVC_Handler>:

/**
  * @brief This function handles System service call via SWI instruction.
  */
void SVC_Handler(void)
{
 8001c8c:	b480      	push	{r7}
 8001c8e:	af00      	add	r7, sp, #0

  /* USER CODE END SVCall_IRQn 0 */
  /* USER CODE BEGIN SVCall_IRQn 1 */

  /* USER CODE END SVCall_IRQn 1 */
}
 8001c90:	bf00      	nop
 8001c92:	46bd      	mov	sp, r7
 8001c94:	f85d 7b04 	ldr.w	r7, [sp], #4
 8001c98:	4770      	bx	lr

08001c9a <DebugMon_Handler>:

/**
  * @brief This function handles Debug monitor.
  */
void DebugMon_Handler(void)
{
 8001c9a:	b480      	push	{r7}
 8001c9c:	af00      	add	r7, sp, #0

  /* USER CODE END DebugMonitor_IRQn 0 */
  /* USER CODE BEGIN DebugMonitor_IRQn 1 */

  /* USER CODE END DebugMonitor_IRQn 1 */
}
 8001c9e:	bf00      	nop
 8001ca0:	46bd      	mov	sp, r7
 8001ca2:	f85d 7b04 	ldr.w	r7, [sp], #4
 8001ca6:	4770      	bx	lr

08001ca8 <PendSV_Handler>:

/**
  * @brief This function handles Pendable request for system service.
  */
void PendSV_Handler(void)
{
 8001ca8:	b480      	push	{r7}
 8001caa:	af00      	add	r7, sp, #0

  /* USER CODE END PendSV_IRQn 0 */
  /* USER CODE BEGIN PendSV_IRQn 1 */

  /* USER CODE END PendSV_IRQn 1 */
}
 8001cac:	bf00      	nop
 8001cae:	46bd      	mov	sp, r7
 8001cb0:	f85d 7b04 	ldr.w	r7, [sp], #4
 8001cb4:	4770      	bx	lr

08001cb6 <SysTick_Handler>:

/**
  * @brief This function handles System tick timer.
  */
void SysTick_Handler(void)
{
 8001cb6:	b580      	push	{r7, lr}
 8001cb8:	af00      	add	r7, sp, #0
  /* USER CODE BEGIN SysTick_IRQn 0 */

  /* USER CODE END SysTick_IRQn 0 */
  HAL_IncTick();
 8001cba:	f000 f955 	bl	8001f68 <HAL_IncTick>
  /* USER CODE BEGIN SysTick_IRQn 1 */

  /* USER CODE END SysTick_IRQn 1 */
}
 8001cbe:	bf00      	nop
 8001cc0:	bd80      	pop	{r7, pc}

08001cc2 <RCC_IRQHandler>:

/**
  * @brief This function handles RCC global interrupt.
  */
void RCC_IRQHandler(void)
{
 8001cc2:	b480      	push	{r7}
 8001cc4:	af00      	add	r7, sp, #0

  /* USER CODE END RCC_IRQn 0 */
  /* USER CODE BEGIN RCC_IRQn 1 */

  /* USER CODE END RCC_IRQn 1 */
}
 8001cc6:	bf00      	nop
 8001cc8:	46bd      	mov	sp, r7
 8001cca:	f85d 7b04 	ldr.w	r7, [sp], #4
 8001cce:	4770      	bx	lr

08001cd0 <TIM1_BRK_TIM15_IRQHandler>:

/**
  * @brief This function handles TIM1 break interrupt and TIM15 global interrupt.
  */
void TIM1_BRK_TIM15_IRQHandler(void)
{
 8001cd0:	b580      	push	{r7, lr}
 8001cd2:	af00      	add	r7, sp, #0
  /* USER CODE BEGIN TIM1_BRK_TIM15_IRQn 0 */

  /* USER CODE END TIM1_BRK_TIM15_IRQn 0 */
  HAL_TIM_IRQHandler(&htim1);
 8001cd4:	4803      	ldr	r0, [pc, #12]	@ (8001ce4 <TIM1_BRK_TIM15_IRQHandler+0x14>)
 8001cd6:	f004 f857 	bl	8005d88 <HAL_TIM_IRQHandler>
  HAL_TIM_IRQHandler(&htim15);
 8001cda:	4803      	ldr	r0, [pc, #12]	@ (8001ce8 <TIM1_BRK_TIM15_IRQHandler+0x18>)
 8001cdc:	f004 f854 	bl	8005d88 <HAL_TIM_IRQHandler>
  /* USER CODE BEGIN TIM1_BRK_TIM15_IRQn 1 */

  /* USER CODE END TIM1_BRK_TIM15_IRQn 1 */
}
 8001ce0:	bf00      	nop
 8001ce2:	bd80      	pop	{r7, pc}
 8001ce4:	2000020c 	.word	0x2000020c
 8001ce8:	200003d4 	.word	0x200003d4

08001cec <USART3_IRQHandler>:

/**
  * @brief This function handles USART3 global interrupt.
  */
void USART3_IRQHandler(void)
{
 8001cec:	b580      	push	{r7, lr}
 8001cee:	af00      	add	r7, sp, #0
  /* USER CODE BEGIN USART3_IRQn 0 */

  /* USER CODE END USART3_IRQn 0 */
  HAL_UART_IRQHandler(&huart3);
 8001cf0:	4802      	ldr	r0, [pc, #8]	@ (8001cfc <USART3_IRQHandler+0x10>)
 8001cf2:	f005 fb43 	bl	800737c <HAL_UART_IRQHandler>
  /* USER CODE BEGIN USART3_IRQn 1 */

  /* USER CODE END USART3_IRQn 1 */
}
 8001cf6:	bf00      	nop
 8001cf8:	bd80      	pop	{r7, pc}
 8001cfa:	bf00      	nop
 8001cfc:	2000046c 	.word	0x2000046c

08001d00 <SPI3_IRQHandler>:

/**
  * @brief This function handles SPI3 global interrupt.
  */
void SPI3_IRQHandler(void)
{
 8001d00:	b580      	push	{r7, lr}
 8001d02:	af00      	add	r7, sp, #0
  /* USER CODE BEGIN SPI3_IRQn 0 */

  /* USER CODE END SPI3_IRQn 0 */
  HAL_SPI_IRQHandler(&hspi3);
 8001d04:	4802      	ldr	r0, [pc, #8]	@ (8001d10 <SPI3_IRQHandler+0x10>)
 8001d06:	f003 fa81 	bl	800520c <HAL_SPI_IRQHandler>
  /* USER CODE BEGIN SPI3_IRQn 1 */

  /* USER CODE END SPI3_IRQn 1 */
}
 8001d0a:	bf00      	nop
 8001d0c:	bd80      	pop	{r7, pc}
 8001d0e:	bf00      	nop
 8001d10:	200001a8 	.word	0x200001a8

08001d14 <SystemInit>:
 8001d14:	b480      	push	{r7}
 8001d16:	af00      	add	r7, sp, #0
 8001d18:	4b06      	ldr	r3, [pc, #24]	@ (8001d34 <SystemInit+0x20>)
 8001d1a:	f8d3 3088 	ldr.w	r3, [r3, #136]	@ 0x88
 8001d1e:	4a05      	ldr	r2, [pc, #20]	@ (8001d34 <SystemInit+0x20>)
 8001d20:	f443 0370 	orr.w	r3, r3, #15728640	@ 0xf00000
 8001d24:	f8c2 3088 	str.w	r3, [r2, #136]	@ 0x88
 8001d28:	bf00      	nop
 8001d2a:	46bd      	mov	sp, r7
 8001d2c:	f85d 7b04 	ldr.w	r7, [sp], #4
 8001d30:	4770      	bx	lr
 8001d32:	bf00      	nop
 8001d34:	e000ed00 	.word	0xe000ed00

08001d38 <task3_run>:

uint8_t Buffer[9]; //Buffer received via UART

//Task 3 state machine: OPENMV Camera
void task3_run(uint8_t* State,float* Distance_Target,float* Angle_Target,uint8_t* SPI_Rec,
		uint8_t* Follow,uint8_t* OpenMV,UART_HandleTypeDef UART3){
 8001d38:	b580      	push	{r7, lr}
 8001d3a:	b084      	sub	sp, #16
 8001d3c:	af00      	add	r7, sp, #0
 8001d3e:	60f8      	str	r0, [r7, #12]
 8001d40:	60b9      	str	r1, [r7, #8]
 8001d42:	607a      	str	r2, [r7, #4]
 8001d44:	603b      	str	r3, [r7, #0]

	while(1){
			switch(*State){
 8001d46:	68fb      	ldr	r3, [r7, #12]
 8001d48:	781b      	ldrb	r3, [r3, #0]
 8001d4a:	2b03      	cmp	r3, #3
 8001d4c:	d8fb      	bhi.n	8001d46 <task3_run+0xe>
 8001d4e:	a201      	add	r2, pc, #4	@ (adr r2, 8001d54 <task3_run+0x1c>)
 8001d50:	f852 f023 	ldr.w	pc, [r2, r3, lsl #2]
 8001d54:	08001d65 	.word	0x08001d65
 8001d58:	08001d6d 	.word	0x08001d6d
 8001d5c:	08001daf 	.word	0x08001daf
 8001d60:	08001dcb 	.word	0x08001dcb

			case 0:
				//State 0: INIT

				*State = 1;
 8001d64:	68fb      	ldr	r3, [r7, #12]
 8001d66:	2201      	movs	r2, #1
 8001d68:	701a      	strb	r2, [r3, #0]
				break;
 8001d6a:	e073      	b.n	8001e54 <task3_run+0x11c>

			case 1:
				//State 1: Flag Check

				//If we are in follow mode and OpenMV mode, then
				if((*Follow==1)&&(*OpenMV==1)){
 8001d6c:	69bb      	ldr	r3, [r7, #24]
 8001d6e:	781b      	ldrb	r3, [r3, #0]
 8001d70:	2b01      	cmp	r3, #1
 8001d72:	d117      	bne.n	8001da4 <task3_run+0x6c>
 8001d74:	69fb      	ldr	r3, [r7, #28]
 8001d76:	781b      	ldrb	r3, [r3, #0]
 8001d78:	2b01      	cmp	r3, #1
 8001d7a:	d113      	bne.n	8001da4 <task3_run+0x6c>
					if(*SPI_Rec==0){
 8001d7c:	683b      	ldr	r3, [r7, #0]
 8001d7e:	781b      	ldrb	r3, [r3, #0]
 8001d80:	2b00      	cmp	r3, #0
 8001d82:	d10b      	bne.n	8001d9c <task3_run+0x64>
						if (Req == 0){
 8001d84:	4b34      	ldr	r3, [pc, #208]	@ (8001e58 <task3_run+0x120>)
 8001d86:	781b      	ldrb	r3, [r3, #0]
 8001d88:	2b00      	cmp	r3, #0
 8001d8a:	d103      	bne.n	8001d94 <task3_run+0x5c>
							//If we have not requested data yet, request
							*State = 2; //Next State Receive Data
 8001d8c:	68fb      	ldr	r3, [r7, #12]
 8001d8e:	2202      	movs	r2, #2
 8001d90:	701a      	strb	r2, [r3, #0]
					if(*SPI_Rec==0){
 8001d92:	e00b      	b.n	8001dac <task3_run+0x74>
						}
						else{
							*State = 1; //Otherwise stay in this state
 8001d94:	68fb      	ldr	r3, [r7, #12]
 8001d96:	2201      	movs	r2, #1
 8001d98:	701a      	strb	r2, [r3, #0]
					if(*SPI_Rec==0){
 8001d9a:	e007      	b.n	8001dac <task3_run+0x74>
						}

					}
					else{
						*State = 3; //If we already received data, process it
 8001d9c:	68fb      	ldr	r3, [r7, #12]
 8001d9e:	2203      	movs	r2, #3
 8001da0:	701a      	strb	r2, [r3, #0]
					if(*SPI_Rec==0){
 8001da2:	e003      	b.n	8001dac <task3_run+0x74>
					}
				}
				else{
					*State = 1;
 8001da4:	68fb      	ldr	r3, [r7, #12]
 8001da6:	2201      	movs	r2, #1
 8001da8:	701a      	strb	r2, [r3, #0]
				}

				break;
 8001daa:	e053      	b.n	8001e54 <task3_run+0x11c>
 8001dac:	e052      	b.n	8001e54 <task3_run+0x11c>

			case 2:
				//State 2: Receive Data

				HAL_UART_Receive_IT(&UART3, Buffer, 9);
 8001dae:	f107 0320 	add.w	r3, r7, #32
 8001db2:	2209      	movs	r2, #9
 8001db4:	4929      	ldr	r1, [pc, #164]	@ (8001e5c <task3_run+0x124>)
 8001db6:	4618      	mov	r0, r3
 8001db8:	f005 fa94 	bl	80072e4 <HAL_UART_Receive_IT>

				Req = 1;
 8001dbc:	4b26      	ldr	r3, [pc, #152]	@ (8001e58 <task3_run+0x120>)
 8001dbe:	2201      	movs	r2, #1
 8001dc0:	701a      	strb	r2, [r3, #0]

				//*SPI_Rec = 1;

				*State = 1; //Go back to flag check and wait for receive
 8001dc2:	68fb      	ldr	r3, [r7, #12]
 8001dc4:	2201      	movs	r2, #1
 8001dc6:	701a      	strb	r2, [r3, #0]

				break;
 8001dc8:	e044      	b.n	8001e54 <task3_run+0x11c>


			case 3:
				//State 3: Process Data
				//Convert buffer data to ints. First part of buffer should be distance, second part angle
				Dummy  = Buffer[0];
 8001dca:	4b24      	ldr	r3, [pc, #144]	@ (8001e5c <task3_run+0x124>)
 8001dcc:	781a      	ldrb	r2, [r3, #0]
 8001dce:	4b24      	ldr	r3, [pc, #144]	@ (8001e60 <task3_run+0x128>)
 8001dd0:	701a      	strb	r2, [r3, #0]
				if (Dummy == 85){
 8001dd2:	4b23      	ldr	r3, [pc, #140]	@ (8001e60 <task3_run+0x128>)
 8001dd4:	781b      	ldrb	r3, [r3, #0]
 8001dd6:	2b55      	cmp	r3, #85	@ 0x55
 8001dd8:	d131      	bne.n	8001e3e <task3_run+0x106>
					//If we received usable data, then update setpoints
					Distance_Int = (int32_t)(Buffer[1] << 24 | Buffer[2] << 16 | Buffer[3] << 8 |Buffer[4] );
 8001dda:	4b20      	ldr	r3, [pc, #128]	@ (8001e5c <task3_run+0x124>)
 8001ddc:	785b      	ldrb	r3, [r3, #1]
 8001dde:	061a      	lsls	r2, r3, #24
 8001de0:	4b1e      	ldr	r3, [pc, #120]	@ (8001e5c <task3_run+0x124>)
 8001de2:	789b      	ldrb	r3, [r3, #2]
 8001de4:	041b      	lsls	r3, r3, #16
 8001de6:	431a      	orrs	r2, r3
 8001de8:	4b1c      	ldr	r3, [pc, #112]	@ (8001e5c <task3_run+0x124>)
 8001dea:	78db      	ldrb	r3, [r3, #3]
 8001dec:	021b      	lsls	r3, r3, #8
 8001dee:	4313      	orrs	r3, r2
 8001df0:	4a1a      	ldr	r2, [pc, #104]	@ (8001e5c <task3_run+0x124>)
 8001df2:	7912      	ldrb	r2, [r2, #4]
 8001df4:	4313      	orrs	r3, r2
 8001df6:	4a1b      	ldr	r2, [pc, #108]	@ (8001e64 <task3_run+0x12c>)
 8001df8:	6013      	str	r3, [r2, #0]
					Angle_Int = (int32_t)(Buffer[5] << 24 | Buffer[6] << 16 | Buffer[7] << 8 |Buffer[8] );
 8001dfa:	4b18      	ldr	r3, [pc, #96]	@ (8001e5c <task3_run+0x124>)
 8001dfc:	795b      	ldrb	r3, [r3, #5]
 8001dfe:	061a      	lsls	r2, r3, #24
 8001e00:	4b16      	ldr	r3, [pc, #88]	@ (8001e5c <task3_run+0x124>)
 8001e02:	799b      	ldrb	r3, [r3, #6]
 8001e04:	041b      	lsls	r3, r3, #16
 8001e06:	431a      	orrs	r2, r3
 8001e08:	4b14      	ldr	r3, [pc, #80]	@ (8001e5c <task3_run+0x124>)
 8001e0a:	79db      	ldrb	r3, [r3, #7]
 8001e0c:	021b      	lsls	r3, r3, #8
 8001e0e:	4313      	orrs	r3, r2
 8001e10:	4a12      	ldr	r2, [pc, #72]	@ (8001e5c <task3_run+0x124>)
 8001e12:	7a12      	ldrb	r2, [r2, #8]
 8001e14:	4313      	orrs	r3, r2
 8001e16:	4a14      	ldr	r2, [pc, #80]	@ (8001e68 <task3_run+0x130>)
 8001e18:	6013      	str	r3, [r2, #0]

					// Convert to float (assuming the data was sent as 32-bit floats)
					*Distance_Target = (float)Distance_Int;
 8001e1a:	4b12      	ldr	r3, [pc, #72]	@ (8001e64 <task3_run+0x12c>)
 8001e1c:	681b      	ldr	r3, [r3, #0]
 8001e1e:	ee07 3a90 	vmov	s15, r3
 8001e22:	eef8 7ae7 	vcvt.f32.s32	s15, s15
 8001e26:	68bb      	ldr	r3, [r7, #8]
 8001e28:	edc3 7a00 	vstr	s15, [r3]
					*Angle_Target = (float)Angle_Int;
 8001e2c:	4b0e      	ldr	r3, [pc, #56]	@ (8001e68 <task3_run+0x130>)
 8001e2e:	681b      	ldr	r3, [r3, #0]
 8001e30:	ee07 3a90 	vmov	s15, r3
 8001e34:	eef8 7ae7 	vcvt.f32.s32	s15, s15
 8001e38:	687b      	ldr	r3, [r7, #4]
 8001e3a:	edc3 7a00 	vstr	s15, [r3]
				}



				//Once data is fully processed, return to state 1 and reset recieve flag
				*SPI_Rec = 0;
 8001e3e:	683b      	ldr	r3, [r7, #0]
 8001e40:	2200      	movs	r2, #0
 8001e42:	701a      	strb	r2, [r3, #0]
				*State = 1;
 8001e44:	68fb      	ldr	r3, [r7, #12]
 8001e46:	2201      	movs	r2, #1
 8001e48:	701a      	strb	r2, [r3, #0]
				Req = 0; //Reset Request
 8001e4a:	4b03      	ldr	r3, [pc, #12]	@ (8001e58 <task3_run+0x120>)
 8001e4c:	2200      	movs	r2, #0
 8001e4e:	701a      	strb	r2, [r3, #0]

				break;
 8001e50:	bf00      	nop
 8001e52:	e778      	b.n	8001d46 <task3_run+0xe>
			switch(*State){
 8001e54:	e777      	b.n	8001d46 <task3_run+0xe>
 8001e56:	bf00      	nop
 8001e58:	20000518 	.word	0x20000518
 8001e5c:	2000051c 	.word	0x2000051c
 8001e60:	20000519 	.word	0x20000519
 8001e64:	20000510 	.word	0x20000510
 8001e68:	20000514 	.word	0x20000514

08001e6c <Reset_Handler>:
 8001e6c:	f8df d034 	ldr.w	sp, [pc, #52]	@ 8001ea4 <LoopForever+0x2>
 8001e70:	f7ff ff50 	bl	8001d14 <SystemInit>
 8001e74:	480c      	ldr	r0, [pc, #48]	@ (8001ea8 <LoopForever+0x6>)
 8001e76:	490d      	ldr	r1, [pc, #52]	@ (8001eac <LoopForever+0xa>)
 8001e78:	4a0d      	ldr	r2, [pc, #52]	@ (8001eb0 <LoopForever+0xe>)
 8001e7a:	2300      	movs	r3, #0
 8001e7c:	e002      	b.n	8001e84 <LoopCopyDataInit>

08001e7e <CopyDataInit>:
 8001e7e:	58d4      	ldr	r4, [r2, r3]
 8001e80:	50c4      	str	r4, [r0, r3]
 8001e82:	3304      	adds	r3, #4

08001e84 <LoopCopyDataInit>:
 8001e84:	18c4      	adds	r4, r0, r3
 8001e86:	428c      	cmp	r4, r1
 8001e88:	d3f9      	bcc.n	8001e7e <CopyDataInit>
 8001e8a:	4a0a      	ldr	r2, [pc, #40]	@ (8001eb4 <LoopForever+0x12>)
 8001e8c:	4c0a      	ldr	r4, [pc, #40]	@ (8001eb8 <LoopForever+0x16>)
 8001e8e:	2300      	movs	r3, #0
 8001e90:	e001      	b.n	8001e96 <LoopFillZerobss>

08001e92 <FillZerobss>:
 8001e92:	6013      	str	r3, [r2, #0]
 8001e94:	3204      	adds	r2, #4

08001e96 <LoopFillZerobss>:
 8001e96:	42a2      	cmp	r2, r4
 8001e98:	d3fb      	bcc.n	8001e92 <FillZerobss>
 8001e9a:	f006 fd1b 	bl	80088d4 <__libc_init_array>
 8001e9e:	f7fe fb0b 	bl	80004b8 <main>

08001ea2 <LoopForever>:
 8001ea2:	e7fe      	b.n	8001ea2 <LoopForever>
 8001ea4:	20018000 	.word	0x20018000
 8001ea8:	20000000 	.word	0x20000000
 8001eac:	2000000c 	.word	0x2000000c
 8001eb0:	080089a8 	.word	0x080089a8
 8001eb4:	2000000c 	.word	0x2000000c
 8001eb8:	2000052c 	.word	0x2000052c

08001ebc <ADC1_2_IRQHandler>:
 8001ebc:	e7fe      	b.n	8001ebc <ADC1_2_IRQHandler>

08001ebe <HAL_Init>:
 8001ebe:	b580      	push	{r7, lr}
 8001ec0:	b082      	sub	sp, #8
 8001ec2:	af00      	add	r7, sp, #0
 8001ec4:	2300      	movs	r3, #0
 8001ec6:	71fb      	strb	r3, [r7, #7]
 8001ec8:	2003      	movs	r0, #3
 8001eca:	f001 fa57 	bl	800337c <HAL_NVIC_SetPriorityGrouping>
 8001ece:	200f      	movs	r0, #15
 8001ed0:	f000 f80e 	bl	8001ef0 <HAL_InitTick>
 8001ed4:	4603      	mov	r3, r0
 8001ed6:	2b00      	cmp	r3, #0
 8001ed8:	d002      	beq.n	8001ee0 <HAL_Init+0x22>
 8001eda:	2301      	movs	r3, #1
 8001edc:	71fb      	strb	r3, [r7, #7]
 8001ede:	e001      	b.n	8001ee4 <HAL_Init+0x26>
 8001ee0:	f7ff fac0 	bl	8001464 <HAL_MspInit>
 8001ee4:	79fb      	ldrb	r3, [r7, #7]
 8001ee6:	4618      	mov	r0, r3
 8001ee8:	3708      	adds	r7, #8
 8001eea:	46bd      	mov	sp, r7
 8001eec:	bd80      	pop	{r7, pc}
	...

08001ef0 <HAL_InitTick>:
 8001ef0:	b580      	push	{r7, lr}
 8001ef2:	b084      	sub	sp, #16
 8001ef4:	af00      	add	r7, sp, #0
 8001ef6:	6078      	str	r0, [r7, #4]
 8001ef8:	2300      	movs	r3, #0
 8001efa:	73fb      	strb	r3, [r7, #15]
 8001efc:	4b17      	ldr	r3, [pc, #92]	@ (8001f5c <HAL_InitTick+0x6c>)
 8001efe:	781b      	ldrb	r3, [r3, #0]
 8001f00:	2b00      	cmp	r3, #0
 8001f02:	d023      	beq.n	8001f4c <HAL_InitTick+0x5c>
 8001f04:	4b16      	ldr	r3, [pc, #88]	@ (8001f60 <HAL_InitTick+0x70>)
 8001f06:	681a      	ldr	r2, [r3, #0]
 8001f08:	4b14      	ldr	r3, [pc, #80]	@ (8001f5c <HAL_InitTick+0x6c>)
 8001f0a:	781b      	ldrb	r3, [r3, #0]
 8001f0c:	4619      	mov	r1, r3
 8001f0e:	f44f 737a 	mov.w	r3, #1000	@ 0x3e8
 8001f12:	fbb3 f3f1 	udiv	r3, r3, r1
 8001f16:	fbb2 f3f3 	udiv	r3, r2, r3
 8001f1a:	4618      	mov	r0, r3
 8001f1c:	f001 fa63 	bl	80033e6 <HAL_SYSTICK_Config>
 8001f20:	4603      	mov	r3, r0
 8001f22:	2b00      	cmp	r3, #0
 8001f24:	d10f      	bne.n	8001f46 <HAL_InitTick+0x56>
 8001f26:	687b      	ldr	r3, [r7, #4]
 8001f28:	2b0f      	cmp	r3, #15
 8001f2a:	d809      	bhi.n	8001f40 <HAL_InitTick+0x50>
 8001f2c:	2200      	movs	r2, #0
 8001f2e:	6879      	ldr	r1, [r7, #4]
 8001f30:	f04f 30ff 	mov.w	r0, #4294967295
 8001f34:	f001 fa2d 	bl	8003392 <HAL_NVIC_SetPriority>
 8001f38:	4a0a      	ldr	r2, [pc, #40]	@ (8001f64 <HAL_InitTick+0x74>)
 8001f3a:	687b      	ldr	r3, [r7, #4]
 8001f3c:	6013      	str	r3, [r2, #0]
 8001f3e:	e007      	b.n	8001f50 <HAL_InitTick+0x60>
 8001f40:	2301      	movs	r3, #1
 8001f42:	73fb      	strb	r3, [r7, #15]
 8001f44:	e004      	b.n	8001f50 <HAL_InitTick+0x60>
 8001f46:	2301      	movs	r3, #1
 8001f48:	73fb      	strb	r3, [r7, #15]
 8001f4a:	e001      	b.n	8001f50 <HAL_InitTick+0x60>
 8001f4c:	2301      	movs	r3, #1
 8001f4e:	73fb      	strb	r3, [r7, #15]
 8001f50:	7bfb      	ldrb	r3, [r7, #15]
 8001f52:	4618      	mov	r0, r3
 8001f54:	3710      	adds	r7, #16
 8001f56:	46bd      	mov	sp, r7
 8001f58:	bd80      	pop	{r7, pc}
 8001f5a:	bf00      	nop
 8001f5c:	20000008 	.word	0x20000008
 8001f60:	20000000 	.word	0x20000000
 8001f64:	20000004 	.word	0x20000004

08001f68 <HAL_IncTick>:
 8001f68:	b480      	push	{r7}
 8001f6a:	af00      	add	r7, sp, #0
 8001f6c:	4b06      	ldr	r3, [pc, #24]	@ (8001f88 <HAL_IncTick+0x20>)
 8001f6e:	781b      	ldrb	r3, [r3, #0]
 8001f70:	461a      	mov	r2, r3
 8001f72:	4b06      	ldr	r3, [pc, #24]	@ (8001f8c <HAL_IncTick+0x24>)
 8001f74:	681b      	ldr	r3, [r3, #0]
 8001f76:	4413      	add	r3, r2
 8001f78:	4a04      	ldr	r2, [pc, #16]	@ (8001f8c <HAL_IncTick+0x24>)
 8001f7a:	6013      	str	r3, [r2, #0]
 8001f7c:	bf00      	nop
 8001f7e:	46bd      	mov	sp, r7
 8001f80:	f85d 7b04 	ldr.w	r7, [sp], #4
 8001f84:	4770      	bx	lr
 8001f86:	bf00      	nop
 8001f88:	20000008 	.word	0x20000008
 8001f8c:	20000528 	.word	0x20000528

08001f90 <HAL_GetTick>:
 8001f90:	b480      	push	{r7}
 8001f92:	af00      	add	r7, sp, #0
 8001f94:	4b03      	ldr	r3, [pc, #12]	@ (8001fa4 <HAL_GetTick+0x14>)
 8001f96:	681b      	ldr	r3, [r3, #0]
 8001f98:	4618      	mov	r0, r3
 8001f9a:	46bd      	mov	sp, r7
 8001f9c:	f85d 7b04 	ldr.w	r7, [sp], #4
 8001fa0:	4770      	bx	lr
 8001fa2:	bf00      	nop
 8001fa4:	20000528 	.word	0x20000528

08001fa8 <LL_ADC_SetCommonClock>:
 8001fa8:	b480      	push	{r7}
 8001faa:	b083      	sub	sp, #12
 8001fac:	af00      	add	r7, sp, #0
 8001fae:	6078      	str	r0, [r7, #4]
 8001fb0:	6039      	str	r1, [r7, #0]
 8001fb2:	687b      	ldr	r3, [r7, #4]
 8001fb4:	689b      	ldr	r3, [r3, #8]
 8001fb6:	f423 127c 	bic.w	r2, r3, #4128768	@ 0x3f0000
 8001fba:	683b      	ldr	r3, [r7, #0]
 8001fbc:	431a      	orrs	r2, r3
 8001fbe:	687b      	ldr	r3, [r7, #4]
 8001fc0:	609a      	str	r2, [r3, #8]
 8001fc2:	bf00      	nop
 8001fc4:	370c      	adds	r7, #12
 8001fc6:	46bd      	mov	sp, r7
 8001fc8:	f85d 7b04 	ldr.w	r7, [sp], #4
 8001fcc:	4770      	bx	lr

08001fce <LL_ADC_SetCommonPathInternalCh>:
 8001fce:	b480      	push	{r7}
 8001fd0:	b083      	sub	sp, #12
 8001fd2:	af00      	add	r7, sp, #0
 8001fd4:	6078      	str	r0, [r7, #4]
 8001fd6:	6039      	str	r1, [r7, #0]
 8001fd8:	687b      	ldr	r3, [r7, #4]
 8001fda:	689b      	ldr	r3, [r3, #8]
 8001fdc:	f023 72e0 	bic.w	r2, r3, #29360128	@ 0x1c00000
 8001fe0:	683b      	ldr	r3, [r7, #0]
 8001fe2:	431a      	orrs	r2, r3
 8001fe4:	687b      	ldr	r3, [r7, #4]
 8001fe6:	609a      	str	r2, [r3, #8]
 8001fe8:	bf00      	nop
 8001fea:	370c      	adds	r7, #12
 8001fec:	46bd      	mov	sp, r7
 8001fee:	f85d 7b04 	ldr.w	r7, [sp], #4
 8001ff2:	4770      	bx	lr

08001ff4 <LL_ADC_GetCommonPathInternalCh>:
 8001ff4:	b480      	push	{r7}
 8001ff6:	b083      	sub	sp, #12
 8001ff8:	af00      	add	r7, sp, #0
 8001ffa:	6078      	str	r0, [r7, #4]
 8001ffc:	687b      	ldr	r3, [r7, #4]
 8001ffe:	689b      	ldr	r3, [r3, #8]
 8002000:	f003 73e0 	and.w	r3, r3, #29360128	@ 0x1c00000
 8002004:	4618      	mov	r0, r3
 8002006:	370c      	adds	r7, #12
 8002008:	46bd      	mov	sp, r7
 800200a:	f85d 7b04 	ldr.w	r7, [sp], #4
 800200e:	4770      	bx	lr

08002010 <LL_ADC_SetOffset>:
 8002010:	b480      	push	{r7}
 8002012:	b087      	sub	sp, #28
 8002014:	af00      	add	r7, sp, #0
 8002016:	60f8      	str	r0, [r7, #12]
 8002018:	60b9      	str	r1, [r7, #8]
 800201a:	607a      	str	r2, [r7, #4]
 800201c:	603b      	str	r3, [r7, #0]
 800201e:	68fb      	ldr	r3, [r7, #12]
 8002020:	3360      	adds	r3, #96	@ 0x60
 8002022:	461a      	mov	r2, r3
 8002024:	68bb      	ldr	r3, [r7, #8]
 8002026:	009b      	lsls	r3, r3, #2
 8002028:	4413      	add	r3, r2
 800202a:	617b      	str	r3, [r7, #20]
 800202c:	697b      	ldr	r3, [r7, #20]
 800202e:	681a      	ldr	r2, [r3, #0]
 8002030:	4b08      	ldr	r3, [pc, #32]	@ (8002054 <LL_ADC_SetOffset+0x44>)
 8002032:	4013      	ands	r3, r2
 8002034:	687a      	ldr	r2, [r7, #4]
 8002036:	f002 41f8 	and.w	r1, r2, #2080374784	@ 0x7c000000
 800203a:	683a      	ldr	r2, [r7, #0]
 800203c:	430a      	orrs	r2, r1
 800203e:	4313      	orrs	r3, r2
 8002040:	f043 4200 	orr.w	r2, r3, #2147483648	@ 0x80000000
 8002044:	697b      	ldr	r3, [r7, #20]
 8002046:	601a      	str	r2, [r3, #0]
 8002048:	bf00      	nop
 800204a:	371c      	adds	r7, #28
 800204c:	46bd      	mov	sp, r7
 800204e:	f85d 7b04 	ldr.w	r7, [sp], #4
 8002052:	4770      	bx	lr
 8002054:	03fff000 	.word	0x03fff000

08002058 <LL_ADC_GetOffsetChannel>:
 8002058:	b480      	push	{r7}
 800205a:	b085      	sub	sp, #20
 800205c:	af00      	add	r7, sp, #0
 800205e:	6078      	str	r0, [r7, #4]
 8002060:	6039      	str	r1, [r7, #0]
 8002062:	687b      	ldr	r3, [r7, #4]
 8002064:	3360      	adds	r3, #96	@ 0x60
 8002066:	461a      	mov	r2, r3
 8002068:	683b      	ldr	r3, [r7, #0]
 800206a:	009b      	lsls	r3, r3, #2
 800206c:	4413      	add	r3, r2
 800206e:	60fb      	str	r3, [r7, #12]
 8002070:	68fb      	ldr	r3, [r7, #12]
 8002072:	681b      	ldr	r3, [r3, #0]
 8002074:	f003 43f8 	and.w	r3, r3, #2080374784	@ 0x7c000000
 8002078:	4618      	mov	r0, r3
 800207a:	3714      	adds	r7, #20
 800207c:	46bd      	mov	sp, r7
 800207e:	f85d 7b04 	ldr.w	r7, [sp], #4
 8002082:	4770      	bx	lr

08002084 <LL_ADC_SetOffsetState>:
 8002084:	b480      	push	{r7}
 8002086:	b087      	sub	sp, #28
 8002088:	af00      	add	r7, sp, #0
 800208a:	60f8      	str	r0, [r7, #12]
 800208c:	60b9      	str	r1, [r7, #8]
 800208e:	607a      	str	r2, [r7, #4]
 8002090:	68fb      	ldr	r3, [r7, #12]
 8002092:	3360      	adds	r3, #96	@ 0x60
 8002094:	461a      	mov	r2, r3
 8002096:	68bb      	ldr	r3, [r7, #8]
 8002098:	009b      	lsls	r3, r3, #2
 800209a:	4413      	add	r3, r2
 800209c:	617b      	str	r3, [r7, #20]
 800209e:	697b      	ldr	r3, [r7, #20]
 80020a0:	681b      	ldr	r3, [r3, #0]
 80020a2:	f023 4200 	bic.w	r2, r3, #2147483648	@ 0x80000000
 80020a6:	687b      	ldr	r3, [r7, #4]
 80020a8:	431a      	orrs	r2, r3
 80020aa:	697b      	ldr	r3, [r7, #20]
 80020ac:	601a      	str	r2, [r3, #0]
 80020ae:	bf00      	nop
 80020b0:	371c      	adds	r7, #28
 80020b2:	46bd      	mov	sp, r7
 80020b4:	f85d 7b04 	ldr.w	r7, [sp], #4
 80020b8:	4770      	bx	lr

080020ba <LL_ADC_REG_SetSequencerRanks>:
 80020ba:	b480      	push	{r7}
 80020bc:	b087      	sub	sp, #28
 80020be:	af00      	add	r7, sp, #0
 80020c0:	60f8      	str	r0, [r7, #12]
 80020c2:	60b9      	str	r1, [r7, #8]
 80020c4:	607a      	str	r2, [r7, #4]
 80020c6:	68fb      	ldr	r3, [r7, #12]
 80020c8:	3330      	adds	r3, #48	@ 0x30
 80020ca:	461a      	mov	r2, r3
 80020cc:	68bb      	ldr	r3, [r7, #8]
 80020ce:	0a1b      	lsrs	r3, r3, #8
 80020d0:	009b      	lsls	r3, r3, #2
 80020d2:	f003 030c 	and.w	r3, r3, #12
 80020d6:	4413      	add	r3, r2
 80020d8:	617b      	str	r3, [r7, #20]
 80020da:	697b      	ldr	r3, [r7, #20]
 80020dc:	681a      	ldr	r2, [r3, #0]
 80020de:	68bb      	ldr	r3, [r7, #8]
 80020e0:	f003 031f 	and.w	r3, r3, #31
 80020e4:	211f      	movs	r1, #31
 80020e6:	fa01 f303 	lsl.w	r3, r1, r3
 80020ea:	43db      	mvns	r3, r3
 80020ec:	401a      	ands	r2, r3
 80020ee:	687b      	ldr	r3, [r7, #4]
 80020f0:	0e9b      	lsrs	r3, r3, #26
 80020f2:	f003 011f 	and.w	r1, r3, #31
 80020f6:	68bb      	ldr	r3, [r7, #8]
 80020f8:	f003 031f 	and.w	r3, r3, #31
 80020fc:	fa01 f303 	lsl.w	r3, r1, r3
 8002100:	431a      	orrs	r2, r3
 8002102:	697b      	ldr	r3, [r7, #20]
 8002104:	601a      	str	r2, [r3, #0]
 8002106:	bf00      	nop
 8002108:	371c      	adds	r7, #28
 800210a:	46bd      	mov	sp, r7
 800210c:	f85d 7b04 	ldr.w	r7, [sp], #4
 8002110:	4770      	bx	lr

08002112 <LL_ADC_SetChannelSamplingTime>:
 8002112:	b480      	push	{r7}
 8002114:	b087      	sub	sp, #28
 8002116:	af00      	add	r7, sp, #0
 8002118:	60f8      	str	r0, [r7, #12]
 800211a:	60b9      	str	r1, [r7, #8]
 800211c:	607a      	str	r2, [r7, #4]
 800211e:	68fb      	ldr	r3, [r7, #12]
 8002120:	3314      	adds	r3, #20
 8002122:	461a      	mov	r2, r3
 8002124:	68bb      	ldr	r3, [r7, #8]
 8002126:	0e5b      	lsrs	r3, r3, #25
 8002128:	009b      	lsls	r3, r3, #2
 800212a:	f003 0304 	and.w	r3, r3, #4
 800212e:	4413      	add	r3, r2
 8002130:	617b      	str	r3, [r7, #20]
 8002132:	697b      	ldr	r3, [r7, #20]
 8002134:	681a      	ldr	r2, [r3, #0]
 8002136:	68bb      	ldr	r3, [r7, #8]
 8002138:	0d1b      	lsrs	r3, r3, #20
 800213a:	f003 031f 	and.w	r3, r3, #31
 800213e:	2107      	movs	r1, #7
 8002140:	fa01 f303 	lsl.w	r3, r1, r3
 8002144:	43db      	mvns	r3, r3
 8002146:	401a      	ands	r2, r3
 8002148:	68bb      	ldr	r3, [r7, #8]
 800214a:	0d1b      	lsrs	r3, r3, #20
 800214c:	f003 031f 	and.w	r3, r3, #31
 8002150:	6879      	ldr	r1, [r7, #4]
 8002152:	fa01 f303 	lsl.w	r3, r1, r3
 8002156:	431a      	orrs	r2, r3
 8002158:	697b      	ldr	r3, [r7, #20]
 800215a:	601a      	str	r2, [r3, #0]
 800215c:	bf00      	nop
 800215e:	371c      	adds	r7, #28
 8002160:	46bd      	mov	sp, r7
 8002162:	f85d 7b04 	ldr.w	r7, [sp], #4
 8002166:	4770      	bx	lr

08002168 <LL_ADC_SetChannelSingleDiff>:
 8002168:	b480      	push	{r7}
 800216a:	b085      	sub	sp, #20
 800216c:	af00      	add	r7, sp, #0
 800216e:	60f8      	str	r0, [r7, #12]
 8002170:	60b9      	str	r1, [r7, #8]
 8002172:	607a      	str	r2, [r7, #4]
 8002174:	68fb      	ldr	r3, [r7, #12]
 8002176:	f8d3 20b0 	ldr.w	r2, [r3, #176]	@ 0xb0
 800217a:	68bb      	ldr	r3, [r7, #8]
 800217c:	f3c3 0312 	ubfx	r3, r3, #0, #19
 8002180:	43db      	mvns	r3, r3
 8002182:	401a      	ands	r2, r3
 8002184:	687b      	ldr	r3, [r7, #4]
 8002186:	f003 0318 	and.w	r3, r3, #24
 800218a:	4908      	ldr	r1, [pc, #32]	@ (80021ac <LL_ADC_SetChannelSingleDiff+0x44>)
 800218c:	40d9      	lsrs	r1, r3
 800218e:	68bb      	ldr	r3, [r7, #8]
 8002190:	400b      	ands	r3, r1
 8002192:	f3c3 0312 	ubfx	r3, r3, #0, #19
 8002196:	431a      	orrs	r2, r3
 8002198:	68fb      	ldr	r3, [r7, #12]
 800219a:	f8c3 20b0 	str.w	r2, [r3, #176]	@ 0xb0
 800219e:	bf00      	nop
 80021a0:	3714      	adds	r7, #20
 80021a2:	46bd      	mov	sp, r7
 80021a4:	f85d 7b04 	ldr.w	r7, [sp], #4
 80021a8:	4770      	bx	lr
 80021aa:	bf00      	nop
 80021ac:	0007ffff 	.word	0x0007ffff

080021b0 <LL_ADC_GetMultimode>:
 80021b0:	b480      	push	{r7}
 80021b2:	b083      	sub	sp, #12
 80021b4:	af00      	add	r7, sp, #0
 80021b6:	6078      	str	r0, [r7, #4]
 80021b8:	687b      	ldr	r3, [r7, #4]
 80021ba:	689b      	ldr	r3, [r3, #8]
 80021bc:	f003 031f 	and.w	r3, r3, #31
 80021c0:	4618      	mov	r0, r3
 80021c2:	370c      	adds	r7, #12
 80021c4:	46bd      	mov	sp, r7
 80021c6:	f85d 7b04 	ldr.w	r7, [sp], #4
 80021ca:	4770      	bx	lr

080021cc <LL_ADC_DisableDeepPowerDown>:
 80021cc:	b480      	push	{r7}
 80021ce:	b083      	sub	sp, #12
 80021d0:	af00      	add	r7, sp, #0
 80021d2:	6078      	str	r0, [r7, #4]
 80021d4:	687b      	ldr	r3, [r7, #4]
 80021d6:	689b      	ldr	r3, [r3, #8]
 80021d8:	f023 4320 	bic.w	r3, r3, #2684354560	@ 0xa0000000
 80021dc:	f023 033f 	bic.w	r3, r3, #63	@ 0x3f
 80021e0:	687a      	ldr	r2, [r7, #4]
 80021e2:	6093      	str	r3, [r2, #8]
 80021e4:	bf00      	nop
 80021e6:	370c      	adds	r7, #12
 80021e8:	46bd      	mov	sp, r7
 80021ea:	f85d 7b04 	ldr.w	r7, [sp], #4
 80021ee:	4770      	bx	lr

080021f0 <LL_ADC_IsDeepPowerDownEnabled>:
 80021f0:	b480      	push	{r7}
 80021f2:	b083      	sub	sp, #12
 80021f4:	af00      	add	r7, sp, #0
 80021f6:	6078      	str	r0, [r7, #4]
 80021f8:	687b      	ldr	r3, [r7, #4]
 80021fa:	689b      	ldr	r3, [r3, #8]
 80021fc:	f003 5300 	and.w	r3, r3, #536870912	@ 0x20000000
 8002200:	f1b3 5f00 	cmp.w	r3, #536870912	@ 0x20000000
 8002204:	d101      	bne.n	800220a <LL_ADC_IsDeepPowerDownEnabled+0x1a>
 8002206:	2301      	movs	r3, #1
 8002208:	e000      	b.n	800220c <LL_ADC_IsDeepPowerDownEnabled+0x1c>
 800220a:	2300      	movs	r3, #0
 800220c:	4618      	mov	r0, r3
 800220e:	370c      	adds	r7, #12
 8002210:	46bd      	mov	sp, r7
 8002212:	f85d 7b04 	ldr.w	r7, [sp], #4
 8002216:	4770      	bx	lr

08002218 <LL_ADC_EnableInternalRegulator>:
 8002218:	b480      	push	{r7}
 800221a:	b083      	sub	sp, #12
 800221c:	af00      	add	r7, sp, #0
 800221e:	6078      	str	r0, [r7, #4]
 8002220:	687b      	ldr	r3, [r7, #4]
 8002222:	689b      	ldr	r3, [r3, #8]
 8002224:	f023 4310 	bic.w	r3, r3, #2415919104	@ 0x90000000
 8002228:	f023 033f 	bic.w	r3, r3, #63	@ 0x3f
 800222c:	f043 5280 	orr.w	r2, r3, #268435456	@ 0x10000000
 8002230:	687b      	ldr	r3, [r7, #4]
 8002232:	609a      	str	r2, [r3, #8]
 8002234:	bf00      	nop
 8002236:	370c      	adds	r7, #12
 8002238:	46bd      	mov	sp, r7
 800223a:	f85d 7b04 	ldr.w	r7, [sp], #4
 800223e:	4770      	bx	lr

08002240 <LL_ADC_IsInternalRegulatorEnabled>:
 8002240:	b480      	push	{r7}
 8002242:	b083      	sub	sp, #12
 8002244:	af00      	add	r7, sp, #0
 8002246:	6078      	str	r0, [r7, #4]
 8002248:	687b      	ldr	r3, [r7, #4]
 800224a:	689b      	ldr	r3, [r3, #8]
 800224c:	f003 5380 	and.w	r3, r3, #268435456	@ 0x10000000
 8002250:	f1b3 5f80 	cmp.w	r3, #268435456	@ 0x10000000
 8002254:	d101      	bne.n	800225a <LL_ADC_IsInternalRegulatorEnabled+0x1a>
 8002256:	2301      	movs	r3, #1
 8002258:	e000      	b.n	800225c <LL_ADC_IsInternalRegulatorEnabled+0x1c>
 800225a:	2300      	movs	r3, #0
 800225c:	4618      	mov	r0, r3
 800225e:	370c      	adds	r7, #12
 8002260:	46bd      	mov	sp, r7
 8002262:	f85d 7b04 	ldr.w	r7, [sp], #4
 8002266:	4770      	bx	lr

08002268 <LL_ADC_Enable>:
 8002268:	b480      	push	{r7}
 800226a:	b083      	sub	sp, #12
 800226c:	af00      	add	r7, sp, #0
 800226e:	6078      	str	r0, [r7, #4]
 8002270:	687b      	ldr	r3, [r7, #4]
 8002272:	689b      	ldr	r3, [r3, #8]
 8002274:	f023 4300 	bic.w	r3, r3, #2147483648	@ 0x80000000
 8002278:	f023 033f 	bic.w	r3, r3, #63	@ 0x3f
 800227c:	f043 0201 	orr.w	r2, r3, #1
 8002280:	687b      	ldr	r3, [r7, #4]
 8002282:	609a      	str	r2, [r3, #8]
 8002284:	bf00      	nop
 8002286:	370c      	adds	r7, #12
 8002288:	46bd      	mov	sp, r7
 800228a:	f85d 7b04 	ldr.w	r7, [sp], #4
 800228e:	4770      	bx	lr

08002290 <LL_ADC_IsEnabled>:
 8002290:	b480      	push	{r7}
 8002292:	b083      	sub	sp, #12
 8002294:	af00      	add	r7, sp, #0
 8002296:	6078      	str	r0, [r7, #4]
 8002298:	687b      	ldr	r3, [r7, #4]
 800229a:	689b      	ldr	r3, [r3, #8]
 800229c:	f003 0301 	and.w	r3, r3, #1
 80022a0:	2b01      	cmp	r3, #1
 80022a2:	d101      	bne.n	80022a8 <LL_ADC_IsEnabled+0x18>
 80022a4:	2301      	movs	r3, #1
 80022a6:	e000      	b.n	80022aa <LL_ADC_IsEnabled+0x1a>
 80022a8:	2300      	movs	r3, #0
 80022aa:	4618      	mov	r0, r3
 80022ac:	370c      	adds	r7, #12
 80022ae:	46bd      	mov	sp, r7
 80022b0:	f85d 7b04 	ldr.w	r7, [sp], #4
 80022b4:	4770      	bx	lr

080022b6 <LL_ADC_REG_StartConversion>:
 80022b6:	b480      	push	{r7}
 80022b8:	b083      	sub	sp, #12
 80022ba:	af00      	add	r7, sp, #0
 80022bc:	6078      	str	r0, [r7, #4]
 80022be:	687b      	ldr	r3, [r7, #4]
 80022c0:	689b      	ldr	r3, [r3, #8]
 80022c2:	f023 4300 	bic.w	r3, r3, #2147483648	@ 0x80000000
 80022c6:	f023 033f 	bic.w	r3, r3, #63	@ 0x3f
 80022ca:	f043 0204 	orr.w	r2, r3, #4
 80022ce:	687b      	ldr	r3, [r7, #4]
 80022d0:	609a      	str	r2, [r3, #8]
 80022d2:	bf00      	nop
 80022d4:	370c      	adds	r7, #12
 80022d6:	46bd      	mov	sp, r7
 80022d8:	f85d 7b04 	ldr.w	r7, [sp], #4
 80022dc:	4770      	bx	lr

080022de <LL_ADC_REG_IsConversionOngoing>:
 80022de:	b480      	push	{r7}
 80022e0:	b083      	sub	sp, #12
 80022e2:	af00      	add	r7, sp, #0
 80022e4:	6078      	str	r0, [r7, #4]
 80022e6:	687b      	ldr	r3, [r7, #4]
 80022e8:	689b      	ldr	r3, [r3, #8]
 80022ea:	f003 0304 	and.w	r3, r3, #4
 80022ee:	2b04      	cmp	r3, #4
 80022f0:	d101      	bne.n	80022f6 <LL_ADC_REG_IsConversionOngoing+0x18>
 80022f2:	2301      	movs	r3, #1
 80022f4:	e000      	b.n	80022f8 <LL_ADC_REG_IsConversionOngoing+0x1a>
 80022f6:	2300      	movs	r3, #0
 80022f8:	4618      	mov	r0, r3
 80022fa:	370c      	adds	r7, #12
 80022fc:	46bd      	mov	sp, r7
 80022fe:	f85d 7b04 	ldr.w	r7, [sp], #4
 8002302:	4770      	bx	lr

08002304 <LL_ADC_INJ_IsConversionOngoing>:
 8002304:	b480      	push	{r7}
 8002306:	b083      	sub	sp, #12
 8002308:	af00      	add	r7, sp, #0
 800230a:	6078      	str	r0, [r7, #4]
 800230c:	687b      	ldr	r3, [r7, #4]
 800230e:	689b      	ldr	r3, [r3, #8]
 8002310:	f003 0308 	and.w	r3, r3, #8
 8002314:	2b08      	cmp	r3, #8
 8002316:	d101      	bne.n	800231c <LL_ADC_INJ_IsConversionOngoing+0x18>
 8002318:	2301      	movs	r3, #1
 800231a:	e000      	b.n	800231e <LL_ADC_INJ_IsConversionOngoing+0x1a>
 800231c:	2300      	movs	r3, #0
 800231e:	4618      	mov	r0, r3
 8002320:	370c      	adds	r7, #12
 8002322:	46bd      	mov	sp, r7
 8002324:	f85d 7b04 	ldr.w	r7, [sp], #4
 8002328:	4770      	bx	lr
	...

0800232c <HAL_ADC_Init>:
 800232c:	b590      	push	{r4, r7, lr}
 800232e:	b089      	sub	sp, #36	@ 0x24
 8002330:	af00      	add	r7, sp, #0
 8002332:	6078      	str	r0, [r7, #4]
 8002334:	2300      	movs	r3, #0
 8002336:	77fb      	strb	r3, [r7, #31]
 8002338:	2300      	movs	r3, #0
 800233a:	60fb      	str	r3, [r7, #12]
 800233c:	687b      	ldr	r3, [r7, #4]
 800233e:	2b00      	cmp	r3, #0
 8002340:	d101      	bne.n	8002346 <HAL_ADC_Init+0x1a>
 8002342:	2301      	movs	r3, #1
 8002344:	e130      	b.n	80025a8 <HAL_ADC_Init+0x27c>
 8002346:	687b      	ldr	r3, [r7, #4]
 8002348:	691b      	ldr	r3, [r3, #16]
 800234a:	2b00      	cmp	r3, #0
 800234c:	687b      	ldr	r3, [r7, #4]
 800234e:	6d5b      	ldr	r3, [r3, #84]	@ 0x54
 8002350:	2b00      	cmp	r3, #0
 8002352:	d109      	bne.n	8002368 <HAL_ADC_Init+0x3c>
 8002354:	6878      	ldr	r0, [r7, #4]
 8002356:	f7ff f8af 	bl	80014b8 <HAL_ADC_MspInit>
 800235a:	687b      	ldr	r3, [r7, #4]
 800235c:	2200      	movs	r2, #0
 800235e:	659a      	str	r2, [r3, #88]	@ 0x58
 8002360:	687b      	ldr	r3, [r7, #4]
 8002362:	2200      	movs	r2, #0
 8002364:	f883 2050 	strb.w	r2, [r3, #80]	@ 0x50
 8002368:	687b      	ldr	r3, [r7, #4]
 800236a:	681b      	ldr	r3, [r3, #0]
 800236c:	4618      	mov	r0, r3
 800236e:	f7ff ff3f 	bl	80021f0 <LL_ADC_IsDeepPowerDownEnabled>
 8002372:	4603      	mov	r3, r0
 8002374:	2b00      	cmp	r3, #0
 8002376:	d004      	beq.n	8002382 <HAL_ADC_Init+0x56>
 8002378:	687b      	ldr	r3, [r7, #4]
 800237a:	681b      	ldr	r3, [r3, #0]
 800237c:	4618      	mov	r0, r3
 800237e:	f7ff ff25 	bl	80021cc <LL_ADC_DisableDeepPowerDown>
 8002382:	687b      	ldr	r3, [r7, #4]
 8002384:	681b      	ldr	r3, [r3, #0]
 8002386:	4618      	mov	r0, r3
 8002388:	f7ff ff5a 	bl	8002240 <LL_ADC_IsInternalRegulatorEnabled>
 800238c:	4603      	mov	r3, r0
 800238e:	2b00      	cmp	r3, #0
 8002390:	d115      	bne.n	80023be <HAL_ADC_Init+0x92>
 8002392:	687b      	ldr	r3, [r7, #4]
 8002394:	681b      	ldr	r3, [r3, #0]
 8002396:	4618      	mov	r0, r3
 8002398:	f7ff ff3e 	bl	8002218 <LL_ADC_EnableInternalRegulator>
 800239c:	4b84      	ldr	r3, [pc, #528]	@ (80025b0 <HAL_ADC_Init+0x284>)
 800239e:	681b      	ldr	r3, [r3, #0]
 80023a0:	099b      	lsrs	r3, r3, #6
 80023a2:	4a84      	ldr	r2, [pc, #528]	@ (80025b4 <HAL_ADC_Init+0x288>)
 80023a4:	fba2 2303 	umull	r2, r3, r2, r3
 80023a8:	099b      	lsrs	r3, r3, #6
 80023aa:	3301      	adds	r3, #1
 80023ac:	005b      	lsls	r3, r3, #1
 80023ae:	60fb      	str	r3, [r7, #12]
 80023b0:	e002      	b.n	80023b8 <HAL_ADC_Init+0x8c>
 80023b2:	68fb      	ldr	r3, [r7, #12]
 80023b4:	3b01      	subs	r3, #1
 80023b6:	60fb      	str	r3, [r7, #12]
 80023b8:	68fb      	ldr	r3, [r7, #12]
 80023ba:	2b00      	cmp	r3, #0
 80023bc:	d1f9      	bne.n	80023b2 <HAL_ADC_Init+0x86>
 80023be:	687b      	ldr	r3, [r7, #4]
 80023c0:	681b      	ldr	r3, [r3, #0]
 80023c2:	4618      	mov	r0, r3
 80023c4:	f7ff ff3c 	bl	8002240 <LL_ADC_IsInternalRegulatorEnabled>
 80023c8:	4603      	mov	r3, r0
 80023ca:	2b00      	cmp	r3, #0
 80023cc:	d10d      	bne.n	80023ea <HAL_ADC_Init+0xbe>
 80023ce:	687b      	ldr	r3, [r7, #4]
 80023d0:	6d5b      	ldr	r3, [r3, #84]	@ 0x54
 80023d2:	f043 0210 	orr.w	r2, r3, #16
 80023d6:	687b      	ldr	r3, [r7, #4]
 80023d8:	655a      	str	r2, [r3, #84]	@ 0x54
 80023da:	687b      	ldr	r3, [r7, #4]
 80023dc:	6d9b      	ldr	r3, [r3, #88]	@ 0x58
 80023de:	f043 0201 	orr.w	r2, r3, #1
 80023e2:	687b      	ldr	r3, [r7, #4]
 80023e4:	659a      	str	r2, [r3, #88]	@ 0x58
 80023e6:	2301      	movs	r3, #1
 80023e8:	77fb      	strb	r3, [r7, #31]
 80023ea:	687b      	ldr	r3, [r7, #4]
 80023ec:	681b      	ldr	r3, [r3, #0]
 80023ee:	4618      	mov	r0, r3
 80023f0:	f7ff ff75 	bl	80022de <LL_ADC_REG_IsConversionOngoing>
 80023f4:	6178      	str	r0, [r7, #20]
 80023f6:	687b      	ldr	r3, [r7, #4]
 80023f8:	6d5b      	ldr	r3, [r3, #84]	@ 0x54
 80023fa:	f003 0310 	and.w	r3, r3, #16
 80023fe:	2b00      	cmp	r3, #0
 8002400:	f040 80c9 	bne.w	8002596 <HAL_ADC_Init+0x26a>
 8002404:	697b      	ldr	r3, [r7, #20]
 8002406:	2b00      	cmp	r3, #0
 8002408:	f040 80c5 	bne.w	8002596 <HAL_ADC_Init+0x26a>
 800240c:	687b      	ldr	r3, [r7, #4]
 800240e:	6d5b      	ldr	r3, [r3, #84]	@ 0x54
 8002410:	f423 7381 	bic.w	r3, r3, #258	@ 0x102
 8002414:	f043 0202 	orr.w	r2, r3, #2
 8002418:	687b      	ldr	r3, [r7, #4]
 800241a:	655a      	str	r2, [r3, #84]	@ 0x54
 800241c:	687b      	ldr	r3, [r7, #4]
 800241e:	681b      	ldr	r3, [r3, #0]
 8002420:	4618      	mov	r0, r3
 8002422:	f7ff ff35 	bl	8002290 <LL_ADC_IsEnabled>
 8002426:	4603      	mov	r3, r0
 8002428:	2b00      	cmp	r3, #0
 800242a:	d115      	bne.n	8002458 <HAL_ADC_Init+0x12c>
 800242c:	4862      	ldr	r0, [pc, #392]	@ (80025b8 <HAL_ADC_Init+0x28c>)
 800242e:	f7ff ff2f 	bl	8002290 <LL_ADC_IsEnabled>
 8002432:	4604      	mov	r4, r0
 8002434:	4861      	ldr	r0, [pc, #388]	@ (80025bc <HAL_ADC_Init+0x290>)
 8002436:	f7ff ff2b 	bl	8002290 <LL_ADC_IsEnabled>
 800243a:	4603      	mov	r3, r0
 800243c:	431c      	orrs	r4, r3
 800243e:	4860      	ldr	r0, [pc, #384]	@ (80025c0 <HAL_ADC_Init+0x294>)
 8002440:	f7ff ff26 	bl	8002290 <LL_ADC_IsEnabled>
 8002444:	4603      	mov	r3, r0
 8002446:	4323      	orrs	r3, r4
 8002448:	2b00      	cmp	r3, #0
 800244a:	d105      	bne.n	8002458 <HAL_ADC_Init+0x12c>
 800244c:	687b      	ldr	r3, [r7, #4]
 800244e:	685b      	ldr	r3, [r3, #4]
 8002450:	4619      	mov	r1, r3
 8002452:	485c      	ldr	r0, [pc, #368]	@ (80025c4 <HAL_ADC_Init+0x298>)
 8002454:	f7ff fda8 	bl	8001fa8 <LL_ADC_SetCommonClock>
 8002458:	687b      	ldr	r3, [r7, #4]
 800245a:	7e5b      	ldrb	r3, [r3, #25]
 800245c:	035a      	lsls	r2, r3, #13
 800245e:	687b      	ldr	r3, [r7, #4]
 8002460:	6b5b      	ldr	r3, [r3, #52]	@ 0x34
 8002462:	431a      	orrs	r2, r3
 8002464:	687b      	ldr	r3, [r7, #4]
 8002466:	68db      	ldr	r3, [r3, #12]
 8002468:	431a      	orrs	r2, r3
 800246a:	687b      	ldr	r3, [r7, #4]
 800246c:	689b      	ldr	r3, [r3, #8]
 800246e:	431a      	orrs	r2, r3
 8002470:	687b      	ldr	r3, [r7, #4]
 8002472:	f893 3020 	ldrb.w	r3, [r3, #32]
 8002476:	041b      	lsls	r3, r3, #16
 8002478:	4313      	orrs	r3, r2
 800247a:	61bb      	str	r3, [r7, #24]
 800247c:	687b      	ldr	r3, [r7, #4]
 800247e:	f893 3020 	ldrb.w	r3, [r3, #32]
 8002482:	2b01      	cmp	r3, #1
 8002484:	d106      	bne.n	8002494 <HAL_ADC_Init+0x168>
 8002486:	687b      	ldr	r3, [r7, #4]
 8002488:	6a5b      	ldr	r3, [r3, #36]	@ 0x24
 800248a:	3b01      	subs	r3, #1
 800248c:	045b      	lsls	r3, r3, #17
 800248e:	69ba      	ldr	r2, [r7, #24]
 8002490:	4313      	orrs	r3, r2
 8002492:	61bb      	str	r3, [r7, #24]
 8002494:	687b      	ldr	r3, [r7, #4]
 8002496:	6a9b      	ldr	r3, [r3, #40]	@ 0x28
 8002498:	2b00      	cmp	r3, #0
 800249a:	d009      	beq.n	80024b0 <HAL_ADC_Init+0x184>
 800249c:	687b      	ldr	r3, [r7, #4]
 800249e:	6a9b      	ldr	r3, [r3, #40]	@ 0x28
 80024a0:	f403 7270 	and.w	r2, r3, #960	@ 0x3c0
 80024a4:	687b      	ldr	r3, [r7, #4]
 80024a6:	6adb      	ldr	r3, [r3, #44]	@ 0x2c
 80024a8:	4313      	orrs	r3, r2
 80024aa:	69ba      	ldr	r2, [r7, #24]
 80024ac:	4313      	orrs	r3, r2
 80024ae:	61bb      	str	r3, [r7, #24]
 80024b0:	687b      	ldr	r3, [r7, #4]
 80024b2:	681b      	ldr	r3, [r3, #0]
 80024b4:	68da      	ldr	r2, [r3, #12]
 80024b6:	4b44      	ldr	r3, [pc, #272]	@ (80025c8 <HAL_ADC_Init+0x29c>)
 80024b8:	4013      	ands	r3, r2
 80024ba:	687a      	ldr	r2, [r7, #4]
 80024bc:	6812      	ldr	r2, [r2, #0]
 80024be:	69b9      	ldr	r1, [r7, #24]
 80024c0:	430b      	orrs	r3, r1
 80024c2:	60d3      	str	r3, [r2, #12]
 80024c4:	687b      	ldr	r3, [r7, #4]
 80024c6:	681b      	ldr	r3, [r3, #0]
 80024c8:	4618      	mov	r0, r3
 80024ca:	f7ff ff1b 	bl	8002304 <LL_ADC_INJ_IsConversionOngoing>
 80024ce:	6138      	str	r0, [r7, #16]
 80024d0:	697b      	ldr	r3, [r7, #20]
 80024d2:	2b00      	cmp	r3, #0
 80024d4:	d13d      	bne.n	8002552 <HAL_ADC_Init+0x226>
 80024d6:	693b      	ldr	r3, [r7, #16]
 80024d8:	2b00      	cmp	r3, #0
 80024da:	d13a      	bne.n	8002552 <HAL_ADC_Init+0x226>
 80024dc:	687b      	ldr	r3, [r7, #4]
 80024de:	7e1b      	ldrb	r3, [r3, #24]
 80024e0:	039a      	lsls	r2, r3, #14
 80024e2:	687b      	ldr	r3, [r7, #4]
 80024e4:	f893 3030 	ldrb.w	r3, [r3, #48]	@ 0x30
 80024e8:	005b      	lsls	r3, r3, #1
 80024ea:	4313      	orrs	r3, r2
 80024ec:	61bb      	str	r3, [r7, #24]
 80024ee:	687b      	ldr	r3, [r7, #4]
 80024f0:	681b      	ldr	r3, [r3, #0]
 80024f2:	68db      	ldr	r3, [r3, #12]
 80024f4:	f423 4380 	bic.w	r3, r3, #16384	@ 0x4000
 80024f8:	f023 0302 	bic.w	r3, r3, #2
 80024fc:	687a      	ldr	r2, [r7, #4]
 80024fe:	6812      	ldr	r2, [r2, #0]
 8002500:	69b9      	ldr	r1, [r7, #24]
 8002502:	430b      	orrs	r3, r1
 8002504:	60d3      	str	r3, [r2, #12]
 8002506:	687b      	ldr	r3, [r7, #4]
 8002508:	f893 3038 	ldrb.w	r3, [r3, #56]	@ 0x38
 800250c:	2b01      	cmp	r3, #1
 800250e:	d118      	bne.n	8002542 <HAL_ADC_Init+0x216>
 8002510:	687b      	ldr	r3, [r7, #4]
 8002512:	681b      	ldr	r3, [r3, #0]
 8002514:	691b      	ldr	r3, [r3, #16]
 8002516:	f423 63ff 	bic.w	r3, r3, #2040	@ 0x7f8
 800251a:	f023 0304 	bic.w	r3, r3, #4
 800251e:	687a      	ldr	r2, [r7, #4]
 8002520:	6bd1      	ldr	r1, [r2, #60]	@ 0x3c
 8002522:	687a      	ldr	r2, [r7, #4]
 8002524:	6c12      	ldr	r2, [r2, #64]	@ 0x40
 8002526:	4311      	orrs	r1, r2
 8002528:	687a      	ldr	r2, [r7, #4]
 800252a:	6c52      	ldr	r2, [r2, #68]	@ 0x44
 800252c:	4311      	orrs	r1, r2
 800252e:	687a      	ldr	r2, [r7, #4]
 8002530:	6c92      	ldr	r2, [r2, #72]	@ 0x48
 8002532:	430a      	orrs	r2, r1
 8002534:	431a      	orrs	r2, r3
 8002536:	687b      	ldr	r3, [r7, #4]
 8002538:	681b      	ldr	r3, [r3, #0]
 800253a:	f042 0201 	orr.w	r2, r2, #1
 800253e:	611a      	str	r2, [r3, #16]
 8002540:	e007      	b.n	8002552 <HAL_ADC_Init+0x226>
 8002542:	687b      	ldr	r3, [r7, #4]
 8002544:	681b      	ldr	r3, [r3, #0]
 8002546:	691a      	ldr	r2, [r3, #16]
 8002548:	687b      	ldr	r3, [r7, #4]
 800254a:	681b      	ldr	r3, [r3, #0]
 800254c:	f022 0201 	bic.w	r2, r2, #1
 8002550:	611a      	str	r2, [r3, #16]
 8002552:	687b      	ldr	r3, [r7, #4]
 8002554:	691b      	ldr	r3, [r3, #16]
 8002556:	2b01      	cmp	r3, #1
 8002558:	d10c      	bne.n	8002574 <HAL_ADC_Init+0x248>
 800255a:	687b      	ldr	r3, [r7, #4]
 800255c:	681b      	ldr	r3, [r3, #0]
 800255e:	6b1b      	ldr	r3, [r3, #48]	@ 0x30
 8002560:	f023 010f 	bic.w	r1, r3, #15
 8002564:	687b      	ldr	r3, [r7, #4]
 8002566:	69db      	ldr	r3, [r3, #28]
 8002568:	1e5a      	subs	r2, r3, #1
 800256a:	687b      	ldr	r3, [r7, #4]
 800256c:	681b      	ldr	r3, [r3, #0]
 800256e:	430a      	orrs	r2, r1
 8002570:	631a      	str	r2, [r3, #48]	@ 0x30
 8002572:	e007      	b.n	8002584 <HAL_ADC_Init+0x258>
 8002574:	687b      	ldr	r3, [r7, #4]
 8002576:	681b      	ldr	r3, [r3, #0]
 8002578:	6b1a      	ldr	r2, [r3, #48]	@ 0x30
 800257a:	687b      	ldr	r3, [r7, #4]
 800257c:	681b      	ldr	r3, [r3, #0]
 800257e:	f022 020f 	bic.w	r2, r2, #15
 8002582:	631a      	str	r2, [r3, #48]	@ 0x30
 8002584:	687b      	ldr	r3, [r7, #4]
 8002586:	6d5b      	ldr	r3, [r3, #84]	@ 0x54
 8002588:	f023 0303 	bic.w	r3, r3, #3
 800258c:	f043 0201 	orr.w	r2, r3, #1
 8002590:	687b      	ldr	r3, [r7, #4]
 8002592:	655a      	str	r2, [r3, #84]	@ 0x54
 8002594:	e007      	b.n	80025a6 <HAL_ADC_Init+0x27a>
 8002596:	687b      	ldr	r3, [r7, #4]
 8002598:	6d5b      	ldr	r3, [r3, #84]	@ 0x54
 800259a:	f043 0210 	orr.w	r2, r3, #16
 800259e:	687b      	ldr	r3, [r7, #4]
 80025a0:	655a      	str	r2, [r3, #84]	@ 0x54
 80025a2:	2301      	movs	r3, #1
 80025a4:	77fb      	strb	r3, [r7, #31]
 80025a6:	7ffb      	ldrb	r3, [r7, #31]
 80025a8:	4618      	mov	r0, r3
 80025aa:	3724      	adds	r7, #36	@ 0x24
 80025ac:	46bd      	mov	sp, r7
 80025ae:	bd90      	pop	{r4, r7, pc}
 80025b0:	20000000 	.word	0x20000000
 80025b4:	053e2d63 	.word	0x053e2d63
 80025b8:	50040000 	.word	0x50040000
 80025bc:	50040100 	.word	0x50040100
 80025c0:	50040200 	.word	0x50040200
 80025c4:	50040300 	.word	0x50040300
 80025c8:	fff0c007 	.word	0xfff0c007

080025cc <HAL_ADC_Start>:
 80025cc:	b580      	push	{r7, lr}
 80025ce:	b086      	sub	sp, #24
 80025d0:	af00      	add	r7, sp, #0
 80025d2:	6078      	str	r0, [r7, #4]
 80025d4:	4857      	ldr	r0, [pc, #348]	@ (8002734 <HAL_ADC_Start+0x168>)
 80025d6:	f7ff fdeb 	bl	80021b0 <LL_ADC_GetMultimode>
 80025da:	6138      	str	r0, [r7, #16]
 80025dc:	687b      	ldr	r3, [r7, #4]
 80025de:	681b      	ldr	r3, [r3, #0]
 80025e0:	4618      	mov	r0, r3
 80025e2:	f7ff fe7c 	bl	80022de <LL_ADC_REG_IsConversionOngoing>
 80025e6:	4603      	mov	r3, r0
 80025e8:	2b00      	cmp	r3, #0
 80025ea:	f040 809c 	bne.w	8002726 <HAL_ADC_Start+0x15a>
 80025ee:	687b      	ldr	r3, [r7, #4]
 80025f0:	f893 3050 	ldrb.w	r3, [r3, #80]	@ 0x50
 80025f4:	2b01      	cmp	r3, #1
 80025f6:	d101      	bne.n	80025fc <HAL_ADC_Start+0x30>
 80025f8:	2302      	movs	r3, #2
 80025fa:	e097      	b.n	800272c <HAL_ADC_Start+0x160>
 80025fc:	687b      	ldr	r3, [r7, #4]
 80025fe:	2201      	movs	r2, #1
 8002600:	f883 2050 	strb.w	r2, [r3, #80]	@ 0x50
 8002604:	6878      	ldr	r0, [r7, #4]
 8002606:	f000 fc8d 	bl	8002f24 <ADC_Enable>
 800260a:	4603      	mov	r3, r0
 800260c:	75fb      	strb	r3, [r7, #23]
 800260e:	7dfb      	ldrb	r3, [r7, #23]
 8002610:	2b00      	cmp	r3, #0
 8002612:	f040 8083 	bne.w	800271c <HAL_ADC_Start+0x150>
 8002616:	687b      	ldr	r3, [r7, #4]
 8002618:	6d5b      	ldr	r3, [r3, #84]	@ 0x54
 800261a:	f423 6370 	bic.w	r3, r3, #3840	@ 0xf00
 800261e:	f023 0301 	bic.w	r3, r3, #1
 8002622:	f443 7280 	orr.w	r2, r3, #256	@ 0x100
 8002626:	687b      	ldr	r3, [r7, #4]
 8002628:	655a      	str	r2, [r3, #84]	@ 0x54
 800262a:	687b      	ldr	r3, [r7, #4]
 800262c:	681b      	ldr	r3, [r3, #0]
 800262e:	4a42      	ldr	r2, [pc, #264]	@ (8002738 <HAL_ADC_Start+0x16c>)
 8002630:	4293      	cmp	r3, r2
 8002632:	d002      	beq.n	800263a <HAL_ADC_Start+0x6e>
 8002634:	687b      	ldr	r3, [r7, #4]
 8002636:	681b      	ldr	r3, [r3, #0]
 8002638:	e000      	b.n	800263c <HAL_ADC_Start+0x70>
 800263a:	4b40      	ldr	r3, [pc, #256]	@ (800273c <HAL_ADC_Start+0x170>)
 800263c:	687a      	ldr	r2, [r7, #4]
 800263e:	6812      	ldr	r2, [r2, #0]
 8002640:	4293      	cmp	r3, r2
 8002642:	d002      	beq.n	800264a <HAL_ADC_Start+0x7e>
 8002644:	693b      	ldr	r3, [r7, #16]
 8002646:	2b00      	cmp	r3, #0
 8002648:	d105      	bne.n	8002656 <HAL_ADC_Start+0x8a>
 800264a:	687b      	ldr	r3, [r7, #4]
 800264c:	6d5b      	ldr	r3, [r3, #84]	@ 0x54
 800264e:	f423 1280 	bic.w	r2, r3, #1048576	@ 0x100000
 8002652:	687b      	ldr	r3, [r7, #4]
 8002654:	655a      	str	r2, [r3, #84]	@ 0x54
 8002656:	687b      	ldr	r3, [r7, #4]
 8002658:	6d5b      	ldr	r3, [r3, #84]	@ 0x54
 800265a:	f403 5380 	and.w	r3, r3, #4096	@ 0x1000
 800265e:	f5b3 5f80 	cmp.w	r3, #4096	@ 0x1000
 8002662:	d106      	bne.n	8002672 <HAL_ADC_Start+0xa6>
 8002664:	687b      	ldr	r3, [r7, #4]
 8002666:	6d9b      	ldr	r3, [r3, #88]	@ 0x58
 8002668:	f023 0206 	bic.w	r2, r3, #6
 800266c:	687b      	ldr	r3, [r7, #4]
 800266e:	659a      	str	r2, [r3, #88]	@ 0x58
 8002670:	e002      	b.n	8002678 <HAL_ADC_Start+0xac>
 8002672:	687b      	ldr	r3, [r7, #4]
 8002674:	2200      	movs	r2, #0
 8002676:	659a      	str	r2, [r3, #88]	@ 0x58
 8002678:	687b      	ldr	r3, [r7, #4]
 800267a:	681b      	ldr	r3, [r3, #0]
 800267c:	221c      	movs	r2, #28
 800267e:	601a      	str	r2, [r3, #0]
 8002680:	687b      	ldr	r3, [r7, #4]
 8002682:	2200      	movs	r2, #0
 8002684:	f883 2050 	strb.w	r2, [r3, #80]	@ 0x50
 8002688:	687b      	ldr	r3, [r7, #4]
 800268a:	681b      	ldr	r3, [r3, #0]
 800268c:	4a2a      	ldr	r2, [pc, #168]	@ (8002738 <HAL_ADC_Start+0x16c>)
 800268e:	4293      	cmp	r3, r2
 8002690:	d002      	beq.n	8002698 <HAL_ADC_Start+0xcc>
 8002692:	687b      	ldr	r3, [r7, #4]
 8002694:	681b      	ldr	r3, [r3, #0]
 8002696:	e000      	b.n	800269a <HAL_ADC_Start+0xce>
 8002698:	4b28      	ldr	r3, [pc, #160]	@ (800273c <HAL_ADC_Start+0x170>)
 800269a:	687a      	ldr	r2, [r7, #4]
 800269c:	6812      	ldr	r2, [r2, #0]
 800269e:	4293      	cmp	r3, r2
 80026a0:	d008      	beq.n	80026b4 <HAL_ADC_Start+0xe8>
 80026a2:	693b      	ldr	r3, [r7, #16]
 80026a4:	2b00      	cmp	r3, #0
 80026a6:	d005      	beq.n	80026b4 <HAL_ADC_Start+0xe8>
 80026a8:	693b      	ldr	r3, [r7, #16]
 80026aa:	2b05      	cmp	r3, #5
 80026ac:	d002      	beq.n	80026b4 <HAL_ADC_Start+0xe8>
 80026ae:	693b      	ldr	r3, [r7, #16]
 80026b0:	2b09      	cmp	r3, #9
 80026b2:	d114      	bne.n	80026de <HAL_ADC_Start+0x112>
 80026b4:	687b      	ldr	r3, [r7, #4]
 80026b6:	681b      	ldr	r3, [r3, #0]
 80026b8:	68db      	ldr	r3, [r3, #12]
 80026ba:	f003 7300 	and.w	r3, r3, #33554432	@ 0x2000000
 80026be:	2b00      	cmp	r3, #0
 80026c0:	d007      	beq.n	80026d2 <HAL_ADC_Start+0x106>
 80026c2:	687b      	ldr	r3, [r7, #4]
 80026c4:	6d5b      	ldr	r3, [r3, #84]	@ 0x54
 80026c6:	f423 5340 	bic.w	r3, r3, #12288	@ 0x3000
 80026ca:	f443 5280 	orr.w	r2, r3, #4096	@ 0x1000
 80026ce:	687b      	ldr	r3, [r7, #4]
 80026d0:	655a      	str	r2, [r3, #84]	@ 0x54
 80026d2:	687b      	ldr	r3, [r7, #4]
 80026d4:	681b      	ldr	r3, [r3, #0]
 80026d6:	4618      	mov	r0, r3
 80026d8:	f7ff fded 	bl	80022b6 <LL_ADC_REG_StartConversion>
 80026dc:	e025      	b.n	800272a <HAL_ADC_Start+0x15e>
 80026de:	687b      	ldr	r3, [r7, #4]
 80026e0:	6d5b      	ldr	r3, [r3, #84]	@ 0x54
 80026e2:	f443 1280 	orr.w	r2, r3, #1048576	@ 0x100000
 80026e6:	687b      	ldr	r3, [r7, #4]
 80026e8:	655a      	str	r2, [r3, #84]	@ 0x54
 80026ea:	687b      	ldr	r3, [r7, #4]
 80026ec:	681b      	ldr	r3, [r3, #0]
 80026ee:	4a12      	ldr	r2, [pc, #72]	@ (8002738 <HAL_ADC_Start+0x16c>)
 80026f0:	4293      	cmp	r3, r2
 80026f2:	d002      	beq.n	80026fa <HAL_ADC_Start+0x12e>
 80026f4:	687b      	ldr	r3, [r7, #4]
 80026f6:	681b      	ldr	r3, [r3, #0]
 80026f8:	e000      	b.n	80026fc <HAL_ADC_Start+0x130>
 80026fa:	4b10      	ldr	r3, [pc, #64]	@ (800273c <HAL_ADC_Start+0x170>)
 80026fc:	60fb      	str	r3, [r7, #12]
 80026fe:	68fb      	ldr	r3, [r7, #12]
 8002700:	68db      	ldr	r3, [r3, #12]
 8002702:	f003 7300 	and.w	r3, r3, #33554432	@ 0x2000000
 8002706:	2b00      	cmp	r3, #0
 8002708:	d00f      	beq.n	800272a <HAL_ADC_Start+0x15e>
 800270a:	687b      	ldr	r3, [r7, #4]
 800270c:	6d5b      	ldr	r3, [r3, #84]	@ 0x54
 800270e:	f423 5340 	bic.w	r3, r3, #12288	@ 0x3000
 8002712:	f443 5280 	orr.w	r2, r3, #4096	@ 0x1000
 8002716:	687b      	ldr	r3, [r7, #4]
 8002718:	655a      	str	r2, [r3, #84]	@ 0x54
 800271a:	e006      	b.n	800272a <HAL_ADC_Start+0x15e>
 800271c:	687b      	ldr	r3, [r7, #4]
 800271e:	2200      	movs	r2, #0
 8002720:	f883 2050 	strb.w	r2, [r3, #80]	@ 0x50
 8002724:	e001      	b.n	800272a <HAL_ADC_Start+0x15e>
 8002726:	2302      	movs	r3, #2
 8002728:	75fb      	strb	r3, [r7, #23]
 800272a:	7dfb      	ldrb	r3, [r7, #23]
 800272c:	4618      	mov	r0, r3
 800272e:	3718      	adds	r7, #24
 8002730:	46bd      	mov	sp, r7
 8002732:	bd80      	pop	{r7, pc}
 8002734:	50040300 	.word	0x50040300
 8002738:	50040100 	.word	0x50040100
 800273c:	50040000 	.word	0x50040000

08002740 <HAL_ADC_ConfigChannel>:
 8002740:	b580      	push	{r7, lr}
 8002742:	b0b6      	sub	sp, #216	@ 0xd8
 8002744:	af00      	add	r7, sp, #0
 8002746:	6078      	str	r0, [r7, #4]
 8002748:	6039      	str	r1, [r7, #0]
 800274a:	2300      	movs	r3, #0
 800274c:	f887 30d7 	strb.w	r3, [r7, #215]	@ 0xd7
 8002750:	2300      	movs	r3, #0
 8002752:	60bb      	str	r3, [r7, #8]
 8002754:	687b      	ldr	r3, [r7, #4]
 8002756:	f893 3050 	ldrb.w	r3, [r3, #80]	@ 0x50
 800275a:	2b01      	cmp	r3, #1
 800275c:	d101      	bne.n	8002762 <HAL_ADC_ConfigChannel+0x22>
 800275e:	2302      	movs	r3, #2
 8002760:	e3c9      	b.n	8002ef6 <HAL_ADC_ConfigChannel+0x7b6>
 8002762:	687b      	ldr	r3, [r7, #4]
 8002764:	2201      	movs	r2, #1
 8002766:	f883 2050 	strb.w	r2, [r3, #80]	@ 0x50
 800276a:	687b      	ldr	r3, [r7, #4]
 800276c:	681b      	ldr	r3, [r3, #0]
 800276e:	4618      	mov	r0, r3
 8002770:	f7ff fdb5 	bl	80022de <LL_ADC_REG_IsConversionOngoing>
 8002774:	4603      	mov	r3, r0
 8002776:	2b00      	cmp	r3, #0
 8002778:	f040 83aa 	bne.w	8002ed0 <HAL_ADC_ConfigChannel+0x790>
 800277c:	683b      	ldr	r3, [r7, #0]
 800277e:	685b      	ldr	r3, [r3, #4]
 8002780:	f8c7 30d0 	str.w	r3, [r7, #208]	@ 0xd0
 8002784:	683b      	ldr	r3, [r7, #0]
 8002786:	685b      	ldr	r3, [r3, #4]
 8002788:	2b05      	cmp	r3, #5
 800278a:	d824      	bhi.n	80027d6 <HAL_ADC_ConfigChannel+0x96>
 800278c:	683b      	ldr	r3, [r7, #0]
 800278e:	685b      	ldr	r3, [r3, #4]
 8002790:	3b02      	subs	r3, #2
 8002792:	2b03      	cmp	r3, #3
 8002794:	d81b      	bhi.n	80027ce <HAL_ADC_ConfigChannel+0x8e>
 8002796:	a201      	add	r2, pc, #4	@ (adr r2, 800279c <HAL_ADC_ConfigChannel+0x5c>)
 8002798:	f852 f023 	ldr.w	pc, [r2, r3, lsl #2]
 800279c:	080027ad 	.word	0x080027ad
 80027a0:	080027b5 	.word	0x080027b5
 80027a4:	080027bd 	.word	0x080027bd
 80027a8:	080027c5 	.word	0x080027c5
 80027ac:	230c      	movs	r3, #12
 80027ae:	f8c7 30d0 	str.w	r3, [r7, #208]	@ 0xd0
 80027b2:	e010      	b.n	80027d6 <HAL_ADC_ConfigChannel+0x96>
 80027b4:	2312      	movs	r3, #18
 80027b6:	f8c7 30d0 	str.w	r3, [r7, #208]	@ 0xd0
 80027ba:	e00c      	b.n	80027d6 <HAL_ADC_ConfigChannel+0x96>
 80027bc:	2318      	movs	r3, #24
 80027be:	f8c7 30d0 	str.w	r3, [r7, #208]	@ 0xd0
 80027c2:	e008      	b.n	80027d6 <HAL_ADC_ConfigChannel+0x96>
 80027c4:	f44f 7380 	mov.w	r3, #256	@ 0x100
 80027c8:	f8c7 30d0 	str.w	r3, [r7, #208]	@ 0xd0
 80027cc:	e003      	b.n	80027d6 <HAL_ADC_ConfigChannel+0x96>
 80027ce:	2306      	movs	r3, #6
 80027d0:	f8c7 30d0 	str.w	r3, [r7, #208]	@ 0xd0
 80027d4:	bf00      	nop
 80027d6:	687b      	ldr	r3, [r7, #4]
 80027d8:	6818      	ldr	r0, [r3, #0]
 80027da:	683b      	ldr	r3, [r7, #0]
 80027dc:	681b      	ldr	r3, [r3, #0]
 80027de:	461a      	mov	r2, r3
 80027e0:	f8d7 10d0 	ldr.w	r1, [r7, #208]	@ 0xd0
 80027e4:	f7ff fc69 	bl	80020ba <LL_ADC_REG_SetSequencerRanks>
 80027e8:	687b      	ldr	r3, [r7, #4]
 80027ea:	681b      	ldr	r3, [r3, #0]
 80027ec:	4618      	mov	r0, r3
 80027ee:	f7ff fd76 	bl	80022de <LL_ADC_REG_IsConversionOngoing>
 80027f2:	f8c7 00cc 	str.w	r0, [r7, #204]	@ 0xcc
 80027f6:	687b      	ldr	r3, [r7, #4]
 80027f8:	681b      	ldr	r3, [r3, #0]
 80027fa:	4618      	mov	r0, r3
 80027fc:	f7ff fd82 	bl	8002304 <LL_ADC_INJ_IsConversionOngoing>
 8002800:	f8c7 00c8 	str.w	r0, [r7, #200]	@ 0xc8
 8002804:	f8d7 30cc 	ldr.w	r3, [r7, #204]	@ 0xcc
 8002808:	2b00      	cmp	r3, #0
 800280a:	f040 81a4 	bne.w	8002b56 <HAL_ADC_ConfigChannel+0x416>
 800280e:	f8d7 30c8 	ldr.w	r3, [r7, #200]	@ 0xc8
 8002812:	2b00      	cmp	r3, #0
 8002814:	f040 819f 	bne.w	8002b56 <HAL_ADC_ConfigChannel+0x416>
 8002818:	687b      	ldr	r3, [r7, #4]
 800281a:	6818      	ldr	r0, [r3, #0]
 800281c:	683b      	ldr	r3, [r7, #0]
 800281e:	6819      	ldr	r1, [r3, #0]
 8002820:	683b      	ldr	r3, [r7, #0]
 8002822:	689b      	ldr	r3, [r3, #8]
 8002824:	461a      	mov	r2, r3
 8002826:	f7ff fc74 	bl	8002112 <LL_ADC_SetChannelSamplingTime>
 800282a:	683b      	ldr	r3, [r7, #0]
 800282c:	695a      	ldr	r2, [r3, #20]
 800282e:	687b      	ldr	r3, [r7, #4]
 8002830:	681b      	ldr	r3, [r3, #0]
 8002832:	68db      	ldr	r3, [r3, #12]
 8002834:	08db      	lsrs	r3, r3, #3
 8002836:	f003 0303 	and.w	r3, r3, #3
 800283a:	005b      	lsls	r3, r3, #1
 800283c:	fa02 f303 	lsl.w	r3, r2, r3
 8002840:	f8c7 30c4 	str.w	r3, [r7, #196]	@ 0xc4
 8002844:	683b      	ldr	r3, [r7, #0]
 8002846:	691b      	ldr	r3, [r3, #16]
 8002848:	2b04      	cmp	r3, #4
 800284a:	d00a      	beq.n	8002862 <HAL_ADC_ConfigChannel+0x122>
 800284c:	687b      	ldr	r3, [r7, #4]
 800284e:	6818      	ldr	r0, [r3, #0]
 8002850:	683b      	ldr	r3, [r7, #0]
 8002852:	6919      	ldr	r1, [r3, #16]
 8002854:	683b      	ldr	r3, [r7, #0]
 8002856:	681a      	ldr	r2, [r3, #0]
 8002858:	f8d7 30c4 	ldr.w	r3, [r7, #196]	@ 0xc4
 800285c:	f7ff fbd8 	bl	8002010 <LL_ADC_SetOffset>
 8002860:	e179      	b.n	8002b56 <HAL_ADC_ConfigChannel+0x416>
 8002862:	687b      	ldr	r3, [r7, #4]
 8002864:	681b      	ldr	r3, [r3, #0]
 8002866:	2100      	movs	r1, #0
 8002868:	4618      	mov	r0, r3
 800286a:	f7ff fbf5 	bl	8002058 <LL_ADC_GetOffsetChannel>
 800286e:	4603      	mov	r3, r0
 8002870:	f3c3 0312 	ubfx	r3, r3, #0, #19
 8002874:	2b00      	cmp	r3, #0
 8002876:	d10a      	bne.n	800288e <HAL_ADC_ConfigChannel+0x14e>
 8002878:	687b      	ldr	r3, [r7, #4]
 800287a:	681b      	ldr	r3, [r3, #0]
 800287c:	2100      	movs	r1, #0
 800287e:	4618      	mov	r0, r3
 8002880:	f7ff fbea 	bl	8002058 <LL_ADC_GetOffsetChannel>
 8002884:	4603      	mov	r3, r0
 8002886:	0e9b      	lsrs	r3, r3, #26
 8002888:	f003 021f 	and.w	r2, r3, #31
 800288c:	e01e      	b.n	80028cc <HAL_ADC_ConfigChannel+0x18c>
 800288e:	687b      	ldr	r3, [r7, #4]
 8002890:	681b      	ldr	r3, [r3, #0]
 8002892:	2100      	movs	r1, #0
 8002894:	4618      	mov	r0, r3
 8002896:	f7ff fbdf 	bl	8002058 <LL_ADC_GetOffsetChannel>
 800289a:	4603      	mov	r3, r0
 800289c:	f8c7 30b8 	str.w	r3, [r7, #184]	@ 0xb8
 80028a0:	f8d7 30b8 	ldr.w	r3, [r7, #184]	@ 0xb8
 80028a4:	fa93 f3a3 	rbit	r3, r3
 80028a8:	f8c7 30b4 	str.w	r3, [r7, #180]	@ 0xb4
 80028ac:	f8d7 30b4 	ldr.w	r3, [r7, #180]	@ 0xb4
 80028b0:	f8c7 30bc 	str.w	r3, [r7, #188]	@ 0xbc
 80028b4:	f8d7 30bc 	ldr.w	r3, [r7, #188]	@ 0xbc
 80028b8:	2b00      	cmp	r3, #0
 80028ba:	d101      	bne.n	80028c0 <HAL_ADC_ConfigChannel+0x180>
 80028bc:	2320      	movs	r3, #32
 80028be:	e004      	b.n	80028ca <HAL_ADC_ConfigChannel+0x18a>
 80028c0:	f8d7 30bc 	ldr.w	r3, [r7, #188]	@ 0xbc
 80028c4:	fab3 f383 	clz	r3, r3
 80028c8:	b2db      	uxtb	r3, r3
 80028ca:	461a      	mov	r2, r3
 80028cc:	683b      	ldr	r3, [r7, #0]
 80028ce:	681b      	ldr	r3, [r3, #0]
 80028d0:	f3c3 0312 	ubfx	r3, r3, #0, #19
 80028d4:	2b00      	cmp	r3, #0
 80028d6:	d105      	bne.n	80028e4 <HAL_ADC_ConfigChannel+0x1a4>
 80028d8:	683b      	ldr	r3, [r7, #0]
 80028da:	681b      	ldr	r3, [r3, #0]
 80028dc:	0e9b      	lsrs	r3, r3, #26
 80028de:	f003 031f 	and.w	r3, r3, #31
 80028e2:	e018      	b.n	8002916 <HAL_ADC_ConfigChannel+0x1d6>
 80028e4:	683b      	ldr	r3, [r7, #0]
 80028e6:	681b      	ldr	r3, [r3, #0]
 80028e8:	f8c7 30ac 	str.w	r3, [r7, #172]	@ 0xac
 80028ec:	f8d7 30ac 	ldr.w	r3, [r7, #172]	@ 0xac
 80028f0:	fa93 f3a3 	rbit	r3, r3
 80028f4:	f8c7 30a8 	str.w	r3, [r7, #168]	@ 0xa8
 80028f8:	f8d7 30a8 	ldr.w	r3, [r7, #168]	@ 0xa8
 80028fc:	f8c7 30b0 	str.w	r3, [r7, #176]	@ 0xb0
 8002900:	f8d7 30b0 	ldr.w	r3, [r7, #176]	@ 0xb0
 8002904:	2b00      	cmp	r3, #0
 8002906:	d101      	bne.n	800290c <HAL_ADC_ConfigChannel+0x1cc>
 8002908:	2320      	movs	r3, #32
 800290a:	e004      	b.n	8002916 <HAL_ADC_ConfigChannel+0x1d6>
 800290c:	f8d7 30b0 	ldr.w	r3, [r7, #176]	@ 0xb0
 8002910:	fab3 f383 	clz	r3, r3
 8002914:	b2db      	uxtb	r3, r3
 8002916:	429a      	cmp	r2, r3
 8002918:	d106      	bne.n	8002928 <HAL_ADC_ConfigChannel+0x1e8>
 800291a:	687b      	ldr	r3, [r7, #4]
 800291c:	681b      	ldr	r3, [r3, #0]
 800291e:	2200      	movs	r2, #0
 8002920:	2100      	movs	r1, #0
 8002922:	4618      	mov	r0, r3
 8002924:	f7ff fbae 	bl	8002084 <LL_ADC_SetOffsetState>
 8002928:	687b      	ldr	r3, [r7, #4]
 800292a:	681b      	ldr	r3, [r3, #0]
 800292c:	2101      	movs	r1, #1
 800292e:	4618      	mov	r0, r3
 8002930:	f7ff fb92 	bl	8002058 <LL_ADC_GetOffsetChannel>
 8002934:	4603      	mov	r3, r0
 8002936:	f3c3 0312 	ubfx	r3, r3, #0, #19
 800293a:	2b00      	cmp	r3, #0
 800293c:	d10a      	bne.n	8002954 <HAL_ADC_ConfigChannel+0x214>
 800293e:	687b      	ldr	r3, [r7, #4]
 8002940:	681b      	ldr	r3, [r3, #0]
 8002942:	2101      	movs	r1, #1
 8002944:	4618      	mov	r0, r3
 8002946:	f7ff fb87 	bl	8002058 <LL_ADC_GetOffsetChannel>
 800294a:	4603      	mov	r3, r0
 800294c:	0e9b      	lsrs	r3, r3, #26
 800294e:	f003 021f 	and.w	r2, r3, #31
 8002952:	e01e      	b.n	8002992 <HAL_ADC_ConfigChannel+0x252>
 8002954:	687b      	ldr	r3, [r7, #4]
 8002956:	681b      	ldr	r3, [r3, #0]
 8002958:	2101      	movs	r1, #1
 800295a:	4618      	mov	r0, r3
 800295c:	f7ff fb7c 	bl	8002058 <LL_ADC_GetOffsetChannel>
 8002960:	4603      	mov	r3, r0
 8002962:	f8c7 30a0 	str.w	r3, [r7, #160]	@ 0xa0
 8002966:	f8d7 30a0 	ldr.w	r3, [r7, #160]	@ 0xa0
 800296a:	fa93 f3a3 	rbit	r3, r3
 800296e:	f8c7 309c 	str.w	r3, [r7, #156]	@ 0x9c
 8002972:	f8d7 309c 	ldr.w	r3, [r7, #156]	@ 0x9c
 8002976:	f8c7 30a4 	str.w	r3, [r7, #164]	@ 0xa4
 800297a:	f8d7 30a4 	ldr.w	r3, [r7, #164]	@ 0xa4
 800297e:	2b00      	cmp	r3, #0
 8002980:	d101      	bne.n	8002986 <HAL_ADC_ConfigChannel+0x246>
 8002982:	2320      	movs	r3, #32
 8002984:	e004      	b.n	8002990 <HAL_ADC_ConfigChannel+0x250>
 8002986:	f8d7 30a4 	ldr.w	r3, [r7, #164]	@ 0xa4
 800298a:	fab3 f383 	clz	r3, r3
 800298e:	b2db      	uxtb	r3, r3
 8002990:	461a      	mov	r2, r3
 8002992:	683b      	ldr	r3, [r7, #0]
 8002994:	681b      	ldr	r3, [r3, #0]
 8002996:	f3c3 0312 	ubfx	r3, r3, #0, #19
 800299a:	2b00      	cmp	r3, #0
 800299c:	d105      	bne.n	80029aa <HAL_ADC_ConfigChannel+0x26a>
 800299e:	683b      	ldr	r3, [r7, #0]
 80029a0:	681b      	ldr	r3, [r3, #0]
 80029a2:	0e9b      	lsrs	r3, r3, #26
 80029a4:	f003 031f 	and.w	r3, r3, #31
 80029a8:	e018      	b.n	80029dc <HAL_ADC_ConfigChannel+0x29c>
 80029aa:	683b      	ldr	r3, [r7, #0]
 80029ac:	681b      	ldr	r3, [r3, #0]
 80029ae:	f8c7 3094 	str.w	r3, [r7, #148]	@ 0x94
 80029b2:	f8d7 3094 	ldr.w	r3, [r7, #148]	@ 0x94
 80029b6:	fa93 f3a3 	rbit	r3, r3
 80029ba:	f8c7 3090 	str.w	r3, [r7, #144]	@ 0x90
 80029be:	f8d7 3090 	ldr.w	r3, [r7, #144]	@ 0x90
 80029c2:	f8c7 3098 	str.w	r3, [r7, #152]	@ 0x98
 80029c6:	f8d7 3098 	ldr.w	r3, [r7, #152]	@ 0x98
 80029ca:	2b00      	cmp	r3, #0
 80029cc:	d101      	bne.n	80029d2 <HAL_ADC_ConfigChannel+0x292>
 80029ce:	2320      	movs	r3, #32
 80029d0:	e004      	b.n	80029dc <HAL_ADC_ConfigChannel+0x29c>
 80029d2:	f8d7 3098 	ldr.w	r3, [r7, #152]	@ 0x98
 80029d6:	fab3 f383 	clz	r3, r3
 80029da:	b2db      	uxtb	r3, r3
 80029dc:	429a      	cmp	r2, r3
 80029de:	d106      	bne.n	80029ee <HAL_ADC_ConfigChannel+0x2ae>
 80029e0:	687b      	ldr	r3, [r7, #4]
 80029e2:	681b      	ldr	r3, [r3, #0]
 80029e4:	2200      	movs	r2, #0
 80029e6:	2101      	movs	r1, #1
 80029e8:	4618      	mov	r0, r3
 80029ea:	f7ff fb4b 	bl	8002084 <LL_ADC_SetOffsetState>
 80029ee:	687b      	ldr	r3, [r7, #4]
 80029f0:	681b      	ldr	r3, [r3, #0]
 80029f2:	2102      	movs	r1, #2
 80029f4:	4618      	mov	r0, r3
 80029f6:	f7ff fb2f 	bl	8002058 <LL_ADC_GetOffsetChannel>
 80029fa:	4603      	mov	r3, r0
 80029fc:	f3c3 0312 	ubfx	r3, r3, #0, #19
 8002a00:	2b00      	cmp	r3, #0
 8002a02:	d10a      	bne.n	8002a1a <HAL_ADC_ConfigChannel+0x2da>
 8002a04:	687b      	ldr	r3, [r7, #4]
 8002a06:	681b      	ldr	r3, [r3, #0]
 8002a08:	2102      	movs	r1, #2
 8002a0a:	4618      	mov	r0, r3
 8002a0c:	f7ff fb24 	bl	8002058 <LL_ADC_GetOffsetChannel>
 8002a10:	4603      	mov	r3, r0
 8002a12:	0e9b      	lsrs	r3, r3, #26
 8002a14:	f003 021f 	and.w	r2, r3, #31
 8002a18:	e01e      	b.n	8002a58 <HAL_ADC_ConfigChannel+0x318>
 8002a1a:	687b      	ldr	r3, [r7, #4]
 8002a1c:	681b      	ldr	r3, [r3, #0]
 8002a1e:	2102      	movs	r1, #2
 8002a20:	4618      	mov	r0, r3
 8002a22:	f7ff fb19 	bl	8002058 <LL_ADC_GetOffsetChannel>
 8002a26:	4603      	mov	r3, r0
 8002a28:	f8c7 3088 	str.w	r3, [r7, #136]	@ 0x88
 8002a2c:	f8d7 3088 	ldr.w	r3, [r7, #136]	@ 0x88
 8002a30:	fa93 f3a3 	rbit	r3, r3
 8002a34:	f8c7 3084 	str.w	r3, [r7, #132]	@ 0x84
 8002a38:	f8d7 3084 	ldr.w	r3, [r7, #132]	@ 0x84
 8002a3c:	f8c7 308c 	str.w	r3, [r7, #140]	@ 0x8c
 8002a40:	f8d7 308c 	ldr.w	r3, [r7, #140]	@ 0x8c
 8002a44:	2b00      	cmp	r3, #0
 8002a46:	d101      	bne.n	8002a4c <HAL_ADC_ConfigChannel+0x30c>
 8002a48:	2320      	movs	r3, #32
 8002a4a:	e004      	b.n	8002a56 <HAL_ADC_ConfigChannel+0x316>
 8002a4c:	f8d7 308c 	ldr.w	r3, [r7, #140]	@ 0x8c
 8002a50:	fab3 f383 	clz	r3, r3
 8002a54:	b2db      	uxtb	r3, r3
 8002a56:	461a      	mov	r2, r3
 8002a58:	683b      	ldr	r3, [r7, #0]
 8002a5a:	681b      	ldr	r3, [r3, #0]
 8002a5c:	f3c3 0312 	ubfx	r3, r3, #0, #19
 8002a60:	2b00      	cmp	r3, #0
 8002a62:	d105      	bne.n	8002a70 <HAL_ADC_ConfigChannel+0x330>
 8002a64:	683b      	ldr	r3, [r7, #0]
 8002a66:	681b      	ldr	r3, [r3, #0]
 8002a68:	0e9b      	lsrs	r3, r3, #26
 8002a6a:	f003 031f 	and.w	r3, r3, #31
 8002a6e:	e014      	b.n	8002a9a <HAL_ADC_ConfigChannel+0x35a>
 8002a70:	683b      	ldr	r3, [r7, #0]
 8002a72:	681b      	ldr	r3, [r3, #0]
 8002a74:	67fb      	str	r3, [r7, #124]	@ 0x7c
 8002a76:	6ffb      	ldr	r3, [r7, #124]	@ 0x7c
 8002a78:	fa93 f3a3 	rbit	r3, r3
 8002a7c:	67bb      	str	r3, [r7, #120]	@ 0x78
 8002a7e:	6fbb      	ldr	r3, [r7, #120]	@ 0x78
 8002a80:	f8c7 3080 	str.w	r3, [r7, #128]	@ 0x80
 8002a84:	f8d7 3080 	ldr.w	r3, [r7, #128]	@ 0x80
 8002a88:	2b00      	cmp	r3, #0
 8002a8a:	d101      	bne.n	8002a90 <HAL_ADC_ConfigChannel+0x350>
 8002a8c:	2320      	movs	r3, #32
 8002a8e:	e004      	b.n	8002a9a <HAL_ADC_ConfigChannel+0x35a>
 8002a90:	f8d7 3080 	ldr.w	r3, [r7, #128]	@ 0x80
 8002a94:	fab3 f383 	clz	r3, r3
 8002a98:	b2db      	uxtb	r3, r3
 8002a9a:	429a      	cmp	r2, r3
 8002a9c:	d106      	bne.n	8002aac <HAL_ADC_ConfigChannel+0x36c>
 8002a9e:	687b      	ldr	r3, [r7, #4]
 8002aa0:	681b      	ldr	r3, [r3, #0]
 8002aa2:	2200      	movs	r2, #0
 8002aa4:	2102      	movs	r1, #2
 8002aa6:	4618      	mov	r0, r3
 8002aa8:	f7ff faec 	bl	8002084 <LL_ADC_SetOffsetState>
 8002aac:	687b      	ldr	r3, [r7, #4]
 8002aae:	681b      	ldr	r3, [r3, #0]
 8002ab0:	2103      	movs	r1, #3
 8002ab2:	4618      	mov	r0, r3
 8002ab4:	f7ff fad0 	bl	8002058 <LL_ADC_GetOffsetChannel>
 8002ab8:	4603      	mov	r3, r0
 8002aba:	f3c3 0312 	ubfx	r3, r3, #0, #19
 8002abe:	2b00      	cmp	r3, #0
 8002ac0:	d10a      	bne.n	8002ad8 <HAL_ADC_ConfigChannel+0x398>
 8002ac2:	687b      	ldr	r3, [r7, #4]
 8002ac4:	681b      	ldr	r3, [r3, #0]
 8002ac6:	2103      	movs	r1, #3
 8002ac8:	4618      	mov	r0, r3
 8002aca:	f7ff fac5 	bl	8002058 <LL_ADC_GetOffsetChannel>
 8002ace:	4603      	mov	r3, r0
 8002ad0:	0e9b      	lsrs	r3, r3, #26
 8002ad2:	f003 021f 	and.w	r2, r3, #31
 8002ad6:	e017      	b.n	8002b08 <HAL_ADC_ConfigChannel+0x3c8>
 8002ad8:	687b      	ldr	r3, [r7, #4]
 8002ada:	681b      	ldr	r3, [r3, #0]
 8002adc:	2103      	movs	r1, #3
 8002ade:	4618      	mov	r0, r3
 8002ae0:	f7ff faba 	bl	8002058 <LL_ADC_GetOffsetChannel>
 8002ae4:	4603      	mov	r3, r0
 8002ae6:	673b      	str	r3, [r7, #112]	@ 0x70
 8002ae8:	6f3b      	ldr	r3, [r7, #112]	@ 0x70
 8002aea:	fa93 f3a3 	rbit	r3, r3
 8002aee:	66fb      	str	r3, [r7, #108]	@ 0x6c
 8002af0:	6efb      	ldr	r3, [r7, #108]	@ 0x6c
 8002af2:	677b      	str	r3, [r7, #116]	@ 0x74
 8002af4:	6f7b      	ldr	r3, [r7, #116]	@ 0x74
 8002af6:	2b00      	cmp	r3, #0
 8002af8:	d101      	bne.n	8002afe <HAL_ADC_ConfigChannel+0x3be>
 8002afa:	2320      	movs	r3, #32
 8002afc:	e003      	b.n	8002b06 <HAL_ADC_ConfigChannel+0x3c6>
 8002afe:	6f7b      	ldr	r3, [r7, #116]	@ 0x74
 8002b00:	fab3 f383 	clz	r3, r3
 8002b04:	b2db      	uxtb	r3, r3
 8002b06:	461a      	mov	r2, r3
 8002b08:	683b      	ldr	r3, [r7, #0]
 8002b0a:	681b      	ldr	r3, [r3, #0]
 8002b0c:	f3c3 0312 	ubfx	r3, r3, #0, #19
 8002b10:	2b00      	cmp	r3, #0
 8002b12:	d105      	bne.n	8002b20 <HAL_ADC_ConfigChannel+0x3e0>
 8002b14:	683b      	ldr	r3, [r7, #0]
 8002b16:	681b      	ldr	r3, [r3, #0]
 8002b18:	0e9b      	lsrs	r3, r3, #26
 8002b1a:	f003 031f 	and.w	r3, r3, #31
 8002b1e:	e011      	b.n	8002b44 <HAL_ADC_ConfigChannel+0x404>
 8002b20:	683b      	ldr	r3, [r7, #0]
 8002b22:	681b      	ldr	r3, [r3, #0]
 8002b24:	667b      	str	r3, [r7, #100]	@ 0x64
 8002b26:	6e7b      	ldr	r3, [r7, #100]	@ 0x64
 8002b28:	fa93 f3a3 	rbit	r3, r3
 8002b2c:	663b      	str	r3, [r7, #96]	@ 0x60
 8002b2e:	6e3b      	ldr	r3, [r7, #96]	@ 0x60
 8002b30:	66bb      	str	r3, [r7, #104]	@ 0x68
 8002b32:	6ebb      	ldr	r3, [r7, #104]	@ 0x68
 8002b34:	2b00      	cmp	r3, #0
 8002b36:	d101      	bne.n	8002b3c <HAL_ADC_ConfigChannel+0x3fc>
 8002b38:	2320      	movs	r3, #32
 8002b3a:	e003      	b.n	8002b44 <HAL_ADC_ConfigChannel+0x404>
 8002b3c:	6ebb      	ldr	r3, [r7, #104]	@ 0x68
 8002b3e:	fab3 f383 	clz	r3, r3
 8002b42:	b2db      	uxtb	r3, r3
 8002b44:	429a      	cmp	r2, r3
 8002b46:	d106      	bne.n	8002b56 <HAL_ADC_ConfigChannel+0x416>
 8002b48:	687b      	ldr	r3, [r7, #4]
 8002b4a:	681b      	ldr	r3, [r3, #0]
 8002b4c:	2200      	movs	r2, #0
 8002b4e:	2103      	movs	r1, #3
 8002b50:	4618      	mov	r0, r3
 8002b52:	f7ff fa97 	bl	8002084 <LL_ADC_SetOffsetState>
 8002b56:	687b      	ldr	r3, [r7, #4]
 8002b58:	681b      	ldr	r3, [r3, #0]
 8002b5a:	4618      	mov	r0, r3
 8002b5c:	f7ff fb98 	bl	8002290 <LL_ADC_IsEnabled>
 8002b60:	4603      	mov	r3, r0
 8002b62:	2b00      	cmp	r3, #0
 8002b64:	f040 8140 	bne.w	8002de8 <HAL_ADC_ConfigChannel+0x6a8>
 8002b68:	687b      	ldr	r3, [r7, #4]
 8002b6a:	6818      	ldr	r0, [r3, #0]
 8002b6c:	683b      	ldr	r3, [r7, #0]
 8002b6e:	6819      	ldr	r1, [r3, #0]
 8002b70:	683b      	ldr	r3, [r7, #0]
 8002b72:	68db      	ldr	r3, [r3, #12]
 8002b74:	461a      	mov	r2, r3
 8002b76:	f7ff faf7 	bl	8002168 <LL_ADC_SetChannelSingleDiff>
 8002b7a:	683b      	ldr	r3, [r7, #0]
 8002b7c:	68db      	ldr	r3, [r3, #12]
 8002b7e:	4a8f      	ldr	r2, [pc, #572]	@ (8002dbc <HAL_ADC_ConfigChannel+0x67c>)
 8002b80:	4293      	cmp	r3, r2
 8002b82:	f040 8131 	bne.w	8002de8 <HAL_ADC_ConfigChannel+0x6a8>
 8002b86:	687b      	ldr	r3, [r7, #4]
 8002b88:	6818      	ldr	r0, [r3, #0]
 8002b8a:	683b      	ldr	r3, [r7, #0]
 8002b8c:	681b      	ldr	r3, [r3, #0]
 8002b8e:	f3c3 0312 	ubfx	r3, r3, #0, #19
 8002b92:	2b00      	cmp	r3, #0
 8002b94:	d10b      	bne.n	8002bae <HAL_ADC_ConfigChannel+0x46e>
 8002b96:	683b      	ldr	r3, [r7, #0]
 8002b98:	681b      	ldr	r3, [r3, #0]
 8002b9a:	0e9b      	lsrs	r3, r3, #26
 8002b9c:	3301      	adds	r3, #1
 8002b9e:	f003 031f 	and.w	r3, r3, #31
 8002ba2:	2b09      	cmp	r3, #9
 8002ba4:	bf94      	ite	ls
 8002ba6:	2301      	movls	r3, #1
 8002ba8:	2300      	movhi	r3, #0
 8002baa:	b2db      	uxtb	r3, r3
 8002bac:	e019      	b.n	8002be2 <HAL_ADC_ConfigChannel+0x4a2>
 8002bae:	683b      	ldr	r3, [r7, #0]
 8002bb0:	681b      	ldr	r3, [r3, #0]
 8002bb2:	65bb      	str	r3, [r7, #88]	@ 0x58
 8002bb4:	6dbb      	ldr	r3, [r7, #88]	@ 0x58
 8002bb6:	fa93 f3a3 	rbit	r3, r3
 8002bba:	657b      	str	r3, [r7, #84]	@ 0x54
 8002bbc:	6d7b      	ldr	r3, [r7, #84]	@ 0x54
 8002bbe:	65fb      	str	r3, [r7, #92]	@ 0x5c
 8002bc0:	6dfb      	ldr	r3, [r7, #92]	@ 0x5c
 8002bc2:	2b00      	cmp	r3, #0
 8002bc4:	d101      	bne.n	8002bca <HAL_ADC_ConfigChannel+0x48a>
 8002bc6:	2320      	movs	r3, #32
 8002bc8:	e003      	b.n	8002bd2 <HAL_ADC_ConfigChannel+0x492>
 8002bca:	6dfb      	ldr	r3, [r7, #92]	@ 0x5c
 8002bcc:	fab3 f383 	clz	r3, r3
 8002bd0:	b2db      	uxtb	r3, r3
 8002bd2:	3301      	adds	r3, #1
 8002bd4:	f003 031f 	and.w	r3, r3, #31
 8002bd8:	2b09      	cmp	r3, #9
 8002bda:	bf94      	ite	ls
 8002bdc:	2301      	movls	r3, #1
 8002bde:	2300      	movhi	r3, #0
 8002be0:	b2db      	uxtb	r3, r3
 8002be2:	2b00      	cmp	r3, #0
 8002be4:	d079      	beq.n	8002cda <HAL_ADC_ConfigChannel+0x59a>
 8002be6:	683b      	ldr	r3, [r7, #0]
 8002be8:	681b      	ldr	r3, [r3, #0]
 8002bea:	f3c3 0312 	ubfx	r3, r3, #0, #19
 8002bee:	2b00      	cmp	r3, #0
 8002bf0:	d107      	bne.n	8002c02 <HAL_ADC_ConfigChannel+0x4c2>
 8002bf2:	683b      	ldr	r3, [r7, #0]
 8002bf4:	681b      	ldr	r3, [r3, #0]
 8002bf6:	0e9b      	lsrs	r3, r3, #26
 8002bf8:	3301      	adds	r3, #1
 8002bfa:	069b      	lsls	r3, r3, #26
 8002bfc:	f003 42f8 	and.w	r2, r3, #2080374784	@ 0x7c000000
 8002c00:	e015      	b.n	8002c2e <HAL_ADC_ConfigChannel+0x4ee>
 8002c02:	683b      	ldr	r3, [r7, #0]
 8002c04:	681b      	ldr	r3, [r3, #0]
 8002c06:	64fb      	str	r3, [r7, #76]	@ 0x4c
 8002c08:	6cfb      	ldr	r3, [r7, #76]	@ 0x4c
 8002c0a:	fa93 f3a3 	rbit	r3, r3
 8002c0e:	64bb      	str	r3, [r7, #72]	@ 0x48
 8002c10:	6cbb      	ldr	r3, [r7, #72]	@ 0x48
 8002c12:	653b      	str	r3, [r7, #80]	@ 0x50
 8002c14:	6d3b      	ldr	r3, [r7, #80]	@ 0x50
 8002c16:	2b00      	cmp	r3, #0
 8002c18:	d101      	bne.n	8002c1e <HAL_ADC_ConfigChannel+0x4de>
 8002c1a:	2320      	movs	r3, #32
 8002c1c:	e003      	b.n	8002c26 <HAL_ADC_ConfigChannel+0x4e6>
 8002c1e:	6d3b      	ldr	r3, [r7, #80]	@ 0x50
 8002c20:	fab3 f383 	clz	r3, r3
 8002c24:	b2db      	uxtb	r3, r3
 8002c26:	3301      	adds	r3, #1
 8002c28:	069b      	lsls	r3, r3, #26
 8002c2a:	f003 42f8 	and.w	r2, r3, #2080374784	@ 0x7c000000
 8002c2e:	683b      	ldr	r3, [r7, #0]
 8002c30:	681b      	ldr	r3, [r3, #0]
 8002c32:	f3c3 0312 	ubfx	r3, r3, #0, #19
 8002c36:	2b00      	cmp	r3, #0
 8002c38:	d109      	bne.n	8002c4e <HAL_ADC_ConfigChannel+0x50e>
 8002c3a:	683b      	ldr	r3, [r7, #0]
 8002c3c:	681b      	ldr	r3, [r3, #0]
 8002c3e:	0e9b      	lsrs	r3, r3, #26
 8002c40:	3301      	adds	r3, #1
 8002c42:	f003 031f 	and.w	r3, r3, #31
 8002c46:	2101      	movs	r1, #1
 8002c48:	fa01 f303 	lsl.w	r3, r1, r3
 8002c4c:	e017      	b.n	8002c7e <HAL_ADC_ConfigChannel+0x53e>
 8002c4e:	683b      	ldr	r3, [r7, #0]
 8002c50:	681b      	ldr	r3, [r3, #0]
 8002c52:	643b      	str	r3, [r7, #64]	@ 0x40
 8002c54:	6c3b      	ldr	r3, [r7, #64]	@ 0x40
 8002c56:	fa93 f3a3 	rbit	r3, r3
 8002c5a:	63fb      	str	r3, [r7, #60]	@ 0x3c
 8002c5c:	6bfb      	ldr	r3, [r7, #60]	@ 0x3c
 8002c5e:	647b      	str	r3, [r7, #68]	@ 0x44
 8002c60:	6c7b      	ldr	r3, [r7, #68]	@ 0x44
 8002c62:	2b00      	cmp	r3, #0
 8002c64:	d101      	bne.n	8002c6a <HAL_ADC_ConfigChannel+0x52a>
 8002c66:	2320      	movs	r3, #32
 8002c68:	e003      	b.n	8002c72 <HAL_ADC_ConfigChannel+0x532>
 8002c6a:	6c7b      	ldr	r3, [r7, #68]	@ 0x44
 8002c6c:	fab3 f383 	clz	r3, r3
 8002c70:	b2db      	uxtb	r3, r3
 8002c72:	3301      	adds	r3, #1
 8002c74:	f003 031f 	and.w	r3, r3, #31
 8002c78:	2101      	movs	r1, #1
 8002c7a:	fa01 f303 	lsl.w	r3, r1, r3
 8002c7e:	ea42 0103 	orr.w	r1, r2, r3
 8002c82:	683b      	ldr	r3, [r7, #0]
 8002c84:	681b      	ldr	r3, [r3, #0]
 8002c86:	f3c3 0312 	ubfx	r3, r3, #0, #19
 8002c8a:	2b00      	cmp	r3, #0
 8002c8c:	d10a      	bne.n	8002ca4 <HAL_ADC_ConfigChannel+0x564>
 8002c8e:	683b      	ldr	r3, [r7, #0]
 8002c90:	681b      	ldr	r3, [r3, #0]
 8002c92:	0e9b      	lsrs	r3, r3, #26
 8002c94:	3301      	adds	r3, #1
 8002c96:	f003 021f 	and.w	r2, r3, #31
 8002c9a:	4613      	mov	r3, r2
 8002c9c:	005b      	lsls	r3, r3, #1
 8002c9e:	4413      	add	r3, r2
 8002ca0:	051b      	lsls	r3, r3, #20
 8002ca2:	e018      	b.n	8002cd6 <HAL_ADC_ConfigChannel+0x596>
 8002ca4:	683b      	ldr	r3, [r7, #0]
 8002ca6:	681b      	ldr	r3, [r3, #0]
 8002ca8:	637b      	str	r3, [r7, #52]	@ 0x34
 8002caa:	6b7b      	ldr	r3, [r7, #52]	@ 0x34
 8002cac:	fa93 f3a3 	rbit	r3, r3
 8002cb0:	633b      	str	r3, [r7, #48]	@ 0x30
 8002cb2:	6b3b      	ldr	r3, [r7, #48]	@ 0x30
 8002cb4:	63bb      	str	r3, [r7, #56]	@ 0x38
 8002cb6:	6bbb      	ldr	r3, [r7, #56]	@ 0x38
 8002cb8:	2b00      	cmp	r3, #0
 8002cba:	d101      	bne.n	8002cc0 <HAL_ADC_ConfigChannel+0x580>
 8002cbc:	2320      	movs	r3, #32
 8002cbe:	e003      	b.n	8002cc8 <HAL_ADC_ConfigChannel+0x588>
 8002cc0:	6bbb      	ldr	r3, [r7, #56]	@ 0x38
 8002cc2:	fab3 f383 	clz	r3, r3
 8002cc6:	b2db      	uxtb	r3, r3
 8002cc8:	3301      	adds	r3, #1
 8002cca:	f003 021f 	and.w	r2, r3, #31
 8002cce:	4613      	mov	r3, r2
 8002cd0:	005b      	lsls	r3, r3, #1
 8002cd2:	4413      	add	r3, r2
 8002cd4:	051b      	lsls	r3, r3, #20
 8002cd6:	430b      	orrs	r3, r1
 8002cd8:	e081      	b.n	8002dde <HAL_ADC_ConfigChannel+0x69e>
 8002cda:	683b      	ldr	r3, [r7, #0]
 8002cdc:	681b      	ldr	r3, [r3, #0]
 8002cde:	f3c3 0312 	ubfx	r3, r3, #0, #19
 8002ce2:	2b00      	cmp	r3, #0
 8002ce4:	d107      	bne.n	8002cf6 <HAL_ADC_ConfigChannel+0x5b6>
 8002ce6:	683b      	ldr	r3, [r7, #0]
 8002ce8:	681b      	ldr	r3, [r3, #0]
 8002cea:	0e9b      	lsrs	r3, r3, #26
 8002cec:	3301      	adds	r3, #1
 8002cee:	069b      	lsls	r3, r3, #26
 8002cf0:	f003 42f8 	and.w	r2, r3, #2080374784	@ 0x7c000000
 8002cf4:	e015      	b.n	8002d22 <HAL_ADC_ConfigChannel+0x5e2>
 8002cf6:	683b      	ldr	r3, [r7, #0]
 8002cf8:	681b      	ldr	r3, [r3, #0]
 8002cfa:	62bb      	str	r3, [r7, #40]	@ 0x28
 8002cfc:	6abb      	ldr	r3, [r7, #40]	@ 0x28
 8002cfe:	fa93 f3a3 	rbit	r3, r3
 8002d02:	627b      	str	r3, [r7, #36]	@ 0x24
 8002d04:	6a7b      	ldr	r3, [r7, #36]	@ 0x24
 8002d06:	62fb      	str	r3, [r7, #44]	@ 0x2c
 8002d08:	6afb      	ldr	r3, [r7, #44]	@ 0x2c
 8002d0a:	2b00      	cmp	r3, #0
 8002d0c:	d101      	bne.n	8002d12 <HAL_ADC_ConfigChannel+0x5d2>
 8002d0e:	2320      	movs	r3, #32
 8002d10:	e003      	b.n	8002d1a <HAL_ADC_ConfigChannel+0x5da>
 8002d12:	6afb      	ldr	r3, [r7, #44]	@ 0x2c
 8002d14:	fab3 f383 	clz	r3, r3
 8002d18:	b2db      	uxtb	r3, r3
 8002d1a:	3301      	adds	r3, #1
 8002d1c:	069b      	lsls	r3, r3, #26
 8002d1e:	f003 42f8 	and.w	r2, r3, #2080374784	@ 0x7c000000
 8002d22:	683b      	ldr	r3, [r7, #0]
 8002d24:	681b      	ldr	r3, [r3, #0]
 8002d26:	f3c3 0312 	ubfx	r3, r3, #0, #19
 8002d2a:	2b00      	cmp	r3, #0
 8002d2c:	d109      	bne.n	8002d42 <HAL_ADC_ConfigChannel+0x602>
 8002d2e:	683b      	ldr	r3, [r7, #0]
 8002d30:	681b      	ldr	r3, [r3, #0]
 8002d32:	0e9b      	lsrs	r3, r3, #26
 8002d34:	3301      	adds	r3, #1
 8002d36:	f003 031f 	and.w	r3, r3, #31
 8002d3a:	2101      	movs	r1, #1
 8002d3c:	fa01 f303 	lsl.w	r3, r1, r3
 8002d40:	e017      	b.n	8002d72 <HAL_ADC_ConfigChannel+0x632>
 8002d42:	683b      	ldr	r3, [r7, #0]
 8002d44:	681b      	ldr	r3, [r3, #0]
 8002d46:	61fb      	str	r3, [r7, #28]
 8002d48:	69fb      	ldr	r3, [r7, #28]
 8002d4a:	fa93 f3a3 	rbit	r3, r3
 8002d4e:	61bb      	str	r3, [r7, #24]
 8002d50:	69bb      	ldr	r3, [r7, #24]
 8002d52:	623b      	str	r3, [r7, #32]
 8002d54:	6a3b      	ldr	r3, [r7, #32]
 8002d56:	2b00      	cmp	r3, #0
 8002d58:	d101      	bne.n	8002d5e <HAL_ADC_ConfigChannel+0x61e>
 8002d5a:	2320      	movs	r3, #32
 8002d5c:	e003      	b.n	8002d66 <HAL_ADC_ConfigChannel+0x626>
 8002d5e:	6a3b      	ldr	r3, [r7, #32]
 8002d60:	fab3 f383 	clz	r3, r3
 8002d64:	b2db      	uxtb	r3, r3
 8002d66:	3301      	adds	r3, #1
 8002d68:	f003 031f 	and.w	r3, r3, #31
 8002d6c:	2101      	movs	r1, #1
 8002d6e:	fa01 f303 	lsl.w	r3, r1, r3
 8002d72:	ea42 0103 	orr.w	r1, r2, r3
 8002d76:	683b      	ldr	r3, [r7, #0]
 8002d78:	681b      	ldr	r3, [r3, #0]
 8002d7a:	f3c3 0312 	ubfx	r3, r3, #0, #19
 8002d7e:	2b00      	cmp	r3, #0
 8002d80:	d10d      	bne.n	8002d9e <HAL_ADC_ConfigChannel+0x65e>
 8002d82:	683b      	ldr	r3, [r7, #0]
 8002d84:	681b      	ldr	r3, [r3, #0]
 8002d86:	0e9b      	lsrs	r3, r3, #26
 8002d88:	3301      	adds	r3, #1
 8002d8a:	f003 021f 	and.w	r2, r3, #31
 8002d8e:	4613      	mov	r3, r2
 8002d90:	005b      	lsls	r3, r3, #1
 8002d92:	4413      	add	r3, r2
 8002d94:	3b1e      	subs	r3, #30
 8002d96:	051b      	lsls	r3, r3, #20
 8002d98:	f043 7300 	orr.w	r3, r3, #33554432	@ 0x2000000
 8002d9c:	e01e      	b.n	8002ddc <HAL_ADC_ConfigChannel+0x69c>
 8002d9e:	683b      	ldr	r3, [r7, #0]
 8002da0:	681b      	ldr	r3, [r3, #0]
 8002da2:	613b      	str	r3, [r7, #16]
 8002da4:	693b      	ldr	r3, [r7, #16]
 8002da6:	fa93 f3a3 	rbit	r3, r3
 8002daa:	60fb      	str	r3, [r7, #12]
 8002dac:	68fb      	ldr	r3, [r7, #12]
 8002dae:	617b      	str	r3, [r7, #20]
 8002db0:	697b      	ldr	r3, [r7, #20]
 8002db2:	2b00      	cmp	r3, #0
 8002db4:	d104      	bne.n	8002dc0 <HAL_ADC_ConfigChannel+0x680>
 8002db6:	2320      	movs	r3, #32
 8002db8:	e006      	b.n	8002dc8 <HAL_ADC_ConfigChannel+0x688>
 8002dba:	bf00      	nop
 8002dbc:	407f0000 	.word	0x407f0000
 8002dc0:	697b      	ldr	r3, [r7, #20]
 8002dc2:	fab3 f383 	clz	r3, r3
 8002dc6:	b2db      	uxtb	r3, r3
 8002dc8:	3301      	adds	r3, #1
 8002dca:	f003 021f 	and.w	r2, r3, #31
 8002dce:	4613      	mov	r3, r2
 8002dd0:	005b      	lsls	r3, r3, #1
 8002dd2:	4413      	add	r3, r2
 8002dd4:	3b1e      	subs	r3, #30
 8002dd6:	051b      	lsls	r3, r3, #20
 8002dd8:	f043 7300 	orr.w	r3, r3, #33554432	@ 0x2000000
 8002ddc:	430b      	orrs	r3, r1
 8002dde:	683a      	ldr	r2, [r7, #0]
 8002de0:	6892      	ldr	r2, [r2, #8]
 8002de2:	4619      	mov	r1, r3
 8002de4:	f7ff f995 	bl	8002112 <LL_ADC_SetChannelSamplingTime>
 8002de8:	683b      	ldr	r3, [r7, #0]
 8002dea:	681a      	ldr	r2, [r3, #0]
 8002dec:	4b44      	ldr	r3, [pc, #272]	@ (8002f00 <HAL_ADC_ConfigChannel+0x7c0>)
 8002dee:	4013      	ands	r3, r2
 8002df0:	2b00      	cmp	r3, #0
 8002df2:	d07a      	beq.n	8002eea <HAL_ADC_ConfigChannel+0x7aa>
 8002df4:	4843      	ldr	r0, [pc, #268]	@ (8002f04 <HAL_ADC_ConfigChannel+0x7c4>)
 8002df6:	f7ff f8fd 	bl	8001ff4 <LL_ADC_GetCommonPathInternalCh>
 8002dfa:	f8c7 00c0 	str.w	r0, [r7, #192]	@ 0xc0
 8002dfe:	683b      	ldr	r3, [r7, #0]
 8002e00:	681b      	ldr	r3, [r3, #0]
 8002e02:	4a41      	ldr	r2, [pc, #260]	@ (8002f08 <HAL_ADC_ConfigChannel+0x7c8>)
 8002e04:	4293      	cmp	r3, r2
 8002e06:	d12c      	bne.n	8002e62 <HAL_ADC_ConfigChannel+0x722>
 8002e08:	f8d7 30c0 	ldr.w	r3, [r7, #192]	@ 0xc0
 8002e0c:	f403 0300 	and.w	r3, r3, #8388608	@ 0x800000
 8002e10:	2b00      	cmp	r3, #0
 8002e12:	d126      	bne.n	8002e62 <HAL_ADC_ConfigChannel+0x722>
 8002e14:	687b      	ldr	r3, [r7, #4]
 8002e16:	681b      	ldr	r3, [r3, #0]
 8002e18:	4a3c      	ldr	r2, [pc, #240]	@ (8002f0c <HAL_ADC_ConfigChannel+0x7cc>)
 8002e1a:	4293      	cmp	r3, r2
 8002e1c:	d004      	beq.n	8002e28 <HAL_ADC_ConfigChannel+0x6e8>
 8002e1e:	687b      	ldr	r3, [r7, #4]
 8002e20:	681b      	ldr	r3, [r3, #0]
 8002e22:	4a3b      	ldr	r2, [pc, #236]	@ (8002f10 <HAL_ADC_ConfigChannel+0x7d0>)
 8002e24:	4293      	cmp	r3, r2
 8002e26:	d15d      	bne.n	8002ee4 <HAL_ADC_ConfigChannel+0x7a4>
 8002e28:	f8d7 30c0 	ldr.w	r3, [r7, #192]	@ 0xc0
 8002e2c:	f443 0300 	orr.w	r3, r3, #8388608	@ 0x800000
 8002e30:	4619      	mov	r1, r3
 8002e32:	4834      	ldr	r0, [pc, #208]	@ (8002f04 <HAL_ADC_ConfigChannel+0x7c4>)
 8002e34:	f7ff f8cb 	bl	8001fce <LL_ADC_SetCommonPathInternalCh>
 8002e38:	4b36      	ldr	r3, [pc, #216]	@ (8002f14 <HAL_ADC_ConfigChannel+0x7d4>)
 8002e3a:	681b      	ldr	r3, [r3, #0]
 8002e3c:	099b      	lsrs	r3, r3, #6
 8002e3e:	4a36      	ldr	r2, [pc, #216]	@ (8002f18 <HAL_ADC_ConfigChannel+0x7d8>)
 8002e40:	fba2 2303 	umull	r2, r3, r2, r3
 8002e44:	099b      	lsrs	r3, r3, #6
 8002e46:	1c5a      	adds	r2, r3, #1
 8002e48:	4613      	mov	r3, r2
 8002e4a:	005b      	lsls	r3, r3, #1
 8002e4c:	4413      	add	r3, r2
 8002e4e:	009b      	lsls	r3, r3, #2
 8002e50:	60bb      	str	r3, [r7, #8]
 8002e52:	e002      	b.n	8002e5a <HAL_ADC_ConfigChannel+0x71a>
 8002e54:	68bb      	ldr	r3, [r7, #8]
 8002e56:	3b01      	subs	r3, #1
 8002e58:	60bb      	str	r3, [r7, #8]
 8002e5a:	68bb      	ldr	r3, [r7, #8]
 8002e5c:	2b00      	cmp	r3, #0
 8002e5e:	d1f9      	bne.n	8002e54 <HAL_ADC_ConfigChannel+0x714>
 8002e60:	e040      	b.n	8002ee4 <HAL_ADC_ConfigChannel+0x7a4>
 8002e62:	683b      	ldr	r3, [r7, #0]
 8002e64:	681b      	ldr	r3, [r3, #0]
 8002e66:	4a2d      	ldr	r2, [pc, #180]	@ (8002f1c <HAL_ADC_ConfigChannel+0x7dc>)
 8002e68:	4293      	cmp	r3, r2
 8002e6a:	d118      	bne.n	8002e9e <HAL_ADC_ConfigChannel+0x75e>
 8002e6c:	f8d7 30c0 	ldr.w	r3, [r7, #192]	@ 0xc0
 8002e70:	f003 7380 	and.w	r3, r3, #16777216	@ 0x1000000
 8002e74:	2b00      	cmp	r3, #0
 8002e76:	d112      	bne.n	8002e9e <HAL_ADC_ConfigChannel+0x75e>
 8002e78:	687b      	ldr	r3, [r7, #4]
 8002e7a:	681b      	ldr	r3, [r3, #0]
 8002e7c:	4a23      	ldr	r2, [pc, #140]	@ (8002f0c <HAL_ADC_ConfigChannel+0x7cc>)
 8002e7e:	4293      	cmp	r3, r2
 8002e80:	d004      	beq.n	8002e8c <HAL_ADC_ConfigChannel+0x74c>
 8002e82:	687b      	ldr	r3, [r7, #4]
 8002e84:	681b      	ldr	r3, [r3, #0]
 8002e86:	4a22      	ldr	r2, [pc, #136]	@ (8002f10 <HAL_ADC_ConfigChannel+0x7d0>)
 8002e88:	4293      	cmp	r3, r2
 8002e8a:	d12d      	bne.n	8002ee8 <HAL_ADC_ConfigChannel+0x7a8>
 8002e8c:	f8d7 30c0 	ldr.w	r3, [r7, #192]	@ 0xc0
 8002e90:	f043 7380 	orr.w	r3, r3, #16777216	@ 0x1000000
 8002e94:	4619      	mov	r1, r3
 8002e96:	481b      	ldr	r0, [pc, #108]	@ (8002f04 <HAL_ADC_ConfigChannel+0x7c4>)
 8002e98:	f7ff f899 	bl	8001fce <LL_ADC_SetCommonPathInternalCh>
 8002e9c:	e024      	b.n	8002ee8 <HAL_ADC_ConfigChannel+0x7a8>
 8002e9e:	683b      	ldr	r3, [r7, #0]
 8002ea0:	681b      	ldr	r3, [r3, #0]
 8002ea2:	4a1f      	ldr	r2, [pc, #124]	@ (8002f20 <HAL_ADC_ConfigChannel+0x7e0>)
 8002ea4:	4293      	cmp	r3, r2
 8002ea6:	d120      	bne.n	8002eea <HAL_ADC_ConfigChannel+0x7aa>
 8002ea8:	f8d7 30c0 	ldr.w	r3, [r7, #192]	@ 0xc0
 8002eac:	f403 0380 	and.w	r3, r3, #4194304	@ 0x400000
 8002eb0:	2b00      	cmp	r3, #0
 8002eb2:	d11a      	bne.n	8002eea <HAL_ADC_ConfigChannel+0x7aa>
 8002eb4:	687b      	ldr	r3, [r7, #4]
 8002eb6:	681b      	ldr	r3, [r3, #0]
 8002eb8:	4a14      	ldr	r2, [pc, #80]	@ (8002f0c <HAL_ADC_ConfigChannel+0x7cc>)
 8002eba:	4293      	cmp	r3, r2
 8002ebc:	d115      	bne.n	8002eea <HAL_ADC_ConfigChannel+0x7aa>
 8002ebe:	f8d7 30c0 	ldr.w	r3, [r7, #192]	@ 0xc0
 8002ec2:	f443 0380 	orr.w	r3, r3, #4194304	@ 0x400000
 8002ec6:	4619      	mov	r1, r3
 8002ec8:	480e      	ldr	r0, [pc, #56]	@ (8002f04 <HAL_ADC_ConfigChannel+0x7c4>)
 8002eca:	f7ff f880 	bl	8001fce <LL_ADC_SetCommonPathInternalCh>
 8002ece:	e00c      	b.n	8002eea <HAL_ADC_ConfigChannel+0x7aa>
 8002ed0:	687b      	ldr	r3, [r7, #4]
 8002ed2:	6d5b      	ldr	r3, [r3, #84]	@ 0x54
 8002ed4:	f043 0220 	orr.w	r2, r3, #32
 8002ed8:	687b      	ldr	r3, [r7, #4]
 8002eda:	655a      	str	r2, [r3, #84]	@ 0x54
 8002edc:	2301      	movs	r3, #1
 8002ede:	f887 30d7 	strb.w	r3, [r7, #215]	@ 0xd7
 8002ee2:	e002      	b.n	8002eea <HAL_ADC_ConfigChannel+0x7aa>
 8002ee4:	bf00      	nop
 8002ee6:	e000      	b.n	8002eea <HAL_ADC_ConfigChannel+0x7aa>
 8002ee8:	bf00      	nop
 8002eea:	687b      	ldr	r3, [r7, #4]
 8002eec:	2200      	movs	r2, #0
 8002eee:	f883 2050 	strb.w	r2, [r3, #80]	@ 0x50
 8002ef2:	f897 30d7 	ldrb.w	r3, [r7, #215]	@ 0xd7
 8002ef6:	4618      	mov	r0, r3
 8002ef8:	37d8      	adds	r7, #216	@ 0xd8
 8002efa:	46bd      	mov	sp, r7
 8002efc:	bd80      	pop	{r7, pc}
 8002efe:	bf00      	nop
 8002f00:	80080000 	.word	0x80080000
 8002f04:	50040300 	.word	0x50040300
 8002f08:	c7520000 	.word	0xc7520000
 8002f0c:	50040000 	.word	0x50040000
 8002f10:	50040200 	.word	0x50040200
 8002f14:	20000000 	.word	0x20000000
 8002f18:	053e2d63 	.word	0x053e2d63
 8002f1c:	cb840000 	.word	0xcb840000
 8002f20:	80000001 	.word	0x80000001

08002f24 <ADC_Enable>:
 8002f24:	b580      	push	{r7, lr}
 8002f26:	b084      	sub	sp, #16
 8002f28:	af00      	add	r7, sp, #0
 8002f2a:	6078      	str	r0, [r7, #4]
 8002f2c:	2300      	movs	r3, #0
 8002f2e:	60bb      	str	r3, [r7, #8]
 8002f30:	687b      	ldr	r3, [r7, #4]
 8002f32:	681b      	ldr	r3, [r3, #0]
 8002f34:	4618      	mov	r0, r3
 8002f36:	f7ff f9ab 	bl	8002290 <LL_ADC_IsEnabled>
 8002f3a:	4603      	mov	r3, r0
 8002f3c:	2b00      	cmp	r3, #0
 8002f3e:	d169      	bne.n	8003014 <ADC_Enable+0xf0>
 8002f40:	687b      	ldr	r3, [r7, #4]
 8002f42:	681b      	ldr	r3, [r3, #0]
 8002f44:	689a      	ldr	r2, [r3, #8]
 8002f46:	4b36      	ldr	r3, [pc, #216]	@ (8003020 <ADC_Enable+0xfc>)
 8002f48:	4013      	ands	r3, r2
 8002f4a:	2b00      	cmp	r3, #0
 8002f4c:	d00d      	beq.n	8002f6a <ADC_Enable+0x46>
 8002f4e:	687b      	ldr	r3, [r7, #4]
 8002f50:	6d5b      	ldr	r3, [r3, #84]	@ 0x54
 8002f52:	f043 0210 	orr.w	r2, r3, #16
 8002f56:	687b      	ldr	r3, [r7, #4]
 8002f58:	655a      	str	r2, [r3, #84]	@ 0x54
 8002f5a:	687b      	ldr	r3, [r7, #4]
 8002f5c:	6d9b      	ldr	r3, [r3, #88]	@ 0x58
 8002f5e:	f043 0201 	orr.w	r2, r3, #1
 8002f62:	687b      	ldr	r3, [r7, #4]
 8002f64:	659a      	str	r2, [r3, #88]	@ 0x58
 8002f66:	2301      	movs	r3, #1
 8002f68:	e055      	b.n	8003016 <ADC_Enable+0xf2>
 8002f6a:	687b      	ldr	r3, [r7, #4]
 8002f6c:	681b      	ldr	r3, [r3, #0]
 8002f6e:	4618      	mov	r0, r3
 8002f70:	f7ff f97a 	bl	8002268 <LL_ADC_Enable>
 8002f74:	482b      	ldr	r0, [pc, #172]	@ (8003024 <ADC_Enable+0x100>)
 8002f76:	f7ff f83d 	bl	8001ff4 <LL_ADC_GetCommonPathInternalCh>
 8002f7a:	4603      	mov	r3, r0
 8002f7c:	f403 0300 	and.w	r3, r3, #8388608	@ 0x800000
 8002f80:	2b00      	cmp	r3, #0
 8002f82:	d013      	beq.n	8002fac <ADC_Enable+0x88>
 8002f84:	4b28      	ldr	r3, [pc, #160]	@ (8003028 <ADC_Enable+0x104>)
 8002f86:	681b      	ldr	r3, [r3, #0]
 8002f88:	099b      	lsrs	r3, r3, #6
 8002f8a:	4a28      	ldr	r2, [pc, #160]	@ (800302c <ADC_Enable+0x108>)
 8002f8c:	fba2 2303 	umull	r2, r3, r2, r3
 8002f90:	099b      	lsrs	r3, r3, #6
 8002f92:	1c5a      	adds	r2, r3, #1
 8002f94:	4613      	mov	r3, r2
 8002f96:	005b      	lsls	r3, r3, #1
 8002f98:	4413      	add	r3, r2
 8002f9a:	009b      	lsls	r3, r3, #2
 8002f9c:	60bb      	str	r3, [r7, #8]
 8002f9e:	e002      	b.n	8002fa6 <ADC_Enable+0x82>
 8002fa0:	68bb      	ldr	r3, [r7, #8]
 8002fa2:	3b01      	subs	r3, #1
 8002fa4:	60bb      	str	r3, [r7, #8]
 8002fa6:	68bb      	ldr	r3, [r7, #8]
 8002fa8:	2b00      	cmp	r3, #0
 8002faa:	d1f9      	bne.n	8002fa0 <ADC_Enable+0x7c>
 8002fac:	f7fe fff0 	bl	8001f90 <HAL_GetTick>
 8002fb0:	60f8      	str	r0, [r7, #12]
 8002fb2:	e028      	b.n	8003006 <ADC_Enable+0xe2>
 8002fb4:	687b      	ldr	r3, [r7, #4]
 8002fb6:	681b      	ldr	r3, [r3, #0]
 8002fb8:	4618      	mov	r0, r3
 8002fba:	f7ff f969 	bl	8002290 <LL_ADC_IsEnabled>
 8002fbe:	4603      	mov	r3, r0
 8002fc0:	2b00      	cmp	r3, #0
 8002fc2:	d104      	bne.n	8002fce <ADC_Enable+0xaa>
 8002fc4:	687b      	ldr	r3, [r7, #4]
 8002fc6:	681b      	ldr	r3, [r3, #0]
 8002fc8:	4618      	mov	r0, r3
 8002fca:	f7ff f94d 	bl	8002268 <LL_ADC_Enable>
 8002fce:	f7fe ffdf 	bl	8001f90 <HAL_GetTick>
 8002fd2:	4602      	mov	r2, r0
 8002fd4:	68fb      	ldr	r3, [r7, #12]
 8002fd6:	1ad3      	subs	r3, r2, r3
 8002fd8:	2b02      	cmp	r3, #2
 8002fda:	d914      	bls.n	8003006 <ADC_Enable+0xe2>
 8002fdc:	687b      	ldr	r3, [r7, #4]
 8002fde:	681b      	ldr	r3, [r3, #0]
 8002fe0:	681b      	ldr	r3, [r3, #0]
 8002fe2:	f003 0301 	and.w	r3, r3, #1
 8002fe6:	2b01      	cmp	r3, #1
 8002fe8:	d00d      	beq.n	8003006 <ADC_Enable+0xe2>
 8002fea:	687b      	ldr	r3, [r7, #4]
 8002fec:	6d5b      	ldr	r3, [r3, #84]	@ 0x54
 8002fee:	f043 0210 	orr.w	r2, r3, #16
 8002ff2:	687b      	ldr	r3, [r7, #4]
 8002ff4:	655a      	str	r2, [r3, #84]	@ 0x54
 8002ff6:	687b      	ldr	r3, [r7, #4]
 8002ff8:	6d9b      	ldr	r3, [r3, #88]	@ 0x58
 8002ffa:	f043 0201 	orr.w	r2, r3, #1
 8002ffe:	687b      	ldr	r3, [r7, #4]
 8003000:	659a      	str	r2, [r3, #88]	@ 0x58
 8003002:	2301      	movs	r3, #1
 8003004:	e007      	b.n	8003016 <ADC_Enable+0xf2>
 8003006:	687b      	ldr	r3, [r7, #4]
 8003008:	681b      	ldr	r3, [r3, #0]
 800300a:	681b      	ldr	r3, [r3, #0]
 800300c:	f003 0301 	and.w	r3, r3, #1
 8003010:	2b01      	cmp	r3, #1
 8003012:	d1cf      	bne.n	8002fb4 <ADC_Enable+0x90>
 8003014:	2300      	movs	r3, #0
 8003016:	4618      	mov	r0, r3
 8003018:	3710      	adds	r7, #16
 800301a:	46bd      	mov	sp, r7
 800301c:	bd80      	pop	{r7, pc}
 800301e:	bf00      	nop
 8003020:	8000003f 	.word	0x8000003f
 8003024:	50040300 	.word	0x50040300
 8003028:	20000000 	.word	0x20000000
 800302c:	053e2d63 	.word	0x053e2d63

08003030 <LL_ADC_IsEnabled>:
 8003030:	b480      	push	{r7}
 8003032:	b083      	sub	sp, #12
 8003034:	af00      	add	r7, sp, #0
 8003036:	6078      	str	r0, [r7, #4]
 8003038:	687b      	ldr	r3, [r7, #4]
 800303a:	689b      	ldr	r3, [r3, #8]
 800303c:	f003 0301 	and.w	r3, r3, #1
 8003040:	2b01      	cmp	r3, #1
 8003042:	d101      	bne.n	8003048 <LL_ADC_IsEnabled+0x18>
 8003044:	2301      	movs	r3, #1
 8003046:	e000      	b.n	800304a <LL_ADC_IsEnabled+0x1a>
 8003048:	2300      	movs	r3, #0
 800304a:	4618      	mov	r0, r3
 800304c:	370c      	adds	r7, #12
 800304e:	46bd      	mov	sp, r7
 8003050:	f85d 7b04 	ldr.w	r7, [sp], #4
 8003054:	4770      	bx	lr

08003056 <LL_ADC_REG_IsConversionOngoing>:
 8003056:	b480      	push	{r7}
 8003058:	b083      	sub	sp, #12
 800305a:	af00      	add	r7, sp, #0
 800305c:	6078      	str	r0, [r7, #4]
 800305e:	687b      	ldr	r3, [r7, #4]
 8003060:	689b      	ldr	r3, [r3, #8]
 8003062:	f003 0304 	and.w	r3, r3, #4
 8003066:	2b04      	cmp	r3, #4
 8003068:	d101      	bne.n	800306e <LL_ADC_REG_IsConversionOngoing+0x18>
 800306a:	2301      	movs	r3, #1
 800306c:	e000      	b.n	8003070 <LL_ADC_REG_IsConversionOngoing+0x1a>
 800306e:	2300      	movs	r3, #0
 8003070:	4618      	mov	r0, r3
 8003072:	370c      	adds	r7, #12
 8003074:	46bd      	mov	sp, r7
 8003076:	f85d 7b04 	ldr.w	r7, [sp], #4
 800307a:	4770      	bx	lr

0800307c <HAL_ADCEx_MultiModeConfigChannel>:
 800307c:	b590      	push	{r4, r7, lr}
 800307e:	b09f      	sub	sp, #124	@ 0x7c
 8003080:	af00      	add	r7, sp, #0
 8003082:	6078      	str	r0, [r7, #4]
 8003084:	6039      	str	r1, [r7, #0]
 8003086:	2300      	movs	r3, #0
 8003088:	f887 3077 	strb.w	r3, [r7, #119]	@ 0x77
 800308c:	687b      	ldr	r3, [r7, #4]
 800308e:	f893 3050 	ldrb.w	r3, [r3, #80]	@ 0x50
 8003092:	2b01      	cmp	r3, #1
 8003094:	d101      	bne.n	800309a <HAL_ADCEx_MultiModeConfigChannel+0x1e>
 8003096:	2302      	movs	r3, #2
 8003098:	e093      	b.n	80031c2 <HAL_ADCEx_MultiModeConfigChannel+0x146>
 800309a:	687b      	ldr	r3, [r7, #4]
 800309c:	2201      	movs	r2, #1
 800309e:	f883 2050 	strb.w	r2, [r3, #80]	@ 0x50
 80030a2:	2300      	movs	r3, #0
 80030a4:	65fb      	str	r3, [r7, #92]	@ 0x5c
 80030a6:	2300      	movs	r3, #0
 80030a8:	663b      	str	r3, [r7, #96]	@ 0x60
 80030aa:	687b      	ldr	r3, [r7, #4]
 80030ac:	681b      	ldr	r3, [r3, #0]
 80030ae:	4a47      	ldr	r2, [pc, #284]	@ (80031cc <HAL_ADCEx_MultiModeConfigChannel+0x150>)
 80030b0:	4293      	cmp	r3, r2
 80030b2:	d102      	bne.n	80030ba <HAL_ADCEx_MultiModeConfigChannel+0x3e>
 80030b4:	4b46      	ldr	r3, [pc, #280]	@ (80031d0 <HAL_ADCEx_MultiModeConfigChannel+0x154>)
 80030b6:	60bb      	str	r3, [r7, #8]
 80030b8:	e001      	b.n	80030be <HAL_ADCEx_MultiModeConfigChannel+0x42>
 80030ba:	2300      	movs	r3, #0
 80030bc:	60bb      	str	r3, [r7, #8]
 80030be:	68bb      	ldr	r3, [r7, #8]
 80030c0:	2b00      	cmp	r3, #0
 80030c2:	d10b      	bne.n	80030dc <HAL_ADCEx_MultiModeConfigChannel+0x60>
 80030c4:	687b      	ldr	r3, [r7, #4]
 80030c6:	6d5b      	ldr	r3, [r3, #84]	@ 0x54
 80030c8:	f043 0220 	orr.w	r2, r3, #32
 80030cc:	687b      	ldr	r3, [r7, #4]
 80030ce:	655a      	str	r2, [r3, #84]	@ 0x54
 80030d0:	687b      	ldr	r3, [r7, #4]
 80030d2:	2200      	movs	r2, #0
 80030d4:	f883 2050 	strb.w	r2, [r3, #80]	@ 0x50
 80030d8:	2301      	movs	r3, #1
 80030da:	e072      	b.n	80031c2 <HAL_ADCEx_MultiModeConfigChannel+0x146>
 80030dc:	68bb      	ldr	r3, [r7, #8]
 80030de:	4618      	mov	r0, r3
 80030e0:	f7ff ffb9 	bl	8003056 <LL_ADC_REG_IsConversionOngoing>
 80030e4:	6738      	str	r0, [r7, #112]	@ 0x70
 80030e6:	687b      	ldr	r3, [r7, #4]
 80030e8:	681b      	ldr	r3, [r3, #0]
 80030ea:	4618      	mov	r0, r3
 80030ec:	f7ff ffb3 	bl	8003056 <LL_ADC_REG_IsConversionOngoing>
 80030f0:	4603      	mov	r3, r0
 80030f2:	2b00      	cmp	r3, #0
 80030f4:	d154      	bne.n	80031a0 <HAL_ADCEx_MultiModeConfigChannel+0x124>
 80030f6:	6f3b      	ldr	r3, [r7, #112]	@ 0x70
 80030f8:	2b00      	cmp	r3, #0
 80030fa:	d151      	bne.n	80031a0 <HAL_ADCEx_MultiModeConfigChannel+0x124>
 80030fc:	4b35      	ldr	r3, [pc, #212]	@ (80031d4 <HAL_ADCEx_MultiModeConfigChannel+0x158>)
 80030fe:	66fb      	str	r3, [r7, #108]	@ 0x6c
 8003100:	683b      	ldr	r3, [r7, #0]
 8003102:	681b      	ldr	r3, [r3, #0]
 8003104:	2b00      	cmp	r3, #0
 8003106:	d02c      	beq.n	8003162 <HAL_ADCEx_MultiModeConfigChannel+0xe6>
 8003108:	6efb      	ldr	r3, [r7, #108]	@ 0x6c
 800310a:	689b      	ldr	r3, [r3, #8]
 800310c:	f423 4260 	bic.w	r2, r3, #57344	@ 0xe000
 8003110:	683b      	ldr	r3, [r7, #0]
 8003112:	6859      	ldr	r1, [r3, #4]
 8003114:	687b      	ldr	r3, [r7, #4]
 8003116:	f893 3030 	ldrb.w	r3, [r3, #48]	@ 0x30
 800311a:	035b      	lsls	r3, r3, #13
 800311c:	430b      	orrs	r3, r1
 800311e:	431a      	orrs	r2, r3
 8003120:	6efb      	ldr	r3, [r7, #108]	@ 0x6c
 8003122:	609a      	str	r2, [r3, #8]
 8003124:	4829      	ldr	r0, [pc, #164]	@ (80031cc <HAL_ADCEx_MultiModeConfigChannel+0x150>)
 8003126:	f7ff ff83 	bl	8003030 <LL_ADC_IsEnabled>
 800312a:	4604      	mov	r4, r0
 800312c:	4828      	ldr	r0, [pc, #160]	@ (80031d0 <HAL_ADCEx_MultiModeConfigChannel+0x154>)
 800312e:	f7ff ff7f 	bl	8003030 <LL_ADC_IsEnabled>
 8003132:	4603      	mov	r3, r0
 8003134:	431c      	orrs	r4, r3
 8003136:	4828      	ldr	r0, [pc, #160]	@ (80031d8 <HAL_ADCEx_MultiModeConfigChannel+0x15c>)
 8003138:	f7ff ff7a 	bl	8003030 <LL_ADC_IsEnabled>
 800313c:	4603      	mov	r3, r0
 800313e:	4323      	orrs	r3, r4
 8003140:	2b00      	cmp	r3, #0
 8003142:	d137      	bne.n	80031b4 <HAL_ADCEx_MultiModeConfigChannel+0x138>
 8003144:	6efb      	ldr	r3, [r7, #108]	@ 0x6c
 8003146:	689b      	ldr	r3, [r3, #8]
 8003148:	f423 6371 	bic.w	r3, r3, #3856	@ 0xf10
 800314c:	f023 030f 	bic.w	r3, r3, #15
 8003150:	683a      	ldr	r2, [r7, #0]
 8003152:	6811      	ldr	r1, [r2, #0]
 8003154:	683a      	ldr	r2, [r7, #0]
 8003156:	6892      	ldr	r2, [r2, #8]
 8003158:	430a      	orrs	r2, r1
 800315a:	431a      	orrs	r2, r3
 800315c:	6efb      	ldr	r3, [r7, #108]	@ 0x6c
 800315e:	609a      	str	r2, [r3, #8]
 8003160:	e028      	b.n	80031b4 <HAL_ADCEx_MultiModeConfigChannel+0x138>
 8003162:	6efb      	ldr	r3, [r7, #108]	@ 0x6c
 8003164:	689b      	ldr	r3, [r3, #8]
 8003166:	f423 4260 	bic.w	r2, r3, #57344	@ 0xe000
 800316a:	6efb      	ldr	r3, [r7, #108]	@ 0x6c
 800316c:	609a      	str	r2, [r3, #8]
 800316e:	4817      	ldr	r0, [pc, #92]	@ (80031cc <HAL_ADCEx_MultiModeConfigChannel+0x150>)
 8003170:	f7ff ff5e 	bl	8003030 <LL_ADC_IsEnabled>
 8003174:	4604      	mov	r4, r0
 8003176:	4816      	ldr	r0, [pc, #88]	@ (80031d0 <HAL_ADCEx_MultiModeConfigChannel+0x154>)
 8003178:	f7ff ff5a 	bl	8003030 <LL_ADC_IsEnabled>
 800317c:	4603      	mov	r3, r0
 800317e:	431c      	orrs	r4, r3
 8003180:	4815      	ldr	r0, [pc, #84]	@ (80031d8 <HAL_ADCEx_MultiModeConfigChannel+0x15c>)
 8003182:	f7ff ff55 	bl	8003030 <LL_ADC_IsEnabled>
 8003186:	4603      	mov	r3, r0
 8003188:	4323      	orrs	r3, r4
 800318a:	2b00      	cmp	r3, #0
 800318c:	d112      	bne.n	80031b4 <HAL_ADCEx_MultiModeConfigChannel+0x138>
 800318e:	6efb      	ldr	r3, [r7, #108]	@ 0x6c
 8003190:	689b      	ldr	r3, [r3, #8]
 8003192:	f423 6371 	bic.w	r3, r3, #3856	@ 0xf10
 8003196:	f023 030f 	bic.w	r3, r3, #15
 800319a:	6efa      	ldr	r2, [r7, #108]	@ 0x6c
 800319c:	6093      	str	r3, [r2, #8]
 800319e:	e009      	b.n	80031b4 <HAL_ADCEx_MultiModeConfigChannel+0x138>
 80031a0:	687b      	ldr	r3, [r7, #4]
 80031a2:	6d5b      	ldr	r3, [r3, #84]	@ 0x54
 80031a4:	f043 0220 	orr.w	r2, r3, #32
 80031a8:	687b      	ldr	r3, [r7, #4]
 80031aa:	655a      	str	r2, [r3, #84]	@ 0x54
 80031ac:	2301      	movs	r3, #1
 80031ae:	f887 3077 	strb.w	r3, [r7, #119]	@ 0x77
 80031b2:	e000      	b.n	80031b6 <HAL_ADCEx_MultiModeConfigChannel+0x13a>
 80031b4:	bf00      	nop
 80031b6:	687b      	ldr	r3, [r7, #4]
 80031b8:	2200      	movs	r2, #0
 80031ba:	f883 2050 	strb.w	r2, [r3, #80]	@ 0x50
 80031be:	f897 3077 	ldrb.w	r3, [r7, #119]	@ 0x77
 80031c2:	4618      	mov	r0, r3
 80031c4:	377c      	adds	r7, #124	@ 0x7c
 80031c6:	46bd      	mov	sp, r7
 80031c8:	bd90      	pop	{r4, r7, pc}
 80031ca:	bf00      	nop
 80031cc:	50040000 	.word	0x50040000
 80031d0:	50040100 	.word	0x50040100
 80031d4:	50040300 	.word	0x50040300
 80031d8:	50040200 	.word	0x50040200

080031dc <__NVIC_SetPriorityGrouping>:
 80031dc:	b480      	push	{r7}
 80031de:	b085      	sub	sp, #20
 80031e0:	af00      	add	r7, sp, #0
 80031e2:	6078      	str	r0, [r7, #4]
 80031e4:	687b      	ldr	r3, [r7, #4]
 80031e6:	f003 0307 	and.w	r3, r3, #7
 80031ea:	60fb      	str	r3, [r7, #12]
 80031ec:	4b0c      	ldr	r3, [pc, #48]	@ (8003220 <__NVIC_SetPriorityGrouping+0x44>)
 80031ee:	68db      	ldr	r3, [r3, #12]
 80031f0:	60bb      	str	r3, [r7, #8]
 80031f2:	68ba      	ldr	r2, [r7, #8]
 80031f4:	f64f 03ff 	movw	r3, #63743	@ 0xf8ff
 80031f8:	4013      	ands	r3, r2
 80031fa:	60bb      	str	r3, [r7, #8]
 80031fc:	68fb      	ldr	r3, [r7, #12]
 80031fe:	021a      	lsls	r2, r3, #8
 8003200:	68bb      	ldr	r3, [r7, #8]
 8003202:	4313      	orrs	r3, r2
 8003204:	f043 63bf 	orr.w	r3, r3, #100139008	@ 0x5f80000
 8003208:	f443 3300 	orr.w	r3, r3, #131072	@ 0x20000
 800320c:	60bb      	str	r3, [r7, #8]
 800320e:	4a04      	ldr	r2, [pc, #16]	@ (8003220 <__NVIC_SetPriorityGrouping+0x44>)
 8003210:	68bb      	ldr	r3, [r7, #8]
 8003212:	60d3      	str	r3, [r2, #12]
 8003214:	bf00      	nop
 8003216:	3714      	adds	r7, #20
 8003218:	46bd      	mov	sp, r7
 800321a:	f85d 7b04 	ldr.w	r7, [sp], #4
 800321e:	4770      	bx	lr
 8003220:	e000ed00 	.word	0xe000ed00

08003224 <__NVIC_GetPriorityGrouping>:
 8003224:	b480      	push	{r7}
 8003226:	af00      	add	r7, sp, #0
 8003228:	4b04      	ldr	r3, [pc, #16]	@ (800323c <__NVIC_GetPriorityGrouping+0x18>)
 800322a:	68db      	ldr	r3, [r3, #12]
 800322c:	0a1b      	lsrs	r3, r3, #8
 800322e:	f003 0307 	and.w	r3, r3, #7
 8003232:	4618      	mov	r0, r3
 8003234:	46bd      	mov	sp, r7
 8003236:	f85d 7b04 	ldr.w	r7, [sp], #4
 800323a:	4770      	bx	lr
 800323c:	e000ed00 	.word	0xe000ed00

08003240 <__NVIC_EnableIRQ>:
 8003240:	b480      	push	{r7}
 8003242:	b083      	sub	sp, #12
 8003244:	af00      	add	r7, sp, #0
 8003246:	4603      	mov	r3, r0
 8003248:	71fb      	strb	r3, [r7, #7]
 800324a:	f997 3007 	ldrsb.w	r3, [r7, #7]
 800324e:	2b00      	cmp	r3, #0
 8003250:	db0b      	blt.n	800326a <__NVIC_EnableIRQ+0x2a>
 8003252:	79fb      	ldrb	r3, [r7, #7]
 8003254:	f003 021f 	and.w	r2, r3, #31
 8003258:	4907      	ldr	r1, [pc, #28]	@ (8003278 <__NVIC_EnableIRQ+0x38>)
 800325a:	f997 3007 	ldrsb.w	r3, [r7, #7]
 800325e:	095b      	lsrs	r3, r3, #5
 8003260:	2001      	movs	r0, #1
 8003262:	fa00 f202 	lsl.w	r2, r0, r2
 8003266:	f841 2023 	str.w	r2, [r1, r3, lsl #2]
 800326a:	bf00      	nop
 800326c:	370c      	adds	r7, #12
 800326e:	46bd      	mov	sp, r7
 8003270:	f85d 7b04 	ldr.w	r7, [sp], #4
 8003274:	4770      	bx	lr
 8003276:	bf00      	nop
 8003278:	e000e100 	.word	0xe000e100

0800327c <__NVIC_SetPriority>:
 800327c:	b480      	push	{r7}
 800327e:	b083      	sub	sp, #12
 8003280:	af00      	add	r7, sp, #0
 8003282:	4603      	mov	r3, r0
 8003284:	6039      	str	r1, [r7, #0]
 8003286:	71fb      	strb	r3, [r7, #7]
 8003288:	f997 3007 	ldrsb.w	r3, [r7, #7]
 800328c:	2b00      	cmp	r3, #0
 800328e:	db0a      	blt.n	80032a6 <__NVIC_SetPriority+0x2a>
 8003290:	683b      	ldr	r3, [r7, #0]
 8003292:	b2da      	uxtb	r2, r3
 8003294:	490c      	ldr	r1, [pc, #48]	@ (80032c8 <__NVIC_SetPriority+0x4c>)
 8003296:	f997 3007 	ldrsb.w	r3, [r7, #7]
 800329a:	0112      	lsls	r2, r2, #4
 800329c:	b2d2      	uxtb	r2, r2
 800329e:	440b      	add	r3, r1
 80032a0:	f883 2300 	strb.w	r2, [r3, #768]	@ 0x300
 80032a4:	e00a      	b.n	80032bc <__NVIC_SetPriority+0x40>
 80032a6:	683b      	ldr	r3, [r7, #0]
 80032a8:	b2da      	uxtb	r2, r3
 80032aa:	4908      	ldr	r1, [pc, #32]	@ (80032cc <__NVIC_SetPriority+0x50>)
 80032ac:	79fb      	ldrb	r3, [r7, #7]
 80032ae:	f003 030f 	and.w	r3, r3, #15
 80032b2:	3b04      	subs	r3, #4
 80032b4:	0112      	lsls	r2, r2, #4
 80032b6:	b2d2      	uxtb	r2, r2
 80032b8:	440b      	add	r3, r1
 80032ba:	761a      	strb	r2, [r3, #24]
 80032bc:	bf00      	nop
 80032be:	370c      	adds	r7, #12
 80032c0:	46bd      	mov	sp, r7
 80032c2:	f85d 7b04 	ldr.w	r7, [sp], #4
 80032c6:	4770      	bx	lr
 80032c8:	e000e100 	.word	0xe000e100
 80032cc:	e000ed00 	.word	0xe000ed00

080032d0 <NVIC_EncodePriority>:
 80032d0:	b480      	push	{r7}
 80032d2:	b089      	sub	sp, #36	@ 0x24
 80032d4:	af00      	add	r7, sp, #0
 80032d6:	60f8      	str	r0, [r7, #12]
 80032d8:	60b9      	str	r1, [r7, #8]
 80032da:	607a      	str	r2, [r7, #4]
 80032dc:	68fb      	ldr	r3, [r7, #12]
 80032de:	f003 0307 	and.w	r3, r3, #7
 80032e2:	61fb      	str	r3, [r7, #28]
 80032e4:	69fb      	ldr	r3, [r7, #28]
 80032e6:	f1c3 0307 	rsb	r3, r3, #7
 80032ea:	2b04      	cmp	r3, #4
 80032ec:	bf28      	it	cs
 80032ee:	2304      	movcs	r3, #4
 80032f0:	61bb      	str	r3, [r7, #24]
 80032f2:	69fb      	ldr	r3, [r7, #28]
 80032f4:	3304      	adds	r3, #4
 80032f6:	2b06      	cmp	r3, #6
 80032f8:	d902      	bls.n	8003300 <NVIC_EncodePriority+0x30>
 80032fa:	69fb      	ldr	r3, [r7, #28]
 80032fc:	3b03      	subs	r3, #3
 80032fe:	e000      	b.n	8003302 <NVIC_EncodePriority+0x32>
 8003300:	2300      	movs	r3, #0
 8003302:	617b      	str	r3, [r7, #20]
 8003304:	f04f 32ff 	mov.w	r2, #4294967295
 8003308:	69bb      	ldr	r3, [r7, #24]
 800330a:	fa02 f303 	lsl.w	r3, r2, r3
 800330e:	43da      	mvns	r2, r3
 8003310:	68bb      	ldr	r3, [r7, #8]
 8003312:	401a      	ands	r2, r3
 8003314:	697b      	ldr	r3, [r7, #20]
 8003316:	409a      	lsls	r2, r3
 8003318:	f04f 31ff 	mov.w	r1, #4294967295
 800331c:	697b      	ldr	r3, [r7, #20]
 800331e:	fa01 f303 	lsl.w	r3, r1, r3
 8003322:	43d9      	mvns	r1, r3
 8003324:	687b      	ldr	r3, [r7, #4]
 8003326:	400b      	ands	r3, r1
 8003328:	4313      	orrs	r3, r2
 800332a:	4618      	mov	r0, r3
 800332c:	3724      	adds	r7, #36	@ 0x24
 800332e:	46bd      	mov	sp, r7
 8003330:	f85d 7b04 	ldr.w	r7, [sp], #4
 8003334:	4770      	bx	lr
	...

08003338 <SysTick_Config>:
 8003338:	b580      	push	{r7, lr}
 800333a:	b082      	sub	sp, #8
 800333c:	af00      	add	r7, sp, #0
 800333e:	6078      	str	r0, [r7, #4]
 8003340:	687b      	ldr	r3, [r7, #4]
 8003342:	3b01      	subs	r3, #1
 8003344:	f1b3 7f80 	cmp.w	r3, #16777216	@ 0x1000000
 8003348:	d301      	bcc.n	800334e <SysTick_Config+0x16>
 800334a:	2301      	movs	r3, #1
 800334c:	e00f      	b.n	800336e <SysTick_Config+0x36>
 800334e:	4a0a      	ldr	r2, [pc, #40]	@ (8003378 <SysTick_Config+0x40>)
 8003350:	687b      	ldr	r3, [r7, #4]
 8003352:	3b01      	subs	r3, #1
 8003354:	6053      	str	r3, [r2, #4]
 8003356:	210f      	movs	r1, #15
 8003358:	f04f 30ff 	mov.w	r0, #4294967295
 800335c:	f7ff ff8e 	bl	800327c <__NVIC_SetPriority>
 8003360:	4b05      	ldr	r3, [pc, #20]	@ (8003378 <SysTick_Config+0x40>)
 8003362:	2200      	movs	r2, #0
 8003364:	609a      	str	r2, [r3, #8]
 8003366:	4b04      	ldr	r3, [pc, #16]	@ (8003378 <SysTick_Config+0x40>)
 8003368:	2207      	movs	r2, #7
 800336a:	601a      	str	r2, [r3, #0]
 800336c:	2300      	movs	r3, #0
 800336e:	4618      	mov	r0, r3
 8003370:	3708      	adds	r7, #8
 8003372:	46bd      	mov	sp, r7
 8003374:	bd80      	pop	{r7, pc}
 8003376:	bf00      	nop
 8003378:	e000e010 	.word	0xe000e010

0800337c <HAL_NVIC_SetPriorityGrouping>:
 800337c:	b580      	push	{r7, lr}
 800337e:	b082      	sub	sp, #8
 8003380:	af00      	add	r7, sp, #0
 8003382:	6078      	str	r0, [r7, #4]
 8003384:	6878      	ldr	r0, [r7, #4]
 8003386:	f7ff ff29 	bl	80031dc <__NVIC_SetPriorityGrouping>
 800338a:	bf00      	nop
 800338c:	3708      	adds	r7, #8
 800338e:	46bd      	mov	sp, r7
 8003390:	bd80      	pop	{r7, pc}

08003392 <HAL_NVIC_SetPriority>:
 8003392:	b580      	push	{r7, lr}
 8003394:	b086      	sub	sp, #24
 8003396:	af00      	add	r7, sp, #0
 8003398:	4603      	mov	r3, r0
 800339a:	60b9      	str	r1, [r7, #8]
 800339c:	607a      	str	r2, [r7, #4]
 800339e:	73fb      	strb	r3, [r7, #15]
 80033a0:	2300      	movs	r3, #0
 80033a2:	617b      	str	r3, [r7, #20]
 80033a4:	f7ff ff3e 	bl	8003224 <__NVIC_GetPriorityGrouping>
 80033a8:	6178      	str	r0, [r7, #20]
 80033aa:	687a      	ldr	r2, [r7, #4]
 80033ac:	68b9      	ldr	r1, [r7, #8]
 80033ae:	6978      	ldr	r0, [r7, #20]
 80033b0:	f7ff ff8e 	bl	80032d0 <NVIC_EncodePriority>
 80033b4:	4602      	mov	r2, r0
 80033b6:	f997 300f 	ldrsb.w	r3, [r7, #15]
 80033ba:	4611      	mov	r1, r2
 80033bc:	4618      	mov	r0, r3
 80033be:	f7ff ff5d 	bl	800327c <__NVIC_SetPriority>
 80033c2:	bf00      	nop
 80033c4:	3718      	adds	r7, #24
 80033c6:	46bd      	mov	sp, r7
 80033c8:	bd80      	pop	{r7, pc}

080033ca <HAL_NVIC_EnableIRQ>:
 80033ca:	b580      	push	{r7, lr}
 80033cc:	b082      	sub	sp, #8
 80033ce:	af00      	add	r7, sp, #0
 80033d0:	4603      	mov	r3, r0
 80033d2:	71fb      	strb	r3, [r7, #7]
 80033d4:	f997 3007 	ldrsb.w	r3, [r7, #7]
 80033d8:	4618      	mov	r0, r3
 80033da:	f7ff ff31 	bl	8003240 <__NVIC_EnableIRQ>
 80033de:	bf00      	nop
 80033e0:	3708      	adds	r7, #8
 80033e2:	46bd      	mov	sp, r7
 80033e4:	bd80      	pop	{r7, pc}

080033e6 <HAL_SYSTICK_Config>:
 80033e6:	b580      	push	{r7, lr}
 80033e8:	b082      	sub	sp, #8
 80033ea:	af00      	add	r7, sp, #0
 80033ec:	6078      	str	r0, [r7, #4]
 80033ee:	6878      	ldr	r0, [r7, #4]
 80033f0:	f7ff ffa2 	bl	8003338 <SysTick_Config>
 80033f4:	4603      	mov	r3, r0
 80033f6:	4618      	mov	r0, r3
 80033f8:	3708      	adds	r7, #8
 80033fa:	46bd      	mov	sp, r7
 80033fc:	bd80      	pop	{r7, pc}

080033fe <HAL_DMA_Abort>:
 80033fe:	b480      	push	{r7}
 8003400:	b085      	sub	sp, #20
 8003402:	af00      	add	r7, sp, #0
 8003404:	6078      	str	r0, [r7, #4]
 8003406:	2300      	movs	r3, #0
 8003408:	73fb      	strb	r3, [r7, #15]
 800340a:	687b      	ldr	r3, [r7, #4]
 800340c:	f893 3025 	ldrb.w	r3, [r3, #37]	@ 0x25
 8003410:	b2db      	uxtb	r3, r3
 8003412:	2b02      	cmp	r3, #2
 8003414:	d008      	beq.n	8003428 <HAL_DMA_Abort+0x2a>
 8003416:	687b      	ldr	r3, [r7, #4]
 8003418:	2204      	movs	r2, #4
 800341a:	63da      	str	r2, [r3, #60]	@ 0x3c
 800341c:	687b      	ldr	r3, [r7, #4]
 800341e:	2200      	movs	r2, #0
 8003420:	f883 2024 	strb.w	r2, [r3, #36]	@ 0x24
 8003424:	2301      	movs	r3, #1
 8003426:	e022      	b.n	800346e <HAL_DMA_Abort+0x70>
 8003428:	687b      	ldr	r3, [r7, #4]
 800342a:	681b      	ldr	r3, [r3, #0]
 800342c:	681a      	ldr	r2, [r3, #0]
 800342e:	687b      	ldr	r3, [r7, #4]
 8003430:	681b      	ldr	r3, [r3, #0]
 8003432:	f022 020e 	bic.w	r2, r2, #14
 8003436:	601a      	str	r2, [r3, #0]
 8003438:	687b      	ldr	r3, [r7, #4]
 800343a:	681b      	ldr	r3, [r3, #0]
 800343c:	681a      	ldr	r2, [r3, #0]
 800343e:	687b      	ldr	r3, [r7, #4]
 8003440:	681b      	ldr	r3, [r3, #0]
 8003442:	f022 0201 	bic.w	r2, r2, #1
 8003446:	601a      	str	r2, [r3, #0]
 8003448:	687b      	ldr	r3, [r7, #4]
 800344a:	6c5b      	ldr	r3, [r3, #68]	@ 0x44
 800344c:	f003 021c 	and.w	r2, r3, #28
 8003450:	687b      	ldr	r3, [r7, #4]
 8003452:	6c1b      	ldr	r3, [r3, #64]	@ 0x40
 8003454:	2101      	movs	r1, #1
 8003456:	fa01 f202 	lsl.w	r2, r1, r2
 800345a:	605a      	str	r2, [r3, #4]
 800345c:	687b      	ldr	r3, [r7, #4]
 800345e:	2201      	movs	r2, #1
 8003460:	f883 2025 	strb.w	r2, [r3, #37]	@ 0x25
 8003464:	687b      	ldr	r3, [r7, #4]
 8003466:	2200      	movs	r2, #0
 8003468:	f883 2024 	strb.w	r2, [r3, #36]	@ 0x24
 800346c:	7bfb      	ldrb	r3, [r7, #15]
 800346e:	4618      	mov	r0, r3
 8003470:	3714      	adds	r7, #20
 8003472:	46bd      	mov	sp, r7
 8003474:	f85d 7b04 	ldr.w	r7, [sp], #4
 8003478:	4770      	bx	lr

0800347a <HAL_DMA_Abort_IT>:
 800347a:	b580      	push	{r7, lr}
 800347c:	b084      	sub	sp, #16
 800347e:	af00      	add	r7, sp, #0
 8003480:	6078      	str	r0, [r7, #4]
 8003482:	2300      	movs	r3, #0
 8003484:	73fb      	strb	r3, [r7, #15]
 8003486:	687b      	ldr	r3, [r7, #4]
 8003488:	f893 3025 	ldrb.w	r3, [r3, #37]	@ 0x25
 800348c:	b2db      	uxtb	r3, r3
 800348e:	2b02      	cmp	r3, #2
 8003490:	d005      	beq.n	800349e <HAL_DMA_Abort_IT+0x24>
 8003492:	687b      	ldr	r3, [r7, #4]
 8003494:	2204      	movs	r2, #4
 8003496:	63da      	str	r2, [r3, #60]	@ 0x3c
 8003498:	2301      	movs	r3, #1
 800349a:	73fb      	strb	r3, [r7, #15]
 800349c:	e029      	b.n	80034f2 <HAL_DMA_Abort_IT+0x78>
 800349e:	687b      	ldr	r3, [r7, #4]
 80034a0:	681b      	ldr	r3, [r3, #0]
 80034a2:	681a      	ldr	r2, [r3, #0]
 80034a4:	687b      	ldr	r3, [r7, #4]
 80034a6:	681b      	ldr	r3, [r3, #0]
 80034a8:	f022 020e 	bic.w	r2, r2, #14
 80034ac:	601a      	str	r2, [r3, #0]
 80034ae:	687b      	ldr	r3, [r7, #4]
 80034b0:	681b      	ldr	r3, [r3, #0]
 80034b2:	681a      	ldr	r2, [r3, #0]
 80034b4:	687b      	ldr	r3, [r7, #4]
 80034b6:	681b      	ldr	r3, [r3, #0]
 80034b8:	f022 0201 	bic.w	r2, r2, #1
 80034bc:	601a      	str	r2, [r3, #0]
 80034be:	687b      	ldr	r3, [r7, #4]
 80034c0:	6c5b      	ldr	r3, [r3, #68]	@ 0x44
 80034c2:	f003 021c 	and.w	r2, r3, #28
 80034c6:	687b      	ldr	r3, [r7, #4]
 80034c8:	6c1b      	ldr	r3, [r3, #64]	@ 0x40
 80034ca:	2101      	movs	r1, #1
 80034cc:	fa01 f202 	lsl.w	r2, r1, r2
 80034d0:	605a      	str	r2, [r3, #4]
 80034d2:	687b      	ldr	r3, [r7, #4]
 80034d4:	2201      	movs	r2, #1
 80034d6:	f883 2025 	strb.w	r2, [r3, #37]	@ 0x25
 80034da:	687b      	ldr	r3, [r7, #4]
 80034dc:	2200      	movs	r2, #0
 80034de:	f883 2024 	strb.w	r2, [r3, #36]	@ 0x24
 80034e2:	687b      	ldr	r3, [r7, #4]
 80034e4:	6b9b      	ldr	r3, [r3, #56]	@ 0x38
 80034e6:	2b00      	cmp	r3, #0
 80034e8:	d003      	beq.n	80034f2 <HAL_DMA_Abort_IT+0x78>
 80034ea:	687b      	ldr	r3, [r7, #4]
 80034ec:	6b9b      	ldr	r3, [r3, #56]	@ 0x38
 80034ee:	6878      	ldr	r0, [r7, #4]
 80034f0:	4798      	blx	r3
 80034f2:	7bfb      	ldrb	r3, [r7, #15]
 80034f4:	4618      	mov	r0, r3
 80034f6:	3710      	adds	r7, #16
 80034f8:	46bd      	mov	sp, r7
 80034fa:	bd80      	pop	{r7, pc}

080034fc <HAL_GPIO_Init>:
 80034fc:	b480      	push	{r7}
 80034fe:	b087      	sub	sp, #28
 8003500:	af00      	add	r7, sp, #0
 8003502:	6078      	str	r0, [r7, #4]
 8003504:	6039      	str	r1, [r7, #0]
 8003506:	2300      	movs	r3, #0
 8003508:	617b      	str	r3, [r7, #20]
 800350a:	e17f      	b.n	800380c <HAL_GPIO_Init+0x310>
 800350c:	683b      	ldr	r3, [r7, #0]
 800350e:	681a      	ldr	r2, [r3, #0]
 8003510:	2101      	movs	r1, #1
 8003512:	697b      	ldr	r3, [r7, #20]
 8003514:	fa01 f303 	lsl.w	r3, r1, r3
 8003518:	4013      	ands	r3, r2
 800351a:	60fb      	str	r3, [r7, #12]
 800351c:	68fb      	ldr	r3, [r7, #12]
 800351e:	2b00      	cmp	r3, #0
 8003520:	f000 8171 	beq.w	8003806 <HAL_GPIO_Init+0x30a>
 8003524:	683b      	ldr	r3, [r7, #0]
 8003526:	685b      	ldr	r3, [r3, #4]
 8003528:	f003 0303 	and.w	r3, r3, #3
 800352c:	2b01      	cmp	r3, #1
 800352e:	d005      	beq.n	800353c <HAL_GPIO_Init+0x40>
 8003530:	683b      	ldr	r3, [r7, #0]
 8003532:	685b      	ldr	r3, [r3, #4]
 8003534:	f003 0303 	and.w	r3, r3, #3
 8003538:	2b02      	cmp	r3, #2
 800353a:	d130      	bne.n	800359e <HAL_GPIO_Init+0xa2>
 800353c:	687b      	ldr	r3, [r7, #4]
 800353e:	689b      	ldr	r3, [r3, #8]
 8003540:	613b      	str	r3, [r7, #16]
 8003542:	697b      	ldr	r3, [r7, #20]
 8003544:	005b      	lsls	r3, r3, #1
 8003546:	2203      	movs	r2, #3
 8003548:	fa02 f303 	lsl.w	r3, r2, r3
 800354c:	43db      	mvns	r3, r3
 800354e:	693a      	ldr	r2, [r7, #16]
 8003550:	4013      	ands	r3, r2
 8003552:	613b      	str	r3, [r7, #16]
 8003554:	683b      	ldr	r3, [r7, #0]
 8003556:	68da      	ldr	r2, [r3, #12]
 8003558:	697b      	ldr	r3, [r7, #20]
 800355a:	005b      	lsls	r3, r3, #1
 800355c:	fa02 f303 	lsl.w	r3, r2, r3
 8003560:	693a      	ldr	r2, [r7, #16]
 8003562:	4313      	orrs	r3, r2
 8003564:	613b      	str	r3, [r7, #16]
 8003566:	687b      	ldr	r3, [r7, #4]
 8003568:	693a      	ldr	r2, [r7, #16]
 800356a:	609a      	str	r2, [r3, #8]
 800356c:	687b      	ldr	r3, [r7, #4]
 800356e:	685b      	ldr	r3, [r3, #4]
 8003570:	613b      	str	r3, [r7, #16]
 8003572:	2201      	movs	r2, #1
 8003574:	697b      	ldr	r3, [r7, #20]
 8003576:	fa02 f303 	lsl.w	r3, r2, r3
 800357a:	43db      	mvns	r3, r3
 800357c:	693a      	ldr	r2, [r7, #16]
 800357e:	4013      	ands	r3, r2
 8003580:	613b      	str	r3, [r7, #16]
 8003582:	683b      	ldr	r3, [r7, #0]
 8003584:	685b      	ldr	r3, [r3, #4]
 8003586:	091b      	lsrs	r3, r3, #4
 8003588:	f003 0201 	and.w	r2, r3, #1
 800358c:	697b      	ldr	r3, [r7, #20]
 800358e:	fa02 f303 	lsl.w	r3, r2, r3
 8003592:	693a      	ldr	r2, [r7, #16]
 8003594:	4313      	orrs	r3, r2
 8003596:	613b      	str	r3, [r7, #16]
 8003598:	687b      	ldr	r3, [r7, #4]
 800359a:	693a      	ldr	r2, [r7, #16]
 800359c:	605a      	str	r2, [r3, #4]
 800359e:	683b      	ldr	r3, [r7, #0]
 80035a0:	685b      	ldr	r3, [r3, #4]
 80035a2:	f003 0303 	and.w	r3, r3, #3
 80035a6:	2b03      	cmp	r3, #3
 80035a8:	d118      	bne.n	80035dc <HAL_GPIO_Init+0xe0>
 80035aa:	687b      	ldr	r3, [r7, #4]
 80035ac:	6adb      	ldr	r3, [r3, #44]	@ 0x2c
 80035ae:	613b      	str	r3, [r7, #16]
 80035b0:	2201      	movs	r2, #1
 80035b2:	697b      	ldr	r3, [r7, #20]
 80035b4:	fa02 f303 	lsl.w	r3, r2, r3
 80035b8:	43db      	mvns	r3, r3
 80035ba:	693a      	ldr	r2, [r7, #16]
 80035bc:	4013      	ands	r3, r2
 80035be:	613b      	str	r3, [r7, #16]
 80035c0:	683b      	ldr	r3, [r7, #0]
 80035c2:	685b      	ldr	r3, [r3, #4]
 80035c4:	08db      	lsrs	r3, r3, #3
 80035c6:	f003 0201 	and.w	r2, r3, #1
 80035ca:	697b      	ldr	r3, [r7, #20]
 80035cc:	fa02 f303 	lsl.w	r3, r2, r3
 80035d0:	693a      	ldr	r2, [r7, #16]
 80035d2:	4313      	orrs	r3, r2
 80035d4:	613b      	str	r3, [r7, #16]
 80035d6:	687b      	ldr	r3, [r7, #4]
 80035d8:	693a      	ldr	r2, [r7, #16]
 80035da:	62da      	str	r2, [r3, #44]	@ 0x2c
 80035dc:	683b      	ldr	r3, [r7, #0]
 80035de:	685b      	ldr	r3, [r3, #4]
 80035e0:	f003 0303 	and.w	r3, r3, #3
 80035e4:	2b03      	cmp	r3, #3
 80035e6:	d017      	beq.n	8003618 <HAL_GPIO_Init+0x11c>
 80035e8:	687b      	ldr	r3, [r7, #4]
 80035ea:	68db      	ldr	r3, [r3, #12]
 80035ec:	613b      	str	r3, [r7, #16]
 80035ee:	697b      	ldr	r3, [r7, #20]
 80035f0:	005b      	lsls	r3, r3, #1
 80035f2:	2203      	movs	r2, #3
 80035f4:	fa02 f303 	lsl.w	r3, r2, r3
 80035f8:	43db      	mvns	r3, r3
 80035fa:	693a      	ldr	r2, [r7, #16]
 80035fc:	4013      	ands	r3, r2
 80035fe:	613b      	str	r3, [r7, #16]
 8003600:	683b      	ldr	r3, [r7, #0]
 8003602:	689a      	ldr	r2, [r3, #8]
 8003604:	697b      	ldr	r3, [r7, #20]
 8003606:	005b      	lsls	r3, r3, #1
 8003608:	fa02 f303 	lsl.w	r3, r2, r3
 800360c:	693a      	ldr	r2, [r7, #16]
 800360e:	4313      	orrs	r3, r2
 8003610:	613b      	str	r3, [r7, #16]
 8003612:	687b      	ldr	r3, [r7, #4]
 8003614:	693a      	ldr	r2, [r7, #16]
 8003616:	60da      	str	r2, [r3, #12]
 8003618:	683b      	ldr	r3, [r7, #0]
 800361a:	685b      	ldr	r3, [r3, #4]
 800361c:	f003 0303 	and.w	r3, r3, #3
 8003620:	2b02      	cmp	r3, #2
 8003622:	d123      	bne.n	800366c <HAL_GPIO_Init+0x170>
 8003624:	697b      	ldr	r3, [r7, #20]
 8003626:	08da      	lsrs	r2, r3, #3
 8003628:	687b      	ldr	r3, [r7, #4]
 800362a:	3208      	adds	r2, #8
 800362c:	f853 3022 	ldr.w	r3, [r3, r2, lsl #2]
 8003630:	613b      	str	r3, [r7, #16]
 8003632:	697b      	ldr	r3, [r7, #20]
 8003634:	f003 0307 	and.w	r3, r3, #7
 8003638:	009b      	lsls	r3, r3, #2
 800363a:	220f      	movs	r2, #15
 800363c:	fa02 f303 	lsl.w	r3, r2, r3
 8003640:	43db      	mvns	r3, r3
 8003642:	693a      	ldr	r2, [r7, #16]
 8003644:	4013      	ands	r3, r2
 8003646:	613b      	str	r3, [r7, #16]
 8003648:	683b      	ldr	r3, [r7, #0]
 800364a:	691a      	ldr	r2, [r3, #16]
 800364c:	697b      	ldr	r3, [r7, #20]
 800364e:	f003 0307 	and.w	r3, r3, #7
 8003652:	009b      	lsls	r3, r3, #2
 8003654:	fa02 f303 	lsl.w	r3, r2, r3
 8003658:	693a      	ldr	r2, [r7, #16]
 800365a:	4313      	orrs	r3, r2
 800365c:	613b      	str	r3, [r7, #16]
 800365e:	697b      	ldr	r3, [r7, #20]
 8003660:	08da      	lsrs	r2, r3, #3
 8003662:	687b      	ldr	r3, [r7, #4]
 8003664:	3208      	adds	r2, #8
 8003666:	6939      	ldr	r1, [r7, #16]
 8003668:	f843 1022 	str.w	r1, [r3, r2, lsl #2]
 800366c:	687b      	ldr	r3, [r7, #4]
 800366e:	681b      	ldr	r3, [r3, #0]
 8003670:	613b      	str	r3, [r7, #16]
 8003672:	697b      	ldr	r3, [r7, #20]
 8003674:	005b      	lsls	r3, r3, #1
 8003676:	2203      	movs	r2, #3
 8003678:	fa02 f303 	lsl.w	r3, r2, r3
 800367c:	43db      	mvns	r3, r3
 800367e:	693a      	ldr	r2, [r7, #16]
 8003680:	4013      	ands	r3, r2
 8003682:	613b      	str	r3, [r7, #16]
 8003684:	683b      	ldr	r3, [r7, #0]
 8003686:	685b      	ldr	r3, [r3, #4]
 8003688:	f003 0203 	and.w	r2, r3, #3
 800368c:	697b      	ldr	r3, [r7, #20]
 800368e:	005b      	lsls	r3, r3, #1
 8003690:	fa02 f303 	lsl.w	r3, r2, r3
 8003694:	693a      	ldr	r2, [r7, #16]
 8003696:	4313      	orrs	r3, r2
 8003698:	613b      	str	r3, [r7, #16]
 800369a:	687b      	ldr	r3, [r7, #4]
 800369c:	693a      	ldr	r2, [r7, #16]
 800369e:	601a      	str	r2, [r3, #0]
 80036a0:	683b      	ldr	r3, [r7, #0]
 80036a2:	685b      	ldr	r3, [r3, #4]
 80036a4:	f403 3340 	and.w	r3, r3, #196608	@ 0x30000
 80036a8:	2b00      	cmp	r3, #0
 80036aa:	f000 80ac 	beq.w	8003806 <HAL_GPIO_Init+0x30a>
 80036ae:	4b5f      	ldr	r3, [pc, #380]	@ (800382c <HAL_GPIO_Init+0x330>)
 80036b0:	6e1b      	ldr	r3, [r3, #96]	@ 0x60
 80036b2:	4a5e      	ldr	r2, [pc, #376]	@ (800382c <HAL_GPIO_Init+0x330>)
 80036b4:	f043 0301 	orr.w	r3, r3, #1
 80036b8:	6613      	str	r3, [r2, #96]	@ 0x60
 80036ba:	4b5c      	ldr	r3, [pc, #368]	@ (800382c <HAL_GPIO_Init+0x330>)
 80036bc:	6e1b      	ldr	r3, [r3, #96]	@ 0x60
 80036be:	f003 0301 	and.w	r3, r3, #1
 80036c2:	60bb      	str	r3, [r7, #8]
 80036c4:	68bb      	ldr	r3, [r7, #8]
 80036c6:	4a5a      	ldr	r2, [pc, #360]	@ (8003830 <HAL_GPIO_Init+0x334>)
 80036c8:	697b      	ldr	r3, [r7, #20]
 80036ca:	089b      	lsrs	r3, r3, #2
 80036cc:	3302      	adds	r3, #2
 80036ce:	f852 3023 	ldr.w	r3, [r2, r3, lsl #2]
 80036d2:	613b      	str	r3, [r7, #16]
 80036d4:	697b      	ldr	r3, [r7, #20]
 80036d6:	f003 0303 	and.w	r3, r3, #3
 80036da:	009b      	lsls	r3, r3, #2
 80036dc:	220f      	movs	r2, #15
 80036de:	fa02 f303 	lsl.w	r3, r2, r3
 80036e2:	43db      	mvns	r3, r3
 80036e4:	693a      	ldr	r2, [r7, #16]
 80036e6:	4013      	ands	r3, r2
 80036e8:	613b      	str	r3, [r7, #16]
 80036ea:	687b      	ldr	r3, [r7, #4]
 80036ec:	f1b3 4f90 	cmp.w	r3, #1207959552	@ 0x48000000
 80036f0:	d025      	beq.n	800373e <HAL_GPIO_Init+0x242>
 80036f2:	687b      	ldr	r3, [r7, #4]
 80036f4:	4a4f      	ldr	r2, [pc, #316]	@ (8003834 <HAL_GPIO_Init+0x338>)
 80036f6:	4293      	cmp	r3, r2
 80036f8:	d01f      	beq.n	800373a <HAL_GPIO_Init+0x23e>
 80036fa:	687b      	ldr	r3, [r7, #4]
 80036fc:	4a4e      	ldr	r2, [pc, #312]	@ (8003838 <HAL_GPIO_Init+0x33c>)
 80036fe:	4293      	cmp	r3, r2
 8003700:	d019      	beq.n	8003736 <HAL_GPIO_Init+0x23a>
 8003702:	687b      	ldr	r3, [r7, #4]
 8003704:	4a4d      	ldr	r2, [pc, #308]	@ (800383c <HAL_GPIO_Init+0x340>)
 8003706:	4293      	cmp	r3, r2
 8003708:	d013      	beq.n	8003732 <HAL_GPIO_Init+0x236>
 800370a:	687b      	ldr	r3, [r7, #4]
 800370c:	4a4c      	ldr	r2, [pc, #304]	@ (8003840 <HAL_GPIO_Init+0x344>)
 800370e:	4293      	cmp	r3, r2
 8003710:	d00d      	beq.n	800372e <HAL_GPIO_Init+0x232>
 8003712:	687b      	ldr	r3, [r7, #4]
 8003714:	4a4b      	ldr	r2, [pc, #300]	@ (8003844 <HAL_GPIO_Init+0x348>)
 8003716:	4293      	cmp	r3, r2
 8003718:	d007      	beq.n	800372a <HAL_GPIO_Init+0x22e>
 800371a:	687b      	ldr	r3, [r7, #4]
 800371c:	4a4a      	ldr	r2, [pc, #296]	@ (8003848 <HAL_GPIO_Init+0x34c>)
 800371e:	4293      	cmp	r3, r2
 8003720:	d101      	bne.n	8003726 <HAL_GPIO_Init+0x22a>
 8003722:	2306      	movs	r3, #6
 8003724:	e00c      	b.n	8003740 <HAL_GPIO_Init+0x244>
 8003726:	2307      	movs	r3, #7
 8003728:	e00a      	b.n	8003740 <HAL_GPIO_Init+0x244>
 800372a:	2305      	movs	r3, #5
 800372c:	e008      	b.n	8003740 <HAL_GPIO_Init+0x244>
 800372e:	2304      	movs	r3, #4
 8003730:	e006      	b.n	8003740 <HAL_GPIO_Init+0x244>
 8003732:	2303      	movs	r3, #3
 8003734:	e004      	b.n	8003740 <HAL_GPIO_Init+0x244>
 8003736:	2302      	movs	r3, #2
 8003738:	e002      	b.n	8003740 <HAL_GPIO_Init+0x244>
 800373a:	2301      	movs	r3, #1
 800373c:	e000      	b.n	8003740 <HAL_GPIO_Init+0x244>
 800373e:	2300      	movs	r3, #0
 8003740:	697a      	ldr	r2, [r7, #20]
 8003742:	f002 0203 	and.w	r2, r2, #3
 8003746:	0092      	lsls	r2, r2, #2
 8003748:	4093      	lsls	r3, r2
 800374a:	693a      	ldr	r2, [r7, #16]
 800374c:	4313      	orrs	r3, r2
 800374e:	613b      	str	r3, [r7, #16]
 8003750:	4937      	ldr	r1, [pc, #220]	@ (8003830 <HAL_GPIO_Init+0x334>)
 8003752:	697b      	ldr	r3, [r7, #20]
 8003754:	089b      	lsrs	r3, r3, #2
 8003756:	3302      	adds	r3, #2
 8003758:	693a      	ldr	r2, [r7, #16]
 800375a:	f841 2023 	str.w	r2, [r1, r3, lsl #2]
 800375e:	4b3b      	ldr	r3, [pc, #236]	@ (800384c <HAL_GPIO_Init+0x350>)
 8003760:	689b      	ldr	r3, [r3, #8]
 8003762:	613b      	str	r3, [r7, #16]
 8003764:	68fb      	ldr	r3, [r7, #12]
 8003766:	43db      	mvns	r3, r3
 8003768:	693a      	ldr	r2, [r7, #16]
 800376a:	4013      	ands	r3, r2
 800376c:	613b      	str	r3, [r7, #16]
 800376e:	683b      	ldr	r3, [r7, #0]
 8003770:	685b      	ldr	r3, [r3, #4]
 8003772:	f403 1380 	and.w	r3, r3, #1048576	@ 0x100000
 8003776:	2b00      	cmp	r3, #0
 8003778:	d003      	beq.n	8003782 <HAL_GPIO_Init+0x286>
 800377a:	693a      	ldr	r2, [r7, #16]
 800377c:	68fb      	ldr	r3, [r7, #12]
 800377e:	4313      	orrs	r3, r2
 8003780:	613b      	str	r3, [r7, #16]
 8003782:	4a32      	ldr	r2, [pc, #200]	@ (800384c <HAL_GPIO_Init+0x350>)
 8003784:	693b      	ldr	r3, [r7, #16]
 8003786:	6093      	str	r3, [r2, #8]
 8003788:	4b30      	ldr	r3, [pc, #192]	@ (800384c <HAL_GPIO_Init+0x350>)
 800378a:	68db      	ldr	r3, [r3, #12]
 800378c:	613b      	str	r3, [r7, #16]
 800378e:	68fb      	ldr	r3, [r7, #12]
 8003790:	43db      	mvns	r3, r3
 8003792:	693a      	ldr	r2, [r7, #16]
 8003794:	4013      	ands	r3, r2
 8003796:	613b      	str	r3, [r7, #16]
 8003798:	683b      	ldr	r3, [r7, #0]
 800379a:	685b      	ldr	r3, [r3, #4]
 800379c:	f403 1300 	and.w	r3, r3, #2097152	@ 0x200000
 80037a0:	2b00      	cmp	r3, #0
 80037a2:	d003      	beq.n	80037ac <HAL_GPIO_Init+0x2b0>
 80037a4:	693a      	ldr	r2, [r7, #16]
 80037a6:	68fb      	ldr	r3, [r7, #12]
 80037a8:	4313      	orrs	r3, r2
 80037aa:	613b      	str	r3, [r7, #16]
 80037ac:	4a27      	ldr	r2, [pc, #156]	@ (800384c <HAL_GPIO_Init+0x350>)
 80037ae:	693b      	ldr	r3, [r7, #16]
 80037b0:	60d3      	str	r3, [r2, #12]
 80037b2:	4b26      	ldr	r3, [pc, #152]	@ (800384c <HAL_GPIO_Init+0x350>)
 80037b4:	685b      	ldr	r3, [r3, #4]
 80037b6:	613b      	str	r3, [r7, #16]
 80037b8:	68fb      	ldr	r3, [r7, #12]
 80037ba:	43db      	mvns	r3, r3
 80037bc:	693a      	ldr	r2, [r7, #16]
 80037be:	4013      	ands	r3, r2
 80037c0:	613b      	str	r3, [r7, #16]
 80037c2:	683b      	ldr	r3, [r7, #0]
 80037c4:	685b      	ldr	r3, [r3, #4]
 80037c6:	f403 3300 	and.w	r3, r3, #131072	@ 0x20000
 80037ca:	2b00      	cmp	r3, #0
 80037cc:	d003      	beq.n	80037d6 <HAL_GPIO_Init+0x2da>
 80037ce:	693a      	ldr	r2, [r7, #16]
 80037d0:	68fb      	ldr	r3, [r7, #12]
 80037d2:	4313      	orrs	r3, r2
 80037d4:	613b      	str	r3, [r7, #16]
 80037d6:	4a1d      	ldr	r2, [pc, #116]	@ (800384c <HAL_GPIO_Init+0x350>)
 80037d8:	693b      	ldr	r3, [r7, #16]
 80037da:	6053      	str	r3, [r2, #4]
 80037dc:	4b1b      	ldr	r3, [pc, #108]	@ (800384c <HAL_GPIO_Init+0x350>)
 80037de:	681b      	ldr	r3, [r3, #0]
 80037e0:	613b      	str	r3, [r7, #16]
 80037e2:	68fb      	ldr	r3, [r7, #12]
 80037e4:	43db      	mvns	r3, r3
 80037e6:	693a      	ldr	r2, [r7, #16]
 80037e8:	4013      	ands	r3, r2
 80037ea:	613b      	str	r3, [r7, #16]
 80037ec:	683b      	ldr	r3, [r7, #0]
 80037ee:	685b      	ldr	r3, [r3, #4]
 80037f0:	f403 3380 	and.w	r3, r3, #65536	@ 0x10000
 80037f4:	2b00      	cmp	r3, #0
 80037f6:	d003      	beq.n	8003800 <HAL_GPIO_Init+0x304>
 80037f8:	693a      	ldr	r2, [r7, #16]
 80037fa:	68fb      	ldr	r3, [r7, #12]
 80037fc:	4313      	orrs	r3, r2
 80037fe:	613b      	str	r3, [r7, #16]
 8003800:	4a12      	ldr	r2, [pc, #72]	@ (800384c <HAL_GPIO_Init+0x350>)
 8003802:	693b      	ldr	r3, [r7, #16]
 8003804:	6013      	str	r3, [r2, #0]
 8003806:	697b      	ldr	r3, [r7, #20]
 8003808:	3301      	adds	r3, #1
 800380a:	617b      	str	r3, [r7, #20]
 800380c:	683b      	ldr	r3, [r7, #0]
 800380e:	681a      	ldr	r2, [r3, #0]
 8003810:	697b      	ldr	r3, [r7, #20]
 8003812:	fa22 f303 	lsr.w	r3, r2, r3
 8003816:	2b00      	cmp	r3, #0
 8003818:	f47f ae78 	bne.w	800350c <HAL_GPIO_Init+0x10>
 800381c:	bf00      	nop
 800381e:	bf00      	nop
 8003820:	371c      	adds	r7, #28
 8003822:	46bd      	mov	sp, r7
 8003824:	f85d 7b04 	ldr.w	r7, [sp], #4
 8003828:	4770      	bx	lr
 800382a:	bf00      	nop
 800382c:	40021000 	.word	0x40021000
 8003830:	40010000 	.word	0x40010000
 8003834:	48000400 	.word	0x48000400
 8003838:	48000800 	.word	0x48000800
 800383c:	48000c00 	.word	0x48000c00
 8003840:	48001000 	.word	0x48001000
 8003844:	48001400 	.word	0x48001400
 8003848:	48001800 	.word	0x48001800
 800384c:	40010400 	.word	0x40010400

08003850 <HAL_GPIO_WritePin>:
 8003850:	b480      	push	{r7}
 8003852:	b083      	sub	sp, #12
 8003854:	af00      	add	r7, sp, #0
 8003856:	6078      	str	r0, [r7, #4]
 8003858:	460b      	mov	r3, r1
 800385a:	807b      	strh	r3, [r7, #2]
 800385c:	4613      	mov	r3, r2
 800385e:	707b      	strb	r3, [r7, #1]
 8003860:	787b      	ldrb	r3, [r7, #1]
 8003862:	2b00      	cmp	r3, #0
 8003864:	d003      	beq.n	800386e <HAL_GPIO_WritePin+0x1e>
 8003866:	887a      	ldrh	r2, [r7, #2]
 8003868:	687b      	ldr	r3, [r7, #4]
 800386a:	619a      	str	r2, [r3, #24]
 800386c:	e002      	b.n	8003874 <HAL_GPIO_WritePin+0x24>
 800386e:	887a      	ldrh	r2, [r7, #2]
 8003870:	687b      	ldr	r3, [r7, #4]
 8003872:	629a      	str	r2, [r3, #40]	@ 0x28
 8003874:	bf00      	nop
 8003876:	370c      	adds	r7, #12
 8003878:	46bd      	mov	sp, r7
 800387a:	f85d 7b04 	ldr.w	r7, [sp], #4
 800387e:	4770      	bx	lr

08003880 <HAL_I2C_Init>:
 8003880:	b580      	push	{r7, lr}
 8003882:	b082      	sub	sp, #8
 8003884:	af00      	add	r7, sp, #0
 8003886:	6078      	str	r0, [r7, #4]
 8003888:	687b      	ldr	r3, [r7, #4]
 800388a:	2b00      	cmp	r3, #0
 800388c:	d101      	bne.n	8003892 <HAL_I2C_Init+0x12>
 800388e:	2301      	movs	r3, #1
 8003890:	e08d      	b.n	80039ae <HAL_I2C_Init+0x12e>
 8003892:	687b      	ldr	r3, [r7, #4]
 8003894:	f893 3041 	ldrb.w	r3, [r3, #65]	@ 0x41
 8003898:	b2db      	uxtb	r3, r3
 800389a:	2b00      	cmp	r3, #0
 800389c:	d106      	bne.n	80038ac <HAL_I2C_Init+0x2c>
 800389e:	687b      	ldr	r3, [r7, #4]
 80038a0:	2200      	movs	r2, #0
 80038a2:	f883 2040 	strb.w	r2, [r3, #64]	@ 0x40
 80038a6:	6878      	ldr	r0, [r7, #4]
 80038a8:	f7fd fed4 	bl	8001654 <HAL_I2C_MspInit>
 80038ac:	687b      	ldr	r3, [r7, #4]
 80038ae:	2224      	movs	r2, #36	@ 0x24
 80038b0:	f883 2041 	strb.w	r2, [r3, #65]	@ 0x41
 80038b4:	687b      	ldr	r3, [r7, #4]
 80038b6:	681b      	ldr	r3, [r3, #0]
 80038b8:	681a      	ldr	r2, [r3, #0]
 80038ba:	687b      	ldr	r3, [r7, #4]
 80038bc:	681b      	ldr	r3, [r3, #0]
 80038be:	f022 0201 	bic.w	r2, r2, #1
 80038c2:	601a      	str	r2, [r3, #0]
 80038c4:	687b      	ldr	r3, [r7, #4]
 80038c6:	685a      	ldr	r2, [r3, #4]
 80038c8:	687b      	ldr	r3, [r7, #4]
 80038ca:	681b      	ldr	r3, [r3, #0]
 80038cc:	f022 6270 	bic.w	r2, r2, #251658240	@ 0xf000000
 80038d0:	611a      	str	r2, [r3, #16]
 80038d2:	687b      	ldr	r3, [r7, #4]
 80038d4:	681b      	ldr	r3, [r3, #0]
 80038d6:	689a      	ldr	r2, [r3, #8]
 80038d8:	687b      	ldr	r3, [r7, #4]
 80038da:	681b      	ldr	r3, [r3, #0]
 80038dc:	f422 4200 	bic.w	r2, r2, #32768	@ 0x8000
 80038e0:	609a      	str	r2, [r3, #8]
 80038e2:	687b      	ldr	r3, [r7, #4]
 80038e4:	68db      	ldr	r3, [r3, #12]
 80038e6:	2b01      	cmp	r3, #1
 80038e8:	d107      	bne.n	80038fa <HAL_I2C_Init+0x7a>
 80038ea:	687b      	ldr	r3, [r7, #4]
 80038ec:	689a      	ldr	r2, [r3, #8]
 80038ee:	687b      	ldr	r3, [r7, #4]
 80038f0:	681b      	ldr	r3, [r3, #0]
 80038f2:	f442 4200 	orr.w	r2, r2, #32768	@ 0x8000
 80038f6:	609a      	str	r2, [r3, #8]
 80038f8:	e006      	b.n	8003908 <HAL_I2C_Init+0x88>
 80038fa:	687b      	ldr	r3, [r7, #4]
 80038fc:	689a      	ldr	r2, [r3, #8]
 80038fe:	687b      	ldr	r3, [r7, #4]
 8003900:	681b      	ldr	r3, [r3, #0]
 8003902:	f442 4204 	orr.w	r2, r2, #33792	@ 0x8400
 8003906:	609a      	str	r2, [r3, #8]
 8003908:	687b      	ldr	r3, [r7, #4]
 800390a:	68db      	ldr	r3, [r3, #12]
 800390c:	2b02      	cmp	r3, #2
 800390e:	d108      	bne.n	8003922 <HAL_I2C_Init+0xa2>
 8003910:	687b      	ldr	r3, [r7, #4]
 8003912:	681b      	ldr	r3, [r3, #0]
 8003914:	685a      	ldr	r2, [r3, #4]
 8003916:	687b      	ldr	r3, [r7, #4]
 8003918:	681b      	ldr	r3, [r3, #0]
 800391a:	f442 6200 	orr.w	r2, r2, #2048	@ 0x800
 800391e:	605a      	str	r2, [r3, #4]
 8003920:	e007      	b.n	8003932 <HAL_I2C_Init+0xb2>
 8003922:	687b      	ldr	r3, [r7, #4]
 8003924:	681b      	ldr	r3, [r3, #0]
 8003926:	685a      	ldr	r2, [r3, #4]
 8003928:	687b      	ldr	r3, [r7, #4]
 800392a:	681b      	ldr	r3, [r3, #0]
 800392c:	f422 6200 	bic.w	r2, r2, #2048	@ 0x800
 8003930:	605a      	str	r2, [r3, #4]
 8003932:	687b      	ldr	r3, [r7, #4]
 8003934:	681b      	ldr	r3, [r3, #0]
 8003936:	685b      	ldr	r3, [r3, #4]
 8003938:	687a      	ldr	r2, [r7, #4]
 800393a:	6812      	ldr	r2, [r2, #0]
 800393c:	f043 7300 	orr.w	r3, r3, #33554432	@ 0x2000000
 8003940:	f443 4300 	orr.w	r3, r3, #32768	@ 0x8000
 8003944:	6053      	str	r3, [r2, #4]
 8003946:	687b      	ldr	r3, [r7, #4]
 8003948:	681b      	ldr	r3, [r3, #0]
 800394a:	68da      	ldr	r2, [r3, #12]
 800394c:	687b      	ldr	r3, [r7, #4]
 800394e:	681b      	ldr	r3, [r3, #0]
 8003950:	f422 4200 	bic.w	r2, r2, #32768	@ 0x8000
 8003954:	60da      	str	r2, [r3, #12]
 8003956:	687b      	ldr	r3, [r7, #4]
 8003958:	691a      	ldr	r2, [r3, #16]
 800395a:	687b      	ldr	r3, [r7, #4]
 800395c:	695b      	ldr	r3, [r3, #20]
 800395e:	ea42 0103 	orr.w	r1, r2, r3
 8003962:	687b      	ldr	r3, [r7, #4]
 8003964:	699b      	ldr	r3, [r3, #24]
 8003966:	021a      	lsls	r2, r3, #8
 8003968:	687b      	ldr	r3, [r7, #4]
 800396a:	681b      	ldr	r3, [r3, #0]
 800396c:	430a      	orrs	r2, r1
 800396e:	60da      	str	r2, [r3, #12]
 8003970:	687b      	ldr	r3, [r7, #4]
 8003972:	69d9      	ldr	r1, [r3, #28]
 8003974:	687b      	ldr	r3, [r7, #4]
 8003976:	6a1a      	ldr	r2, [r3, #32]
 8003978:	687b      	ldr	r3, [r7, #4]
 800397a:	681b      	ldr	r3, [r3, #0]
 800397c:	430a      	orrs	r2, r1
 800397e:	601a      	str	r2, [r3, #0]
 8003980:	687b      	ldr	r3, [r7, #4]
 8003982:	681b      	ldr	r3, [r3, #0]
 8003984:	681a      	ldr	r2, [r3, #0]
 8003986:	687b      	ldr	r3, [r7, #4]
 8003988:	681b      	ldr	r3, [r3, #0]
 800398a:	f042 0201 	orr.w	r2, r2, #1
 800398e:	601a      	str	r2, [r3, #0]
 8003990:	687b      	ldr	r3, [r7, #4]
 8003992:	2200      	movs	r2, #0
 8003994:	645a      	str	r2, [r3, #68]	@ 0x44
 8003996:	687b      	ldr	r3, [r7, #4]
 8003998:	2220      	movs	r2, #32
 800399a:	f883 2041 	strb.w	r2, [r3, #65]	@ 0x41
 800399e:	687b      	ldr	r3, [r7, #4]
 80039a0:	2200      	movs	r2, #0
 80039a2:	631a      	str	r2, [r3, #48]	@ 0x30
 80039a4:	687b      	ldr	r3, [r7, #4]
 80039a6:	2200      	movs	r2, #0
 80039a8:	f883 2042 	strb.w	r2, [r3, #66]	@ 0x42
 80039ac:	2300      	movs	r3, #0
 80039ae:	4618      	mov	r0, r3
 80039b0:	3708      	adds	r7, #8
 80039b2:	46bd      	mov	sp, r7
 80039b4:	bd80      	pop	{r7, pc}

080039b6 <HAL_I2CEx_ConfigAnalogFilter>:
 80039b6:	b480      	push	{r7}
 80039b8:	b083      	sub	sp, #12
 80039ba:	af00      	add	r7, sp, #0
 80039bc:	6078      	str	r0, [r7, #4]
 80039be:	6039      	str	r1, [r7, #0]
 80039c0:	687b      	ldr	r3, [r7, #4]
 80039c2:	f893 3041 	ldrb.w	r3, [r3, #65]	@ 0x41
 80039c6:	b2db      	uxtb	r3, r3
 80039c8:	2b20      	cmp	r3, #32
 80039ca:	d138      	bne.n	8003a3e <HAL_I2CEx_ConfigAnalogFilter+0x88>
 80039cc:	687b      	ldr	r3, [r7, #4]
 80039ce:	f893 3040 	ldrb.w	r3, [r3, #64]	@ 0x40
 80039d2:	2b01      	cmp	r3, #1
 80039d4:	d101      	bne.n	80039da <HAL_I2CEx_ConfigAnalogFilter+0x24>
 80039d6:	2302      	movs	r3, #2
 80039d8:	e032      	b.n	8003a40 <HAL_I2CEx_ConfigAnalogFilter+0x8a>
 80039da:	687b      	ldr	r3, [r7, #4]
 80039dc:	2201      	movs	r2, #1
 80039de:	f883 2040 	strb.w	r2, [r3, #64]	@ 0x40
 80039e2:	687b      	ldr	r3, [r7, #4]
 80039e4:	2224      	movs	r2, #36	@ 0x24
 80039e6:	f883 2041 	strb.w	r2, [r3, #65]	@ 0x41
 80039ea:	687b      	ldr	r3, [r7, #4]
 80039ec:	681b      	ldr	r3, [r3, #0]
 80039ee:	681a      	ldr	r2, [r3, #0]
 80039f0:	687b      	ldr	r3, [r7, #4]
 80039f2:	681b      	ldr	r3, [r3, #0]
 80039f4:	f022 0201 	bic.w	r2, r2, #1
 80039f8:	601a      	str	r2, [r3, #0]
 80039fa:	687b      	ldr	r3, [r7, #4]
 80039fc:	681b      	ldr	r3, [r3, #0]
 80039fe:	681a      	ldr	r2, [r3, #0]
 8003a00:	687b      	ldr	r3, [r7, #4]
 8003a02:	681b      	ldr	r3, [r3, #0]
 8003a04:	f422 5280 	bic.w	r2, r2, #4096	@ 0x1000
 8003a08:	601a      	str	r2, [r3, #0]
 8003a0a:	687b      	ldr	r3, [r7, #4]
 8003a0c:	681b      	ldr	r3, [r3, #0]
 8003a0e:	6819      	ldr	r1, [r3, #0]
 8003a10:	687b      	ldr	r3, [r7, #4]
 8003a12:	681b      	ldr	r3, [r3, #0]
 8003a14:	683a      	ldr	r2, [r7, #0]
 8003a16:	430a      	orrs	r2, r1
 8003a18:	601a      	str	r2, [r3, #0]
 8003a1a:	687b      	ldr	r3, [r7, #4]
 8003a1c:	681b      	ldr	r3, [r3, #0]
 8003a1e:	681a      	ldr	r2, [r3, #0]
 8003a20:	687b      	ldr	r3, [r7, #4]
 8003a22:	681b      	ldr	r3, [r3, #0]
 8003a24:	f042 0201 	orr.w	r2, r2, #1
 8003a28:	601a      	str	r2, [r3, #0]
 8003a2a:	687b      	ldr	r3, [r7, #4]
 8003a2c:	2220      	movs	r2, #32
 8003a2e:	f883 2041 	strb.w	r2, [r3, #65]	@ 0x41
 8003a32:	687b      	ldr	r3, [r7, #4]
 8003a34:	2200      	movs	r2, #0
 8003a36:	f883 2040 	strb.w	r2, [r3, #64]	@ 0x40
 8003a3a:	2300      	movs	r3, #0
 8003a3c:	e000      	b.n	8003a40 <HAL_I2CEx_ConfigAnalogFilter+0x8a>
 8003a3e:	2302      	movs	r3, #2
 8003a40:	4618      	mov	r0, r3
 8003a42:	370c      	adds	r7, #12
 8003a44:	46bd      	mov	sp, r7
 8003a46:	f85d 7b04 	ldr.w	r7, [sp], #4
 8003a4a:	4770      	bx	lr

08003a4c <HAL_I2CEx_ConfigDigitalFilter>:
 8003a4c:	b480      	push	{r7}
 8003a4e:	b085      	sub	sp, #20
 8003a50:	af00      	add	r7, sp, #0
 8003a52:	6078      	str	r0, [r7, #4]
 8003a54:	6039      	str	r1, [r7, #0]
 8003a56:	687b      	ldr	r3, [r7, #4]
 8003a58:	f893 3041 	ldrb.w	r3, [r3, #65]	@ 0x41
 8003a5c:	b2db      	uxtb	r3, r3
 8003a5e:	2b20      	cmp	r3, #32
 8003a60:	d139      	bne.n	8003ad6 <HAL_I2CEx_ConfigDigitalFilter+0x8a>
 8003a62:	687b      	ldr	r3, [r7, #4]
 8003a64:	f893 3040 	ldrb.w	r3, [r3, #64]	@ 0x40
 8003a68:	2b01      	cmp	r3, #1
 8003a6a:	d101      	bne.n	8003a70 <HAL_I2CEx_ConfigDigitalFilter+0x24>
 8003a6c:	2302      	movs	r3, #2
 8003a6e:	e033      	b.n	8003ad8 <HAL_I2CEx_ConfigDigitalFilter+0x8c>
 8003a70:	687b      	ldr	r3, [r7, #4]
 8003a72:	2201      	movs	r2, #1
 8003a74:	f883 2040 	strb.w	r2, [r3, #64]	@ 0x40
 8003a78:	687b      	ldr	r3, [r7, #4]
 8003a7a:	2224      	movs	r2, #36	@ 0x24
 8003a7c:	f883 2041 	strb.w	r2, [r3, #65]	@ 0x41
 8003a80:	687b      	ldr	r3, [r7, #4]
 8003a82:	681b      	ldr	r3, [r3, #0]
 8003a84:	681a      	ldr	r2, [r3, #0]
 8003a86:	687b      	ldr	r3, [r7, #4]
 8003a88:	681b      	ldr	r3, [r3, #0]
 8003a8a:	f022 0201 	bic.w	r2, r2, #1
 8003a8e:	601a      	str	r2, [r3, #0]
 8003a90:	687b      	ldr	r3, [r7, #4]
 8003a92:	681b      	ldr	r3, [r3, #0]
 8003a94:	681b      	ldr	r3, [r3, #0]
 8003a96:	60fb      	str	r3, [r7, #12]
 8003a98:	68fb      	ldr	r3, [r7, #12]
 8003a9a:	f423 6370 	bic.w	r3, r3, #3840	@ 0xf00
 8003a9e:	60fb      	str	r3, [r7, #12]
 8003aa0:	683b      	ldr	r3, [r7, #0]
 8003aa2:	021b      	lsls	r3, r3, #8
 8003aa4:	68fa      	ldr	r2, [r7, #12]
 8003aa6:	4313      	orrs	r3, r2
 8003aa8:	60fb      	str	r3, [r7, #12]
 8003aaa:	687b      	ldr	r3, [r7, #4]
 8003aac:	681b      	ldr	r3, [r3, #0]
 8003aae:	68fa      	ldr	r2, [r7, #12]
 8003ab0:	601a      	str	r2, [r3, #0]
 8003ab2:	687b      	ldr	r3, [r7, #4]
 8003ab4:	681b      	ldr	r3, [r3, #0]
 8003ab6:	681a      	ldr	r2, [r3, #0]
 8003ab8:	687b      	ldr	r3, [r7, #4]
 8003aba:	681b      	ldr	r3, [r3, #0]
 8003abc:	f042 0201 	orr.w	r2, r2, #1
 8003ac0:	601a      	str	r2, [r3, #0]
 8003ac2:	687b      	ldr	r3, [r7, #4]
 8003ac4:	2220      	movs	r2, #32
 8003ac6:	f883 2041 	strb.w	r2, [r3, #65]	@ 0x41
 8003aca:	687b      	ldr	r3, [r7, #4]
 8003acc:	2200      	movs	r2, #0
 8003ace:	f883 2040 	strb.w	r2, [r3, #64]	@ 0x40
 8003ad2:	2300      	movs	r3, #0
 8003ad4:	e000      	b.n	8003ad8 <HAL_I2CEx_ConfigDigitalFilter+0x8c>
 8003ad6:	2302      	movs	r3, #2
 8003ad8:	4618      	mov	r0, r3
 8003ada:	3714      	adds	r7, #20
 8003adc:	46bd      	mov	sp, r7
 8003ade:	f85d 7b04 	ldr.w	r7, [sp], #4
 8003ae2:	4770      	bx	lr

08003ae4 <HAL_PWREx_GetVoltageRange>:
 8003ae4:	b480      	push	{r7}
 8003ae6:	af00      	add	r7, sp, #0
 8003ae8:	4b04      	ldr	r3, [pc, #16]	@ (8003afc <HAL_PWREx_GetVoltageRange+0x18>)
 8003aea:	681b      	ldr	r3, [r3, #0]
 8003aec:	f403 63c0 	and.w	r3, r3, #1536	@ 0x600
 8003af0:	4618      	mov	r0, r3
 8003af2:	46bd      	mov	sp, r7
 8003af4:	f85d 7b04 	ldr.w	r7, [sp], #4
 8003af8:	4770      	bx	lr
 8003afa:	bf00      	nop
 8003afc:	40007000 	.word	0x40007000

08003b00 <HAL_PWREx_ControlVoltageScaling>:
 8003b00:	b480      	push	{r7}
 8003b02:	b085      	sub	sp, #20
 8003b04:	af00      	add	r7, sp, #0
 8003b06:	6078      	str	r0, [r7, #4]
 8003b08:	687b      	ldr	r3, [r7, #4]
 8003b0a:	f5b3 7f00 	cmp.w	r3, #512	@ 0x200
 8003b0e:	d130      	bne.n	8003b72 <HAL_PWREx_ControlVoltageScaling+0x72>
 8003b10:	4b23      	ldr	r3, [pc, #140]	@ (8003ba0 <HAL_PWREx_ControlVoltageScaling+0xa0>)
 8003b12:	681b      	ldr	r3, [r3, #0]
 8003b14:	f403 63c0 	and.w	r3, r3, #1536	@ 0x600
 8003b18:	f5b3 7f00 	cmp.w	r3, #512	@ 0x200
 8003b1c:	d038      	beq.n	8003b90 <HAL_PWREx_ControlVoltageScaling+0x90>
 8003b1e:	4b20      	ldr	r3, [pc, #128]	@ (8003ba0 <HAL_PWREx_ControlVoltageScaling+0xa0>)
 8003b20:	681b      	ldr	r3, [r3, #0]
 8003b22:	f423 63c0 	bic.w	r3, r3, #1536	@ 0x600
 8003b26:	4a1e      	ldr	r2, [pc, #120]	@ (8003ba0 <HAL_PWREx_ControlVoltageScaling+0xa0>)
 8003b28:	f443 7300 	orr.w	r3, r3, #512	@ 0x200
 8003b2c:	6013      	str	r3, [r2, #0]
 8003b2e:	4b1d      	ldr	r3, [pc, #116]	@ (8003ba4 <HAL_PWREx_ControlVoltageScaling+0xa4>)
 8003b30:	681b      	ldr	r3, [r3, #0]
 8003b32:	2232      	movs	r2, #50	@ 0x32
 8003b34:	fb02 f303 	mul.w	r3, r2, r3
 8003b38:	4a1b      	ldr	r2, [pc, #108]	@ (8003ba8 <HAL_PWREx_ControlVoltageScaling+0xa8>)
 8003b3a:	fba2 2303 	umull	r2, r3, r2, r3
 8003b3e:	0c9b      	lsrs	r3, r3, #18
 8003b40:	3301      	adds	r3, #1
 8003b42:	60fb      	str	r3, [r7, #12]
 8003b44:	e002      	b.n	8003b4c <HAL_PWREx_ControlVoltageScaling+0x4c>
 8003b46:	68fb      	ldr	r3, [r7, #12]
 8003b48:	3b01      	subs	r3, #1
 8003b4a:	60fb      	str	r3, [r7, #12]
 8003b4c:	4b14      	ldr	r3, [pc, #80]	@ (8003ba0 <HAL_PWREx_ControlVoltageScaling+0xa0>)
 8003b4e:	695b      	ldr	r3, [r3, #20]
 8003b50:	f403 6380 	and.w	r3, r3, #1024	@ 0x400
 8003b54:	f5b3 6f80 	cmp.w	r3, #1024	@ 0x400
 8003b58:	d102      	bne.n	8003b60 <HAL_PWREx_ControlVoltageScaling+0x60>
 8003b5a:	68fb      	ldr	r3, [r7, #12]
 8003b5c:	2b00      	cmp	r3, #0
 8003b5e:	d1f2      	bne.n	8003b46 <HAL_PWREx_ControlVoltageScaling+0x46>
 8003b60:	4b0f      	ldr	r3, [pc, #60]	@ (8003ba0 <HAL_PWREx_ControlVoltageScaling+0xa0>)
 8003b62:	695b      	ldr	r3, [r3, #20]
 8003b64:	f403 6380 	and.w	r3, r3, #1024	@ 0x400
 8003b68:	f5b3 6f80 	cmp.w	r3, #1024	@ 0x400
 8003b6c:	d110      	bne.n	8003b90 <HAL_PWREx_ControlVoltageScaling+0x90>
 8003b6e:	2303      	movs	r3, #3
 8003b70:	e00f      	b.n	8003b92 <HAL_PWREx_ControlVoltageScaling+0x92>
 8003b72:	4b0b      	ldr	r3, [pc, #44]	@ (8003ba0 <HAL_PWREx_ControlVoltageScaling+0xa0>)
 8003b74:	681b      	ldr	r3, [r3, #0]
 8003b76:	f403 63c0 	and.w	r3, r3, #1536	@ 0x600
 8003b7a:	f5b3 6f80 	cmp.w	r3, #1024	@ 0x400
 8003b7e:	d007      	beq.n	8003b90 <HAL_PWREx_ControlVoltageScaling+0x90>
 8003b80:	4b07      	ldr	r3, [pc, #28]	@ (8003ba0 <HAL_PWREx_ControlVoltageScaling+0xa0>)
 8003b82:	681b      	ldr	r3, [r3, #0]
 8003b84:	f423 63c0 	bic.w	r3, r3, #1536	@ 0x600
 8003b88:	4a05      	ldr	r2, [pc, #20]	@ (8003ba0 <HAL_PWREx_ControlVoltageScaling+0xa0>)
 8003b8a:	f443 6380 	orr.w	r3, r3, #1024	@ 0x400
 8003b8e:	6013      	str	r3, [r2, #0]
 8003b90:	2300      	movs	r3, #0
 8003b92:	4618      	mov	r0, r3
 8003b94:	3714      	adds	r7, #20
 8003b96:	46bd      	mov	sp, r7
 8003b98:	f85d 7b04 	ldr.w	r7, [sp], #4
 8003b9c:	4770      	bx	lr
 8003b9e:	bf00      	nop
 8003ba0:	40007000 	.word	0x40007000
 8003ba4:	20000000 	.word	0x20000000
 8003ba8:	431bde83 	.word	0x431bde83

08003bac <HAL_RCC_OscConfig>:
 8003bac:	b580      	push	{r7, lr}
 8003bae:	b088      	sub	sp, #32
 8003bb0:	af00      	add	r7, sp, #0
 8003bb2:	6078      	str	r0, [r7, #4]
 8003bb4:	687b      	ldr	r3, [r7, #4]
 8003bb6:	2b00      	cmp	r3, #0
 8003bb8:	d101      	bne.n	8003bbe <HAL_RCC_OscConfig+0x12>
 8003bba:	2301      	movs	r3, #1
 8003bbc:	e3ca      	b.n	8004354 <HAL_RCC_OscConfig+0x7a8>
 8003bbe:	4b97      	ldr	r3, [pc, #604]	@ (8003e1c <HAL_RCC_OscConfig+0x270>)
 8003bc0:	689b      	ldr	r3, [r3, #8]
 8003bc2:	f003 030c 	and.w	r3, r3, #12
 8003bc6:	61bb      	str	r3, [r7, #24]
 8003bc8:	4b94      	ldr	r3, [pc, #592]	@ (8003e1c <HAL_RCC_OscConfig+0x270>)
 8003bca:	68db      	ldr	r3, [r3, #12]
 8003bcc:	f003 0303 	and.w	r3, r3, #3
 8003bd0:	617b      	str	r3, [r7, #20]
 8003bd2:	687b      	ldr	r3, [r7, #4]
 8003bd4:	681b      	ldr	r3, [r3, #0]
 8003bd6:	f003 0310 	and.w	r3, r3, #16
 8003bda:	2b00      	cmp	r3, #0
 8003bdc:	f000 80e4 	beq.w	8003da8 <HAL_RCC_OscConfig+0x1fc>
 8003be0:	69bb      	ldr	r3, [r7, #24]
 8003be2:	2b00      	cmp	r3, #0
 8003be4:	d007      	beq.n	8003bf6 <HAL_RCC_OscConfig+0x4a>
 8003be6:	69bb      	ldr	r3, [r7, #24]
 8003be8:	2b0c      	cmp	r3, #12
 8003bea:	f040 808b 	bne.w	8003d04 <HAL_RCC_OscConfig+0x158>
 8003bee:	697b      	ldr	r3, [r7, #20]
 8003bf0:	2b01      	cmp	r3, #1
 8003bf2:	f040 8087 	bne.w	8003d04 <HAL_RCC_OscConfig+0x158>
 8003bf6:	4b89      	ldr	r3, [pc, #548]	@ (8003e1c <HAL_RCC_OscConfig+0x270>)
 8003bf8:	681b      	ldr	r3, [r3, #0]
 8003bfa:	f003 0302 	and.w	r3, r3, #2
 8003bfe:	2b00      	cmp	r3, #0
 8003c00:	d005      	beq.n	8003c0e <HAL_RCC_OscConfig+0x62>
 8003c02:	687b      	ldr	r3, [r7, #4]
 8003c04:	699b      	ldr	r3, [r3, #24]
 8003c06:	2b00      	cmp	r3, #0
 8003c08:	d101      	bne.n	8003c0e <HAL_RCC_OscConfig+0x62>
 8003c0a:	2301      	movs	r3, #1
 8003c0c:	e3a2      	b.n	8004354 <HAL_RCC_OscConfig+0x7a8>
 8003c0e:	687b      	ldr	r3, [r7, #4]
 8003c10:	6a1a      	ldr	r2, [r3, #32]
 8003c12:	4b82      	ldr	r3, [pc, #520]	@ (8003e1c <HAL_RCC_OscConfig+0x270>)
 8003c14:	681b      	ldr	r3, [r3, #0]
 8003c16:	f003 0308 	and.w	r3, r3, #8
 8003c1a:	2b00      	cmp	r3, #0
 8003c1c:	d004      	beq.n	8003c28 <HAL_RCC_OscConfig+0x7c>
 8003c1e:	4b7f      	ldr	r3, [pc, #508]	@ (8003e1c <HAL_RCC_OscConfig+0x270>)
 8003c20:	681b      	ldr	r3, [r3, #0]
 8003c22:	f003 03f0 	and.w	r3, r3, #240	@ 0xf0
 8003c26:	e005      	b.n	8003c34 <HAL_RCC_OscConfig+0x88>
 8003c28:	4b7c      	ldr	r3, [pc, #496]	@ (8003e1c <HAL_RCC_OscConfig+0x270>)
 8003c2a:	f8d3 3094 	ldr.w	r3, [r3, #148]	@ 0x94
 8003c2e:	091b      	lsrs	r3, r3, #4
 8003c30:	f003 03f0 	and.w	r3, r3, #240	@ 0xf0
 8003c34:	4293      	cmp	r3, r2
 8003c36:	d223      	bcs.n	8003c80 <HAL_RCC_OscConfig+0xd4>
 8003c38:	687b      	ldr	r3, [r7, #4]
 8003c3a:	6a1b      	ldr	r3, [r3, #32]
 8003c3c:	4618      	mov	r0, r3
 8003c3e:	f000 fd55 	bl	80046ec <RCC_SetFlashLatencyFromMSIRange>
 8003c42:	4603      	mov	r3, r0
 8003c44:	2b00      	cmp	r3, #0
 8003c46:	d001      	beq.n	8003c4c <HAL_RCC_OscConfig+0xa0>
 8003c48:	2301      	movs	r3, #1
 8003c4a:	e383      	b.n	8004354 <HAL_RCC_OscConfig+0x7a8>
 8003c4c:	4b73      	ldr	r3, [pc, #460]	@ (8003e1c <HAL_RCC_OscConfig+0x270>)
 8003c4e:	681b      	ldr	r3, [r3, #0]
 8003c50:	4a72      	ldr	r2, [pc, #456]	@ (8003e1c <HAL_RCC_OscConfig+0x270>)
 8003c52:	f043 0308 	orr.w	r3, r3, #8
 8003c56:	6013      	str	r3, [r2, #0]
 8003c58:	4b70      	ldr	r3, [pc, #448]	@ (8003e1c <HAL_RCC_OscConfig+0x270>)
 8003c5a:	681b      	ldr	r3, [r3, #0]
 8003c5c:	f023 02f0 	bic.w	r2, r3, #240	@ 0xf0
 8003c60:	687b      	ldr	r3, [r7, #4]
 8003c62:	6a1b      	ldr	r3, [r3, #32]
 8003c64:	496d      	ldr	r1, [pc, #436]	@ (8003e1c <HAL_RCC_OscConfig+0x270>)
 8003c66:	4313      	orrs	r3, r2
 8003c68:	600b      	str	r3, [r1, #0]
 8003c6a:	4b6c      	ldr	r3, [pc, #432]	@ (8003e1c <HAL_RCC_OscConfig+0x270>)
 8003c6c:	685b      	ldr	r3, [r3, #4]
 8003c6e:	f423 427f 	bic.w	r2, r3, #65280	@ 0xff00
 8003c72:	687b      	ldr	r3, [r7, #4]
 8003c74:	69db      	ldr	r3, [r3, #28]
 8003c76:	021b      	lsls	r3, r3, #8
 8003c78:	4968      	ldr	r1, [pc, #416]	@ (8003e1c <HAL_RCC_OscConfig+0x270>)
 8003c7a:	4313      	orrs	r3, r2
 8003c7c:	604b      	str	r3, [r1, #4]
 8003c7e:	e025      	b.n	8003ccc <HAL_RCC_OscConfig+0x120>
 8003c80:	4b66      	ldr	r3, [pc, #408]	@ (8003e1c <HAL_RCC_OscConfig+0x270>)
 8003c82:	681b      	ldr	r3, [r3, #0]
 8003c84:	4a65      	ldr	r2, [pc, #404]	@ (8003e1c <HAL_RCC_OscConfig+0x270>)
 8003c86:	f043 0308 	orr.w	r3, r3, #8
 8003c8a:	6013      	str	r3, [r2, #0]
 8003c8c:	4b63      	ldr	r3, [pc, #396]	@ (8003e1c <HAL_RCC_OscConfig+0x270>)
 8003c8e:	681b      	ldr	r3, [r3, #0]
 8003c90:	f023 02f0 	bic.w	r2, r3, #240	@ 0xf0
 8003c94:	687b      	ldr	r3, [r7, #4]
 8003c96:	6a1b      	ldr	r3, [r3, #32]
 8003c98:	4960      	ldr	r1, [pc, #384]	@ (8003e1c <HAL_RCC_OscConfig+0x270>)
 8003c9a:	4313      	orrs	r3, r2
 8003c9c:	600b      	str	r3, [r1, #0]
 8003c9e:	4b5f      	ldr	r3, [pc, #380]	@ (8003e1c <HAL_RCC_OscConfig+0x270>)
 8003ca0:	685b      	ldr	r3, [r3, #4]
 8003ca2:	f423 427f 	bic.w	r2, r3, #65280	@ 0xff00
 8003ca6:	687b      	ldr	r3, [r7, #4]
 8003ca8:	69db      	ldr	r3, [r3, #28]
 8003caa:	021b      	lsls	r3, r3, #8
 8003cac:	495b      	ldr	r1, [pc, #364]	@ (8003e1c <HAL_RCC_OscConfig+0x270>)
 8003cae:	4313      	orrs	r3, r2
 8003cb0:	604b      	str	r3, [r1, #4]
 8003cb2:	69bb      	ldr	r3, [r7, #24]
 8003cb4:	2b00      	cmp	r3, #0
 8003cb6:	d109      	bne.n	8003ccc <HAL_RCC_OscConfig+0x120>
 8003cb8:	687b      	ldr	r3, [r7, #4]
 8003cba:	6a1b      	ldr	r3, [r3, #32]
 8003cbc:	4618      	mov	r0, r3
 8003cbe:	f000 fd15 	bl	80046ec <RCC_SetFlashLatencyFromMSIRange>
 8003cc2:	4603      	mov	r3, r0
 8003cc4:	2b00      	cmp	r3, #0
 8003cc6:	d001      	beq.n	8003ccc <HAL_RCC_OscConfig+0x120>
 8003cc8:	2301      	movs	r3, #1
 8003cca:	e343      	b.n	8004354 <HAL_RCC_OscConfig+0x7a8>
 8003ccc:	f000 fc4a 	bl	8004564 <HAL_RCC_GetSysClockFreq>
 8003cd0:	4602      	mov	r2, r0
 8003cd2:	4b52      	ldr	r3, [pc, #328]	@ (8003e1c <HAL_RCC_OscConfig+0x270>)
 8003cd4:	689b      	ldr	r3, [r3, #8]
 8003cd6:	091b      	lsrs	r3, r3, #4
 8003cd8:	f003 030f 	and.w	r3, r3, #15
 8003cdc:	4950      	ldr	r1, [pc, #320]	@ (8003e20 <HAL_RCC_OscConfig+0x274>)
 8003cde:	5ccb      	ldrb	r3, [r1, r3]
 8003ce0:	f003 031f 	and.w	r3, r3, #31
 8003ce4:	fa22 f303 	lsr.w	r3, r2, r3
 8003ce8:	4a4e      	ldr	r2, [pc, #312]	@ (8003e24 <HAL_RCC_OscConfig+0x278>)
 8003cea:	6013      	str	r3, [r2, #0]
 8003cec:	4b4e      	ldr	r3, [pc, #312]	@ (8003e28 <HAL_RCC_OscConfig+0x27c>)
 8003cee:	681b      	ldr	r3, [r3, #0]
 8003cf0:	4618      	mov	r0, r3
 8003cf2:	f7fe f8fd 	bl	8001ef0 <HAL_InitTick>
 8003cf6:	4603      	mov	r3, r0
 8003cf8:	73fb      	strb	r3, [r7, #15]
 8003cfa:	7bfb      	ldrb	r3, [r7, #15]
 8003cfc:	2b00      	cmp	r3, #0
 8003cfe:	d052      	beq.n	8003da6 <HAL_RCC_OscConfig+0x1fa>
 8003d00:	7bfb      	ldrb	r3, [r7, #15]
 8003d02:	e327      	b.n	8004354 <HAL_RCC_OscConfig+0x7a8>
 8003d04:	687b      	ldr	r3, [r7, #4]
 8003d06:	699b      	ldr	r3, [r3, #24]
 8003d08:	2b00      	cmp	r3, #0
 8003d0a:	d032      	beq.n	8003d72 <HAL_RCC_OscConfig+0x1c6>
 8003d0c:	4b43      	ldr	r3, [pc, #268]	@ (8003e1c <HAL_RCC_OscConfig+0x270>)
 8003d0e:	681b      	ldr	r3, [r3, #0]
 8003d10:	4a42      	ldr	r2, [pc, #264]	@ (8003e1c <HAL_RCC_OscConfig+0x270>)
 8003d12:	f043 0301 	orr.w	r3, r3, #1
 8003d16:	6013      	str	r3, [r2, #0]
 8003d18:	f7fe f93a 	bl	8001f90 <HAL_GetTick>
 8003d1c:	6138      	str	r0, [r7, #16]
 8003d1e:	e008      	b.n	8003d32 <HAL_RCC_OscConfig+0x186>
 8003d20:	f7fe f936 	bl	8001f90 <HAL_GetTick>
 8003d24:	4602      	mov	r2, r0
 8003d26:	693b      	ldr	r3, [r7, #16]
 8003d28:	1ad3      	subs	r3, r2, r3
 8003d2a:	2b02      	cmp	r3, #2
 8003d2c:	d901      	bls.n	8003d32 <HAL_RCC_OscConfig+0x186>
 8003d2e:	2303      	movs	r3, #3
 8003d30:	e310      	b.n	8004354 <HAL_RCC_OscConfig+0x7a8>
 8003d32:	4b3a      	ldr	r3, [pc, #232]	@ (8003e1c <HAL_RCC_OscConfig+0x270>)
 8003d34:	681b      	ldr	r3, [r3, #0]
 8003d36:	f003 0302 	and.w	r3, r3, #2
 8003d3a:	2b00      	cmp	r3, #0
 8003d3c:	d0f0      	beq.n	8003d20 <HAL_RCC_OscConfig+0x174>
 8003d3e:	4b37      	ldr	r3, [pc, #220]	@ (8003e1c <HAL_RCC_OscConfig+0x270>)
 8003d40:	681b      	ldr	r3, [r3, #0]
 8003d42:	4a36      	ldr	r2, [pc, #216]	@ (8003e1c <HAL_RCC_OscConfig+0x270>)
 8003d44:	f043 0308 	orr.w	r3, r3, #8
 8003d48:	6013      	str	r3, [r2, #0]
 8003d4a:	4b34      	ldr	r3, [pc, #208]	@ (8003e1c <HAL_RCC_OscConfig+0x270>)
 8003d4c:	681b      	ldr	r3, [r3, #0]
 8003d4e:	f023 02f0 	bic.w	r2, r3, #240	@ 0xf0
 8003d52:	687b      	ldr	r3, [r7, #4]
 8003d54:	6a1b      	ldr	r3, [r3, #32]
 8003d56:	4931      	ldr	r1, [pc, #196]	@ (8003e1c <HAL_RCC_OscConfig+0x270>)
 8003d58:	4313      	orrs	r3, r2
 8003d5a:	600b      	str	r3, [r1, #0]
 8003d5c:	4b2f      	ldr	r3, [pc, #188]	@ (8003e1c <HAL_RCC_OscConfig+0x270>)
 8003d5e:	685b      	ldr	r3, [r3, #4]
 8003d60:	f423 427f 	bic.w	r2, r3, #65280	@ 0xff00
 8003d64:	687b      	ldr	r3, [r7, #4]
 8003d66:	69db      	ldr	r3, [r3, #28]
 8003d68:	021b      	lsls	r3, r3, #8
 8003d6a:	492c      	ldr	r1, [pc, #176]	@ (8003e1c <HAL_RCC_OscConfig+0x270>)
 8003d6c:	4313      	orrs	r3, r2
 8003d6e:	604b      	str	r3, [r1, #4]
 8003d70:	e01a      	b.n	8003da8 <HAL_RCC_OscConfig+0x1fc>
 8003d72:	4b2a      	ldr	r3, [pc, #168]	@ (8003e1c <HAL_RCC_OscConfig+0x270>)
 8003d74:	681b      	ldr	r3, [r3, #0]
 8003d76:	4a29      	ldr	r2, [pc, #164]	@ (8003e1c <HAL_RCC_OscConfig+0x270>)
 8003d78:	f023 0301 	bic.w	r3, r3, #1
 8003d7c:	6013      	str	r3, [r2, #0]
 8003d7e:	f7fe f907 	bl	8001f90 <HAL_GetTick>
 8003d82:	6138      	str	r0, [r7, #16]
 8003d84:	e008      	b.n	8003d98 <HAL_RCC_OscConfig+0x1ec>
 8003d86:	f7fe f903 	bl	8001f90 <HAL_GetTick>
 8003d8a:	4602      	mov	r2, r0
 8003d8c:	693b      	ldr	r3, [r7, #16]
 8003d8e:	1ad3      	subs	r3, r2, r3
 8003d90:	2b02      	cmp	r3, #2
 8003d92:	d901      	bls.n	8003d98 <HAL_RCC_OscConfig+0x1ec>
 8003d94:	2303      	movs	r3, #3
 8003d96:	e2dd      	b.n	8004354 <HAL_RCC_OscConfig+0x7a8>
 8003d98:	4b20      	ldr	r3, [pc, #128]	@ (8003e1c <HAL_RCC_OscConfig+0x270>)
 8003d9a:	681b      	ldr	r3, [r3, #0]
 8003d9c:	f003 0302 	and.w	r3, r3, #2
 8003da0:	2b00      	cmp	r3, #0
 8003da2:	d1f0      	bne.n	8003d86 <HAL_RCC_OscConfig+0x1da>
 8003da4:	e000      	b.n	8003da8 <HAL_RCC_OscConfig+0x1fc>
 8003da6:	bf00      	nop
 8003da8:	687b      	ldr	r3, [r7, #4]
 8003daa:	681b      	ldr	r3, [r3, #0]
 8003dac:	f003 0301 	and.w	r3, r3, #1
 8003db0:	2b00      	cmp	r3, #0
 8003db2:	d074      	beq.n	8003e9e <HAL_RCC_OscConfig+0x2f2>
 8003db4:	69bb      	ldr	r3, [r7, #24]
 8003db6:	2b08      	cmp	r3, #8
 8003db8:	d005      	beq.n	8003dc6 <HAL_RCC_OscConfig+0x21a>
 8003dba:	69bb      	ldr	r3, [r7, #24]
 8003dbc:	2b0c      	cmp	r3, #12
 8003dbe:	d10e      	bne.n	8003dde <HAL_RCC_OscConfig+0x232>
 8003dc0:	697b      	ldr	r3, [r7, #20]
 8003dc2:	2b03      	cmp	r3, #3
 8003dc4:	d10b      	bne.n	8003dde <HAL_RCC_OscConfig+0x232>
 8003dc6:	4b15      	ldr	r3, [pc, #84]	@ (8003e1c <HAL_RCC_OscConfig+0x270>)
 8003dc8:	681b      	ldr	r3, [r3, #0]
 8003dca:	f403 3300 	and.w	r3, r3, #131072	@ 0x20000
 8003dce:	2b00      	cmp	r3, #0
 8003dd0:	d064      	beq.n	8003e9c <HAL_RCC_OscConfig+0x2f0>
 8003dd2:	687b      	ldr	r3, [r7, #4]
 8003dd4:	685b      	ldr	r3, [r3, #4]
 8003dd6:	2b00      	cmp	r3, #0
 8003dd8:	d160      	bne.n	8003e9c <HAL_RCC_OscConfig+0x2f0>
 8003dda:	2301      	movs	r3, #1
 8003ddc:	e2ba      	b.n	8004354 <HAL_RCC_OscConfig+0x7a8>
 8003dde:	687b      	ldr	r3, [r7, #4]
 8003de0:	685b      	ldr	r3, [r3, #4]
 8003de2:	f5b3 3f80 	cmp.w	r3, #65536	@ 0x10000
 8003de6:	d106      	bne.n	8003df6 <HAL_RCC_OscConfig+0x24a>
 8003de8:	4b0c      	ldr	r3, [pc, #48]	@ (8003e1c <HAL_RCC_OscConfig+0x270>)
 8003dea:	681b      	ldr	r3, [r3, #0]
 8003dec:	4a0b      	ldr	r2, [pc, #44]	@ (8003e1c <HAL_RCC_OscConfig+0x270>)
 8003dee:	f443 3380 	orr.w	r3, r3, #65536	@ 0x10000
 8003df2:	6013      	str	r3, [r2, #0]
 8003df4:	e026      	b.n	8003e44 <HAL_RCC_OscConfig+0x298>
 8003df6:	687b      	ldr	r3, [r7, #4]
 8003df8:	685b      	ldr	r3, [r3, #4]
 8003dfa:	f5b3 2fa0 	cmp.w	r3, #327680	@ 0x50000
 8003dfe:	d115      	bne.n	8003e2c <HAL_RCC_OscConfig+0x280>
 8003e00:	4b06      	ldr	r3, [pc, #24]	@ (8003e1c <HAL_RCC_OscConfig+0x270>)
 8003e02:	681b      	ldr	r3, [r3, #0]
 8003e04:	4a05      	ldr	r2, [pc, #20]	@ (8003e1c <HAL_RCC_OscConfig+0x270>)
 8003e06:	f443 2380 	orr.w	r3, r3, #262144	@ 0x40000
 8003e0a:	6013      	str	r3, [r2, #0]
 8003e0c:	4b03      	ldr	r3, [pc, #12]	@ (8003e1c <HAL_RCC_OscConfig+0x270>)
 8003e0e:	681b      	ldr	r3, [r3, #0]
 8003e10:	4a02      	ldr	r2, [pc, #8]	@ (8003e1c <HAL_RCC_OscConfig+0x270>)
 8003e12:	f443 3380 	orr.w	r3, r3, #65536	@ 0x10000
 8003e16:	6013      	str	r3, [r2, #0]
 8003e18:	e014      	b.n	8003e44 <HAL_RCC_OscConfig+0x298>
 8003e1a:	bf00      	nop
 8003e1c:	40021000 	.word	0x40021000
 8003e20:	08008950 	.word	0x08008950
 8003e24:	20000000 	.word	0x20000000
 8003e28:	20000004 	.word	0x20000004
 8003e2c:	4ba0      	ldr	r3, [pc, #640]	@ (80040b0 <HAL_RCC_OscConfig+0x504>)
 8003e2e:	681b      	ldr	r3, [r3, #0]
 8003e30:	4a9f      	ldr	r2, [pc, #636]	@ (80040b0 <HAL_RCC_OscConfig+0x504>)
 8003e32:	f423 3380 	bic.w	r3, r3, #65536	@ 0x10000
 8003e36:	6013      	str	r3, [r2, #0]
 8003e38:	4b9d      	ldr	r3, [pc, #628]	@ (80040b0 <HAL_RCC_OscConfig+0x504>)
 8003e3a:	681b      	ldr	r3, [r3, #0]
 8003e3c:	4a9c      	ldr	r2, [pc, #624]	@ (80040b0 <HAL_RCC_OscConfig+0x504>)
 8003e3e:	f423 2380 	bic.w	r3, r3, #262144	@ 0x40000
 8003e42:	6013      	str	r3, [r2, #0]
 8003e44:	687b      	ldr	r3, [r7, #4]
 8003e46:	685b      	ldr	r3, [r3, #4]
 8003e48:	2b00      	cmp	r3, #0
 8003e4a:	d013      	beq.n	8003e74 <HAL_RCC_OscConfig+0x2c8>
 8003e4c:	f7fe f8a0 	bl	8001f90 <HAL_GetTick>
 8003e50:	6138      	str	r0, [r7, #16]
 8003e52:	e008      	b.n	8003e66 <HAL_RCC_OscConfig+0x2ba>
 8003e54:	f7fe f89c 	bl	8001f90 <HAL_GetTick>
 8003e58:	4602      	mov	r2, r0
 8003e5a:	693b      	ldr	r3, [r7, #16]
 8003e5c:	1ad3      	subs	r3, r2, r3
 8003e5e:	2b64      	cmp	r3, #100	@ 0x64
 8003e60:	d901      	bls.n	8003e66 <HAL_RCC_OscConfig+0x2ba>
 8003e62:	2303      	movs	r3, #3
 8003e64:	e276      	b.n	8004354 <HAL_RCC_OscConfig+0x7a8>
 8003e66:	4b92      	ldr	r3, [pc, #584]	@ (80040b0 <HAL_RCC_OscConfig+0x504>)
 8003e68:	681b      	ldr	r3, [r3, #0]
 8003e6a:	f403 3300 	and.w	r3, r3, #131072	@ 0x20000
 8003e6e:	2b00      	cmp	r3, #0
 8003e70:	d0f0      	beq.n	8003e54 <HAL_RCC_OscConfig+0x2a8>
 8003e72:	e014      	b.n	8003e9e <HAL_RCC_OscConfig+0x2f2>
 8003e74:	f7fe f88c 	bl	8001f90 <HAL_GetTick>
 8003e78:	6138      	str	r0, [r7, #16]
 8003e7a:	e008      	b.n	8003e8e <HAL_RCC_OscConfig+0x2e2>
 8003e7c:	f7fe f888 	bl	8001f90 <HAL_GetTick>
 8003e80:	4602      	mov	r2, r0
 8003e82:	693b      	ldr	r3, [r7, #16]
 8003e84:	1ad3      	subs	r3, r2, r3
 8003e86:	2b64      	cmp	r3, #100	@ 0x64
 8003e88:	d901      	bls.n	8003e8e <HAL_RCC_OscConfig+0x2e2>
 8003e8a:	2303      	movs	r3, #3
 8003e8c:	e262      	b.n	8004354 <HAL_RCC_OscConfig+0x7a8>
 8003e8e:	4b88      	ldr	r3, [pc, #544]	@ (80040b0 <HAL_RCC_OscConfig+0x504>)
 8003e90:	681b      	ldr	r3, [r3, #0]
 8003e92:	f403 3300 	and.w	r3, r3, #131072	@ 0x20000
 8003e96:	2b00      	cmp	r3, #0
 8003e98:	d1f0      	bne.n	8003e7c <HAL_RCC_OscConfig+0x2d0>
 8003e9a:	e000      	b.n	8003e9e <HAL_RCC_OscConfig+0x2f2>
 8003e9c:	bf00      	nop
 8003e9e:	687b      	ldr	r3, [r7, #4]
 8003ea0:	681b      	ldr	r3, [r3, #0]
 8003ea2:	f003 0302 	and.w	r3, r3, #2
 8003ea6:	2b00      	cmp	r3, #0
 8003ea8:	d060      	beq.n	8003f6c <HAL_RCC_OscConfig+0x3c0>
 8003eaa:	69bb      	ldr	r3, [r7, #24]
 8003eac:	2b04      	cmp	r3, #4
 8003eae:	d005      	beq.n	8003ebc <HAL_RCC_OscConfig+0x310>
 8003eb0:	69bb      	ldr	r3, [r7, #24]
 8003eb2:	2b0c      	cmp	r3, #12
 8003eb4:	d119      	bne.n	8003eea <HAL_RCC_OscConfig+0x33e>
 8003eb6:	697b      	ldr	r3, [r7, #20]
 8003eb8:	2b02      	cmp	r3, #2
 8003eba:	d116      	bne.n	8003eea <HAL_RCC_OscConfig+0x33e>
 8003ebc:	4b7c      	ldr	r3, [pc, #496]	@ (80040b0 <HAL_RCC_OscConfig+0x504>)
 8003ebe:	681b      	ldr	r3, [r3, #0]
 8003ec0:	f403 6380 	and.w	r3, r3, #1024	@ 0x400
 8003ec4:	2b00      	cmp	r3, #0
 8003ec6:	d005      	beq.n	8003ed4 <HAL_RCC_OscConfig+0x328>
 8003ec8:	687b      	ldr	r3, [r7, #4]
 8003eca:	68db      	ldr	r3, [r3, #12]
 8003ecc:	2b00      	cmp	r3, #0
 8003ece:	d101      	bne.n	8003ed4 <HAL_RCC_OscConfig+0x328>
 8003ed0:	2301      	movs	r3, #1
 8003ed2:	e23f      	b.n	8004354 <HAL_RCC_OscConfig+0x7a8>
 8003ed4:	4b76      	ldr	r3, [pc, #472]	@ (80040b0 <HAL_RCC_OscConfig+0x504>)
 8003ed6:	685b      	ldr	r3, [r3, #4]
 8003ed8:	f023 52f8 	bic.w	r2, r3, #520093696	@ 0x1f000000
 8003edc:	687b      	ldr	r3, [r7, #4]
 8003ede:	691b      	ldr	r3, [r3, #16]
 8003ee0:	061b      	lsls	r3, r3, #24
 8003ee2:	4973      	ldr	r1, [pc, #460]	@ (80040b0 <HAL_RCC_OscConfig+0x504>)
 8003ee4:	4313      	orrs	r3, r2
 8003ee6:	604b      	str	r3, [r1, #4]
 8003ee8:	e040      	b.n	8003f6c <HAL_RCC_OscConfig+0x3c0>
 8003eea:	687b      	ldr	r3, [r7, #4]
 8003eec:	68db      	ldr	r3, [r3, #12]
 8003eee:	2b00      	cmp	r3, #0
 8003ef0:	d023      	beq.n	8003f3a <HAL_RCC_OscConfig+0x38e>
 8003ef2:	4b6f      	ldr	r3, [pc, #444]	@ (80040b0 <HAL_RCC_OscConfig+0x504>)
 8003ef4:	681b      	ldr	r3, [r3, #0]
 8003ef6:	4a6e      	ldr	r2, [pc, #440]	@ (80040b0 <HAL_RCC_OscConfig+0x504>)
 8003ef8:	f443 7380 	orr.w	r3, r3, #256	@ 0x100
 8003efc:	6013      	str	r3, [r2, #0]
 8003efe:	f7fe f847 	bl	8001f90 <HAL_GetTick>
 8003f02:	6138      	str	r0, [r7, #16]
 8003f04:	e008      	b.n	8003f18 <HAL_RCC_OscConfig+0x36c>
 8003f06:	f7fe f843 	bl	8001f90 <HAL_GetTick>
 8003f0a:	4602      	mov	r2, r0
 8003f0c:	693b      	ldr	r3, [r7, #16]
 8003f0e:	1ad3      	subs	r3, r2, r3
 8003f10:	2b02      	cmp	r3, #2
 8003f12:	d901      	bls.n	8003f18 <HAL_RCC_OscConfig+0x36c>
 8003f14:	2303      	movs	r3, #3
 8003f16:	e21d      	b.n	8004354 <HAL_RCC_OscConfig+0x7a8>
 8003f18:	4b65      	ldr	r3, [pc, #404]	@ (80040b0 <HAL_RCC_OscConfig+0x504>)
 8003f1a:	681b      	ldr	r3, [r3, #0]
 8003f1c:	f403 6380 	and.w	r3, r3, #1024	@ 0x400
 8003f20:	2b00      	cmp	r3, #0
 8003f22:	d0f0      	beq.n	8003f06 <HAL_RCC_OscConfig+0x35a>
 8003f24:	4b62      	ldr	r3, [pc, #392]	@ (80040b0 <HAL_RCC_OscConfig+0x504>)
 8003f26:	685b      	ldr	r3, [r3, #4]
 8003f28:	f023 52f8 	bic.w	r2, r3, #520093696	@ 0x1f000000
 8003f2c:	687b      	ldr	r3, [r7, #4]
 8003f2e:	691b      	ldr	r3, [r3, #16]
 8003f30:	061b      	lsls	r3, r3, #24
 8003f32:	495f      	ldr	r1, [pc, #380]	@ (80040b0 <HAL_RCC_OscConfig+0x504>)
 8003f34:	4313      	orrs	r3, r2
 8003f36:	604b      	str	r3, [r1, #4]
 8003f38:	e018      	b.n	8003f6c <HAL_RCC_OscConfig+0x3c0>
 8003f3a:	4b5d      	ldr	r3, [pc, #372]	@ (80040b0 <HAL_RCC_OscConfig+0x504>)
 8003f3c:	681b      	ldr	r3, [r3, #0]
 8003f3e:	4a5c      	ldr	r2, [pc, #368]	@ (80040b0 <HAL_RCC_OscConfig+0x504>)
 8003f40:	f423 7380 	bic.w	r3, r3, #256	@ 0x100
 8003f44:	6013      	str	r3, [r2, #0]
 8003f46:	f7fe f823 	bl	8001f90 <HAL_GetTick>
 8003f4a:	6138      	str	r0, [r7, #16]
 8003f4c:	e008      	b.n	8003f60 <HAL_RCC_OscConfig+0x3b4>
 8003f4e:	f7fe f81f 	bl	8001f90 <HAL_GetTick>
 8003f52:	4602      	mov	r2, r0
 8003f54:	693b      	ldr	r3, [r7, #16]
 8003f56:	1ad3      	subs	r3, r2, r3
 8003f58:	2b02      	cmp	r3, #2
 8003f5a:	d901      	bls.n	8003f60 <HAL_RCC_OscConfig+0x3b4>
 8003f5c:	2303      	movs	r3, #3
 8003f5e:	e1f9      	b.n	8004354 <HAL_RCC_OscConfig+0x7a8>
 8003f60:	4b53      	ldr	r3, [pc, #332]	@ (80040b0 <HAL_RCC_OscConfig+0x504>)
 8003f62:	681b      	ldr	r3, [r3, #0]
 8003f64:	f403 6380 	and.w	r3, r3, #1024	@ 0x400
 8003f68:	2b00      	cmp	r3, #0
 8003f6a:	d1f0      	bne.n	8003f4e <HAL_RCC_OscConfig+0x3a2>
 8003f6c:	687b      	ldr	r3, [r7, #4]
 8003f6e:	681b      	ldr	r3, [r3, #0]
 8003f70:	f003 0308 	and.w	r3, r3, #8
 8003f74:	2b00      	cmp	r3, #0
 8003f76:	d03c      	beq.n	8003ff2 <HAL_RCC_OscConfig+0x446>
 8003f78:	687b      	ldr	r3, [r7, #4]
 8003f7a:	695b      	ldr	r3, [r3, #20]
 8003f7c:	2b00      	cmp	r3, #0
 8003f7e:	d01c      	beq.n	8003fba <HAL_RCC_OscConfig+0x40e>
 8003f80:	4b4b      	ldr	r3, [pc, #300]	@ (80040b0 <HAL_RCC_OscConfig+0x504>)
 8003f82:	f8d3 3094 	ldr.w	r3, [r3, #148]	@ 0x94
 8003f86:	4a4a      	ldr	r2, [pc, #296]	@ (80040b0 <HAL_RCC_OscConfig+0x504>)
 8003f88:	f043 0301 	orr.w	r3, r3, #1
 8003f8c:	f8c2 3094 	str.w	r3, [r2, #148]	@ 0x94
 8003f90:	f7fd fffe 	bl	8001f90 <HAL_GetTick>
 8003f94:	6138      	str	r0, [r7, #16]
 8003f96:	e008      	b.n	8003faa <HAL_RCC_OscConfig+0x3fe>
 8003f98:	f7fd fffa 	bl	8001f90 <HAL_GetTick>
 8003f9c:	4602      	mov	r2, r0
 8003f9e:	693b      	ldr	r3, [r7, #16]
 8003fa0:	1ad3      	subs	r3, r2, r3
 8003fa2:	2b02      	cmp	r3, #2
 8003fa4:	d901      	bls.n	8003faa <HAL_RCC_OscConfig+0x3fe>
 8003fa6:	2303      	movs	r3, #3
 8003fa8:	e1d4      	b.n	8004354 <HAL_RCC_OscConfig+0x7a8>
 8003faa:	4b41      	ldr	r3, [pc, #260]	@ (80040b0 <HAL_RCC_OscConfig+0x504>)
 8003fac:	f8d3 3094 	ldr.w	r3, [r3, #148]	@ 0x94
 8003fb0:	f003 0302 	and.w	r3, r3, #2
 8003fb4:	2b00      	cmp	r3, #0
 8003fb6:	d0ef      	beq.n	8003f98 <HAL_RCC_OscConfig+0x3ec>
 8003fb8:	e01b      	b.n	8003ff2 <HAL_RCC_OscConfig+0x446>
 8003fba:	4b3d      	ldr	r3, [pc, #244]	@ (80040b0 <HAL_RCC_OscConfig+0x504>)
 8003fbc:	f8d3 3094 	ldr.w	r3, [r3, #148]	@ 0x94
 8003fc0:	4a3b      	ldr	r2, [pc, #236]	@ (80040b0 <HAL_RCC_OscConfig+0x504>)
 8003fc2:	f023 0301 	bic.w	r3, r3, #1
 8003fc6:	f8c2 3094 	str.w	r3, [r2, #148]	@ 0x94
 8003fca:	f7fd ffe1 	bl	8001f90 <HAL_GetTick>
 8003fce:	6138      	str	r0, [r7, #16]
 8003fd0:	e008      	b.n	8003fe4 <HAL_RCC_OscConfig+0x438>
 8003fd2:	f7fd ffdd 	bl	8001f90 <HAL_GetTick>
 8003fd6:	4602      	mov	r2, r0
 8003fd8:	693b      	ldr	r3, [r7, #16]
 8003fda:	1ad3      	subs	r3, r2, r3
 8003fdc:	2b02      	cmp	r3, #2
 8003fde:	d901      	bls.n	8003fe4 <HAL_RCC_OscConfig+0x438>
 8003fe0:	2303      	movs	r3, #3
 8003fe2:	e1b7      	b.n	8004354 <HAL_RCC_OscConfig+0x7a8>
 8003fe4:	4b32      	ldr	r3, [pc, #200]	@ (80040b0 <HAL_RCC_OscConfig+0x504>)
 8003fe6:	f8d3 3094 	ldr.w	r3, [r3, #148]	@ 0x94
 8003fea:	f003 0302 	and.w	r3, r3, #2
 8003fee:	2b00      	cmp	r3, #0
 8003ff0:	d1ef      	bne.n	8003fd2 <HAL_RCC_OscConfig+0x426>
 8003ff2:	687b      	ldr	r3, [r7, #4]
 8003ff4:	681b      	ldr	r3, [r3, #0]
 8003ff6:	f003 0304 	and.w	r3, r3, #4
 8003ffa:	2b00      	cmp	r3, #0
 8003ffc:	f000 80a6 	beq.w	800414c <HAL_RCC_OscConfig+0x5a0>
 8004000:	2300      	movs	r3, #0
 8004002:	77fb      	strb	r3, [r7, #31]
 8004004:	4b2a      	ldr	r3, [pc, #168]	@ (80040b0 <HAL_RCC_OscConfig+0x504>)
 8004006:	6d9b      	ldr	r3, [r3, #88]	@ 0x58
 8004008:	f003 5380 	and.w	r3, r3, #268435456	@ 0x10000000
 800400c:	2b00      	cmp	r3, #0
 800400e:	d10d      	bne.n	800402c <HAL_RCC_OscConfig+0x480>
 8004010:	4b27      	ldr	r3, [pc, #156]	@ (80040b0 <HAL_RCC_OscConfig+0x504>)
 8004012:	6d9b      	ldr	r3, [r3, #88]	@ 0x58
 8004014:	4a26      	ldr	r2, [pc, #152]	@ (80040b0 <HAL_RCC_OscConfig+0x504>)
 8004016:	f043 5380 	orr.w	r3, r3, #268435456	@ 0x10000000
 800401a:	6593      	str	r3, [r2, #88]	@ 0x58
 800401c:	4b24      	ldr	r3, [pc, #144]	@ (80040b0 <HAL_RCC_OscConfig+0x504>)
 800401e:	6d9b      	ldr	r3, [r3, #88]	@ 0x58
 8004020:	f003 5380 	and.w	r3, r3, #268435456	@ 0x10000000
 8004024:	60bb      	str	r3, [r7, #8]
 8004026:	68bb      	ldr	r3, [r7, #8]
 8004028:	2301      	movs	r3, #1
 800402a:	77fb      	strb	r3, [r7, #31]
 800402c:	4b21      	ldr	r3, [pc, #132]	@ (80040b4 <HAL_RCC_OscConfig+0x508>)
 800402e:	681b      	ldr	r3, [r3, #0]
 8004030:	f403 7380 	and.w	r3, r3, #256	@ 0x100
 8004034:	2b00      	cmp	r3, #0
 8004036:	d118      	bne.n	800406a <HAL_RCC_OscConfig+0x4be>
 8004038:	4b1e      	ldr	r3, [pc, #120]	@ (80040b4 <HAL_RCC_OscConfig+0x508>)
 800403a:	681b      	ldr	r3, [r3, #0]
 800403c:	4a1d      	ldr	r2, [pc, #116]	@ (80040b4 <HAL_RCC_OscConfig+0x508>)
 800403e:	f443 7380 	orr.w	r3, r3, #256	@ 0x100
 8004042:	6013      	str	r3, [r2, #0]
 8004044:	f7fd ffa4 	bl	8001f90 <HAL_GetTick>
 8004048:	6138      	str	r0, [r7, #16]
 800404a:	e008      	b.n	800405e <HAL_RCC_OscConfig+0x4b2>
 800404c:	f7fd ffa0 	bl	8001f90 <HAL_GetTick>
 8004050:	4602      	mov	r2, r0
 8004052:	693b      	ldr	r3, [r7, #16]
 8004054:	1ad3      	subs	r3, r2, r3
 8004056:	2b02      	cmp	r3, #2
 8004058:	d901      	bls.n	800405e <HAL_RCC_OscConfig+0x4b2>
 800405a:	2303      	movs	r3, #3
 800405c:	e17a      	b.n	8004354 <HAL_RCC_OscConfig+0x7a8>
 800405e:	4b15      	ldr	r3, [pc, #84]	@ (80040b4 <HAL_RCC_OscConfig+0x508>)
 8004060:	681b      	ldr	r3, [r3, #0]
 8004062:	f403 7380 	and.w	r3, r3, #256	@ 0x100
 8004066:	2b00      	cmp	r3, #0
 8004068:	d0f0      	beq.n	800404c <HAL_RCC_OscConfig+0x4a0>
 800406a:	687b      	ldr	r3, [r7, #4]
 800406c:	689b      	ldr	r3, [r3, #8]
 800406e:	2b01      	cmp	r3, #1
 8004070:	d108      	bne.n	8004084 <HAL_RCC_OscConfig+0x4d8>
 8004072:	4b0f      	ldr	r3, [pc, #60]	@ (80040b0 <HAL_RCC_OscConfig+0x504>)
 8004074:	f8d3 3090 	ldr.w	r3, [r3, #144]	@ 0x90
 8004078:	4a0d      	ldr	r2, [pc, #52]	@ (80040b0 <HAL_RCC_OscConfig+0x504>)
 800407a:	f043 0301 	orr.w	r3, r3, #1
 800407e:	f8c2 3090 	str.w	r3, [r2, #144]	@ 0x90
 8004082:	e029      	b.n	80040d8 <HAL_RCC_OscConfig+0x52c>
 8004084:	687b      	ldr	r3, [r7, #4]
 8004086:	689b      	ldr	r3, [r3, #8]
 8004088:	2b05      	cmp	r3, #5
 800408a:	d115      	bne.n	80040b8 <HAL_RCC_OscConfig+0x50c>
 800408c:	4b08      	ldr	r3, [pc, #32]	@ (80040b0 <HAL_RCC_OscConfig+0x504>)
 800408e:	f8d3 3090 	ldr.w	r3, [r3, #144]	@ 0x90
 8004092:	4a07      	ldr	r2, [pc, #28]	@ (80040b0 <HAL_RCC_OscConfig+0x504>)
 8004094:	f043 0304 	orr.w	r3, r3, #4
 8004098:	f8c2 3090 	str.w	r3, [r2, #144]	@ 0x90
 800409c:	4b04      	ldr	r3, [pc, #16]	@ (80040b0 <HAL_RCC_OscConfig+0x504>)
 800409e:	f8d3 3090 	ldr.w	r3, [r3, #144]	@ 0x90
 80040a2:	4a03      	ldr	r2, [pc, #12]	@ (80040b0 <HAL_RCC_OscConfig+0x504>)
 80040a4:	f043 0301 	orr.w	r3, r3, #1
 80040a8:	f8c2 3090 	str.w	r3, [r2, #144]	@ 0x90
 80040ac:	e014      	b.n	80040d8 <HAL_RCC_OscConfig+0x52c>
 80040ae:	bf00      	nop
 80040b0:	40021000 	.word	0x40021000
 80040b4:	40007000 	.word	0x40007000
 80040b8:	4b9c      	ldr	r3, [pc, #624]	@ (800432c <HAL_RCC_OscConfig+0x780>)
 80040ba:	f8d3 3090 	ldr.w	r3, [r3, #144]	@ 0x90
 80040be:	4a9b      	ldr	r2, [pc, #620]	@ (800432c <HAL_RCC_OscConfig+0x780>)
 80040c0:	f023 0301 	bic.w	r3, r3, #1
 80040c4:	f8c2 3090 	str.w	r3, [r2, #144]	@ 0x90
 80040c8:	4b98      	ldr	r3, [pc, #608]	@ (800432c <HAL_RCC_OscConfig+0x780>)
 80040ca:	f8d3 3090 	ldr.w	r3, [r3, #144]	@ 0x90
 80040ce:	4a97      	ldr	r2, [pc, #604]	@ (800432c <HAL_RCC_OscConfig+0x780>)
 80040d0:	f023 0304 	bic.w	r3, r3, #4
 80040d4:	f8c2 3090 	str.w	r3, [r2, #144]	@ 0x90
 80040d8:	687b      	ldr	r3, [r7, #4]
 80040da:	689b      	ldr	r3, [r3, #8]
 80040dc:	2b00      	cmp	r3, #0
 80040de:	d016      	beq.n	800410e <HAL_RCC_OscConfig+0x562>
 80040e0:	f7fd ff56 	bl	8001f90 <HAL_GetTick>
 80040e4:	6138      	str	r0, [r7, #16]
 80040e6:	e00a      	b.n	80040fe <HAL_RCC_OscConfig+0x552>
 80040e8:	f7fd ff52 	bl	8001f90 <HAL_GetTick>
 80040ec:	4602      	mov	r2, r0
 80040ee:	693b      	ldr	r3, [r7, #16]
 80040f0:	1ad3      	subs	r3, r2, r3
 80040f2:	f241 3288 	movw	r2, #5000	@ 0x1388
 80040f6:	4293      	cmp	r3, r2
 80040f8:	d901      	bls.n	80040fe <HAL_RCC_OscConfig+0x552>
 80040fa:	2303      	movs	r3, #3
 80040fc:	e12a      	b.n	8004354 <HAL_RCC_OscConfig+0x7a8>
 80040fe:	4b8b      	ldr	r3, [pc, #556]	@ (800432c <HAL_RCC_OscConfig+0x780>)
 8004100:	f8d3 3090 	ldr.w	r3, [r3, #144]	@ 0x90
 8004104:	f003 0302 	and.w	r3, r3, #2
 8004108:	2b00      	cmp	r3, #0
 800410a:	d0ed      	beq.n	80040e8 <HAL_RCC_OscConfig+0x53c>
 800410c:	e015      	b.n	800413a <HAL_RCC_OscConfig+0x58e>
 800410e:	f7fd ff3f 	bl	8001f90 <HAL_GetTick>
 8004112:	6138      	str	r0, [r7, #16]
 8004114:	e00a      	b.n	800412c <HAL_RCC_OscConfig+0x580>
 8004116:	f7fd ff3b 	bl	8001f90 <HAL_GetTick>
 800411a:	4602      	mov	r2, r0
 800411c:	693b      	ldr	r3, [r7, #16]
 800411e:	1ad3      	subs	r3, r2, r3
 8004120:	f241 3288 	movw	r2, #5000	@ 0x1388
 8004124:	4293      	cmp	r3, r2
 8004126:	d901      	bls.n	800412c <HAL_RCC_OscConfig+0x580>
 8004128:	2303      	movs	r3, #3
 800412a:	e113      	b.n	8004354 <HAL_RCC_OscConfig+0x7a8>
 800412c:	4b7f      	ldr	r3, [pc, #508]	@ (800432c <HAL_RCC_OscConfig+0x780>)
 800412e:	f8d3 3090 	ldr.w	r3, [r3, #144]	@ 0x90
 8004132:	f003 0302 	and.w	r3, r3, #2
 8004136:	2b00      	cmp	r3, #0
 8004138:	d1ed      	bne.n	8004116 <HAL_RCC_OscConfig+0x56a>
 800413a:	7ffb      	ldrb	r3, [r7, #31]
 800413c:	2b01      	cmp	r3, #1
 800413e:	d105      	bne.n	800414c <HAL_RCC_OscConfig+0x5a0>
 8004140:	4b7a      	ldr	r3, [pc, #488]	@ (800432c <HAL_RCC_OscConfig+0x780>)
 8004142:	6d9b      	ldr	r3, [r3, #88]	@ 0x58
 8004144:	4a79      	ldr	r2, [pc, #484]	@ (800432c <HAL_RCC_OscConfig+0x780>)
 8004146:	f023 5380 	bic.w	r3, r3, #268435456	@ 0x10000000
 800414a:	6593      	str	r3, [r2, #88]	@ 0x58
 800414c:	687b      	ldr	r3, [r7, #4]
 800414e:	6a9b      	ldr	r3, [r3, #40]	@ 0x28
 8004150:	2b00      	cmp	r3, #0
 8004152:	f000 80fe 	beq.w	8004352 <HAL_RCC_OscConfig+0x7a6>
 8004156:	687b      	ldr	r3, [r7, #4]
 8004158:	6a9b      	ldr	r3, [r3, #40]	@ 0x28
 800415a:	2b02      	cmp	r3, #2
 800415c:	f040 80d0 	bne.w	8004300 <HAL_RCC_OscConfig+0x754>
 8004160:	4b72      	ldr	r3, [pc, #456]	@ (800432c <HAL_RCC_OscConfig+0x780>)
 8004162:	68db      	ldr	r3, [r3, #12]
 8004164:	617b      	str	r3, [r7, #20]
 8004166:	697b      	ldr	r3, [r7, #20]
 8004168:	f003 0203 	and.w	r2, r3, #3
 800416c:	687b      	ldr	r3, [r7, #4]
 800416e:	6adb      	ldr	r3, [r3, #44]	@ 0x2c
 8004170:	429a      	cmp	r2, r3
 8004172:	d130      	bne.n	80041d6 <HAL_RCC_OscConfig+0x62a>
 8004174:	697b      	ldr	r3, [r7, #20]
 8004176:	f003 0270 	and.w	r2, r3, #112	@ 0x70
 800417a:	687b      	ldr	r3, [r7, #4]
 800417c:	6b1b      	ldr	r3, [r3, #48]	@ 0x30
 800417e:	3b01      	subs	r3, #1
 8004180:	011b      	lsls	r3, r3, #4
 8004182:	429a      	cmp	r2, r3
 8004184:	d127      	bne.n	80041d6 <HAL_RCC_OscConfig+0x62a>
 8004186:	697b      	ldr	r3, [r7, #20]
 8004188:	f403 42fe 	and.w	r2, r3, #32512	@ 0x7f00
 800418c:	687b      	ldr	r3, [r7, #4]
 800418e:	6b5b      	ldr	r3, [r3, #52]	@ 0x34
 8004190:	021b      	lsls	r3, r3, #8
 8004192:	429a      	cmp	r2, r3
 8004194:	d11f      	bne.n	80041d6 <HAL_RCC_OscConfig+0x62a>
 8004196:	697b      	ldr	r3, [r7, #20]
 8004198:	f403 3300 	and.w	r3, r3, #131072	@ 0x20000
 800419c:	687a      	ldr	r2, [r7, #4]
 800419e:	6b92      	ldr	r2, [r2, #56]	@ 0x38
 80041a0:	2a07      	cmp	r2, #7
 80041a2:	bf14      	ite	ne
 80041a4:	2201      	movne	r2, #1
 80041a6:	2200      	moveq	r2, #0
 80041a8:	b2d2      	uxtb	r2, r2
 80041aa:	4293      	cmp	r3, r2
 80041ac:	d113      	bne.n	80041d6 <HAL_RCC_OscConfig+0x62a>
 80041ae:	697b      	ldr	r3, [r7, #20]
 80041b0:	f403 02c0 	and.w	r2, r3, #6291456	@ 0x600000
 80041b4:	687b      	ldr	r3, [r7, #4]
 80041b6:	6bdb      	ldr	r3, [r3, #60]	@ 0x3c
 80041b8:	085b      	lsrs	r3, r3, #1
 80041ba:	3b01      	subs	r3, #1
 80041bc:	055b      	lsls	r3, r3, #21
 80041be:	429a      	cmp	r2, r3
 80041c0:	d109      	bne.n	80041d6 <HAL_RCC_OscConfig+0x62a>
 80041c2:	697b      	ldr	r3, [r7, #20]
 80041c4:	f003 62c0 	and.w	r2, r3, #100663296	@ 0x6000000
 80041c8:	687b      	ldr	r3, [r7, #4]
 80041ca:	6c1b      	ldr	r3, [r3, #64]	@ 0x40
 80041cc:	085b      	lsrs	r3, r3, #1
 80041ce:	3b01      	subs	r3, #1
 80041d0:	065b      	lsls	r3, r3, #25
 80041d2:	429a      	cmp	r2, r3
 80041d4:	d06e      	beq.n	80042b4 <HAL_RCC_OscConfig+0x708>
 80041d6:	69bb      	ldr	r3, [r7, #24]
 80041d8:	2b0c      	cmp	r3, #12
 80041da:	d069      	beq.n	80042b0 <HAL_RCC_OscConfig+0x704>
 80041dc:	4b53      	ldr	r3, [pc, #332]	@ (800432c <HAL_RCC_OscConfig+0x780>)
 80041de:	681b      	ldr	r3, [r3, #0]
 80041e0:	f003 6380 	and.w	r3, r3, #67108864	@ 0x4000000
 80041e4:	2b00      	cmp	r3, #0
 80041e6:	d105      	bne.n	80041f4 <HAL_RCC_OscConfig+0x648>
 80041e8:	4b50      	ldr	r3, [pc, #320]	@ (800432c <HAL_RCC_OscConfig+0x780>)
 80041ea:	681b      	ldr	r3, [r3, #0]
 80041ec:	f003 5380 	and.w	r3, r3, #268435456	@ 0x10000000
 80041f0:	2b00      	cmp	r3, #0
 80041f2:	d001      	beq.n	80041f8 <HAL_RCC_OscConfig+0x64c>
 80041f4:	2301      	movs	r3, #1
 80041f6:	e0ad      	b.n	8004354 <HAL_RCC_OscConfig+0x7a8>
 80041f8:	4b4c      	ldr	r3, [pc, #304]	@ (800432c <HAL_RCC_OscConfig+0x780>)
 80041fa:	681b      	ldr	r3, [r3, #0]
 80041fc:	4a4b      	ldr	r2, [pc, #300]	@ (800432c <HAL_RCC_OscConfig+0x780>)
 80041fe:	f023 7380 	bic.w	r3, r3, #16777216	@ 0x1000000
 8004202:	6013      	str	r3, [r2, #0]
 8004204:	f7fd fec4 	bl	8001f90 <HAL_GetTick>
 8004208:	6138      	str	r0, [r7, #16]
 800420a:	e008      	b.n	800421e <HAL_RCC_OscConfig+0x672>
 800420c:	f7fd fec0 	bl	8001f90 <HAL_GetTick>
 8004210:	4602      	mov	r2, r0
 8004212:	693b      	ldr	r3, [r7, #16]
 8004214:	1ad3      	subs	r3, r2, r3
 8004216:	2b02      	cmp	r3, #2
 8004218:	d901      	bls.n	800421e <HAL_RCC_OscConfig+0x672>
 800421a:	2303      	movs	r3, #3
 800421c:	e09a      	b.n	8004354 <HAL_RCC_OscConfig+0x7a8>
 800421e:	4b43      	ldr	r3, [pc, #268]	@ (800432c <HAL_RCC_OscConfig+0x780>)
 8004220:	681b      	ldr	r3, [r3, #0]
 8004222:	f003 7300 	and.w	r3, r3, #33554432	@ 0x2000000
 8004226:	2b00      	cmp	r3, #0
 8004228:	d1f0      	bne.n	800420c <HAL_RCC_OscConfig+0x660>
 800422a:	4b40      	ldr	r3, [pc, #256]	@ (800432c <HAL_RCC_OscConfig+0x780>)
 800422c:	68da      	ldr	r2, [r3, #12]
 800422e:	4b40      	ldr	r3, [pc, #256]	@ (8004330 <HAL_RCC_OscConfig+0x784>)
 8004230:	4013      	ands	r3, r2
 8004232:	687a      	ldr	r2, [r7, #4]
 8004234:	6ad1      	ldr	r1, [r2, #44]	@ 0x2c
 8004236:	687a      	ldr	r2, [r7, #4]
 8004238:	6b12      	ldr	r2, [r2, #48]	@ 0x30
 800423a:	3a01      	subs	r2, #1
 800423c:	0112      	lsls	r2, r2, #4
 800423e:	4311      	orrs	r1, r2
 8004240:	687a      	ldr	r2, [r7, #4]
 8004242:	6b52      	ldr	r2, [r2, #52]	@ 0x34
 8004244:	0212      	lsls	r2, r2, #8
 8004246:	4311      	orrs	r1, r2
 8004248:	687a      	ldr	r2, [r7, #4]
 800424a:	6bd2      	ldr	r2, [r2, #60]	@ 0x3c
 800424c:	0852      	lsrs	r2, r2, #1
 800424e:	3a01      	subs	r2, #1
 8004250:	0552      	lsls	r2, r2, #21
 8004252:	4311      	orrs	r1, r2
 8004254:	687a      	ldr	r2, [r7, #4]
 8004256:	6c12      	ldr	r2, [r2, #64]	@ 0x40
 8004258:	0852      	lsrs	r2, r2, #1
 800425a:	3a01      	subs	r2, #1
 800425c:	0652      	lsls	r2, r2, #25
 800425e:	4311      	orrs	r1, r2
 8004260:	687a      	ldr	r2, [r7, #4]
 8004262:	6b92      	ldr	r2, [r2, #56]	@ 0x38
 8004264:	0912      	lsrs	r2, r2, #4
 8004266:	0452      	lsls	r2, r2, #17
 8004268:	430a      	orrs	r2, r1
 800426a:	4930      	ldr	r1, [pc, #192]	@ (800432c <HAL_RCC_OscConfig+0x780>)
 800426c:	4313      	orrs	r3, r2
 800426e:	60cb      	str	r3, [r1, #12]
 8004270:	4b2e      	ldr	r3, [pc, #184]	@ (800432c <HAL_RCC_OscConfig+0x780>)
 8004272:	681b      	ldr	r3, [r3, #0]
 8004274:	4a2d      	ldr	r2, [pc, #180]	@ (800432c <HAL_RCC_OscConfig+0x780>)
 8004276:	f043 7380 	orr.w	r3, r3, #16777216	@ 0x1000000
 800427a:	6013      	str	r3, [r2, #0]
 800427c:	4b2b      	ldr	r3, [pc, #172]	@ (800432c <HAL_RCC_OscConfig+0x780>)
 800427e:	68db      	ldr	r3, [r3, #12]
 8004280:	4a2a      	ldr	r2, [pc, #168]	@ (800432c <HAL_RCC_OscConfig+0x780>)
 8004282:	f043 7380 	orr.w	r3, r3, #16777216	@ 0x1000000
 8004286:	60d3      	str	r3, [r2, #12]
 8004288:	f7fd fe82 	bl	8001f90 <HAL_GetTick>
 800428c:	6138      	str	r0, [r7, #16]
 800428e:	e008      	b.n	80042a2 <HAL_RCC_OscConfig+0x6f6>
 8004290:	f7fd fe7e 	bl	8001f90 <HAL_GetTick>
 8004294:	4602      	mov	r2, r0
 8004296:	693b      	ldr	r3, [r7, #16]
 8004298:	1ad3      	subs	r3, r2, r3
 800429a:	2b02      	cmp	r3, #2
 800429c:	d901      	bls.n	80042a2 <HAL_RCC_OscConfig+0x6f6>
 800429e:	2303      	movs	r3, #3
 80042a0:	e058      	b.n	8004354 <HAL_RCC_OscConfig+0x7a8>
 80042a2:	4b22      	ldr	r3, [pc, #136]	@ (800432c <HAL_RCC_OscConfig+0x780>)
 80042a4:	681b      	ldr	r3, [r3, #0]
 80042a6:	f003 7300 	and.w	r3, r3, #33554432	@ 0x2000000
 80042aa:	2b00      	cmp	r3, #0
 80042ac:	d0f0      	beq.n	8004290 <HAL_RCC_OscConfig+0x6e4>
 80042ae:	e050      	b.n	8004352 <HAL_RCC_OscConfig+0x7a6>
 80042b0:	2301      	movs	r3, #1
 80042b2:	e04f      	b.n	8004354 <HAL_RCC_OscConfig+0x7a8>
 80042b4:	4b1d      	ldr	r3, [pc, #116]	@ (800432c <HAL_RCC_OscConfig+0x780>)
 80042b6:	681b      	ldr	r3, [r3, #0]
 80042b8:	f003 7300 	and.w	r3, r3, #33554432	@ 0x2000000
 80042bc:	2b00      	cmp	r3, #0
 80042be:	d148      	bne.n	8004352 <HAL_RCC_OscConfig+0x7a6>
 80042c0:	4b1a      	ldr	r3, [pc, #104]	@ (800432c <HAL_RCC_OscConfig+0x780>)
 80042c2:	681b      	ldr	r3, [r3, #0]
 80042c4:	4a19      	ldr	r2, [pc, #100]	@ (800432c <HAL_RCC_OscConfig+0x780>)
 80042c6:	f043 7380 	orr.w	r3, r3, #16777216	@ 0x1000000
 80042ca:	6013      	str	r3, [r2, #0]
 80042cc:	4b17      	ldr	r3, [pc, #92]	@ (800432c <HAL_RCC_OscConfig+0x780>)
 80042ce:	68db      	ldr	r3, [r3, #12]
 80042d0:	4a16      	ldr	r2, [pc, #88]	@ (800432c <HAL_RCC_OscConfig+0x780>)
 80042d2:	f043 7380 	orr.w	r3, r3, #16777216	@ 0x1000000
 80042d6:	60d3      	str	r3, [r2, #12]
 80042d8:	f7fd fe5a 	bl	8001f90 <HAL_GetTick>
 80042dc:	6138      	str	r0, [r7, #16]
 80042de:	e008      	b.n	80042f2 <HAL_RCC_OscConfig+0x746>
 80042e0:	f7fd fe56 	bl	8001f90 <HAL_GetTick>
 80042e4:	4602      	mov	r2, r0
 80042e6:	693b      	ldr	r3, [r7, #16]
 80042e8:	1ad3      	subs	r3, r2, r3
 80042ea:	2b02      	cmp	r3, #2
 80042ec:	d901      	bls.n	80042f2 <HAL_RCC_OscConfig+0x746>
 80042ee:	2303      	movs	r3, #3
 80042f0:	e030      	b.n	8004354 <HAL_RCC_OscConfig+0x7a8>
 80042f2:	4b0e      	ldr	r3, [pc, #56]	@ (800432c <HAL_RCC_OscConfig+0x780>)
 80042f4:	681b      	ldr	r3, [r3, #0]
 80042f6:	f003 7300 	and.w	r3, r3, #33554432	@ 0x2000000
 80042fa:	2b00      	cmp	r3, #0
 80042fc:	d0f0      	beq.n	80042e0 <HAL_RCC_OscConfig+0x734>
 80042fe:	e028      	b.n	8004352 <HAL_RCC_OscConfig+0x7a6>
 8004300:	69bb      	ldr	r3, [r7, #24]
 8004302:	2b0c      	cmp	r3, #12
 8004304:	d023      	beq.n	800434e <HAL_RCC_OscConfig+0x7a2>
 8004306:	4b09      	ldr	r3, [pc, #36]	@ (800432c <HAL_RCC_OscConfig+0x780>)
 8004308:	681b      	ldr	r3, [r3, #0]
 800430a:	4a08      	ldr	r2, [pc, #32]	@ (800432c <HAL_RCC_OscConfig+0x780>)
 800430c:	f023 7380 	bic.w	r3, r3, #16777216	@ 0x1000000
 8004310:	6013      	str	r3, [r2, #0]
 8004312:	f7fd fe3d 	bl	8001f90 <HAL_GetTick>
 8004316:	6138      	str	r0, [r7, #16]
 8004318:	e00c      	b.n	8004334 <HAL_RCC_OscConfig+0x788>
 800431a:	f7fd fe39 	bl	8001f90 <HAL_GetTick>
 800431e:	4602      	mov	r2, r0
 8004320:	693b      	ldr	r3, [r7, #16]
 8004322:	1ad3      	subs	r3, r2, r3
 8004324:	2b02      	cmp	r3, #2
 8004326:	d905      	bls.n	8004334 <HAL_RCC_OscConfig+0x788>
 8004328:	2303      	movs	r3, #3
 800432a:	e013      	b.n	8004354 <HAL_RCC_OscConfig+0x7a8>
 800432c:	40021000 	.word	0x40021000
 8004330:	f99d808c 	.word	0xf99d808c
 8004334:	4b09      	ldr	r3, [pc, #36]	@ (800435c <HAL_RCC_OscConfig+0x7b0>)
 8004336:	681b      	ldr	r3, [r3, #0]
 8004338:	f003 7300 	and.w	r3, r3, #33554432	@ 0x2000000
 800433c:	2b00      	cmp	r3, #0
 800433e:	d1ec      	bne.n	800431a <HAL_RCC_OscConfig+0x76e>
 8004340:	4b06      	ldr	r3, [pc, #24]	@ (800435c <HAL_RCC_OscConfig+0x7b0>)
 8004342:	68da      	ldr	r2, [r3, #12]
 8004344:	4905      	ldr	r1, [pc, #20]	@ (800435c <HAL_RCC_OscConfig+0x7b0>)
 8004346:	4b06      	ldr	r3, [pc, #24]	@ (8004360 <HAL_RCC_OscConfig+0x7b4>)
 8004348:	4013      	ands	r3, r2
 800434a:	60cb      	str	r3, [r1, #12]
 800434c:	e001      	b.n	8004352 <HAL_RCC_OscConfig+0x7a6>
 800434e:	2301      	movs	r3, #1
 8004350:	e000      	b.n	8004354 <HAL_RCC_OscConfig+0x7a8>
 8004352:	2300      	movs	r3, #0
 8004354:	4618      	mov	r0, r3
 8004356:	3720      	adds	r7, #32
 8004358:	46bd      	mov	sp, r7
 800435a:	bd80      	pop	{r7, pc}
 800435c:	40021000 	.word	0x40021000
 8004360:	feeefffc 	.word	0xfeeefffc

08004364 <HAL_RCC_ClockConfig>:
 8004364:	b580      	push	{r7, lr}
 8004366:	b084      	sub	sp, #16
 8004368:	af00      	add	r7, sp, #0
 800436a:	6078      	str	r0, [r7, #4]
 800436c:	6039      	str	r1, [r7, #0]
 800436e:	687b      	ldr	r3, [r7, #4]
 8004370:	2b00      	cmp	r3, #0
 8004372:	d101      	bne.n	8004378 <HAL_RCC_ClockConfig+0x14>
 8004374:	2301      	movs	r3, #1
 8004376:	e0e7      	b.n	8004548 <HAL_RCC_ClockConfig+0x1e4>
 8004378:	4b75      	ldr	r3, [pc, #468]	@ (8004550 <HAL_RCC_ClockConfig+0x1ec>)
 800437a:	681b      	ldr	r3, [r3, #0]
 800437c:	f003 0307 	and.w	r3, r3, #7
 8004380:	683a      	ldr	r2, [r7, #0]
 8004382:	429a      	cmp	r2, r3
 8004384:	d910      	bls.n	80043a8 <HAL_RCC_ClockConfig+0x44>
 8004386:	4b72      	ldr	r3, [pc, #456]	@ (8004550 <HAL_RCC_ClockConfig+0x1ec>)
 8004388:	681b      	ldr	r3, [r3, #0]
 800438a:	f023 0207 	bic.w	r2, r3, #7
 800438e:	4970      	ldr	r1, [pc, #448]	@ (8004550 <HAL_RCC_ClockConfig+0x1ec>)
 8004390:	683b      	ldr	r3, [r7, #0]
 8004392:	4313      	orrs	r3, r2
 8004394:	600b      	str	r3, [r1, #0]
 8004396:	4b6e      	ldr	r3, [pc, #440]	@ (8004550 <HAL_RCC_ClockConfig+0x1ec>)
 8004398:	681b      	ldr	r3, [r3, #0]
 800439a:	f003 0307 	and.w	r3, r3, #7
 800439e:	683a      	ldr	r2, [r7, #0]
 80043a0:	429a      	cmp	r2, r3
 80043a2:	d001      	beq.n	80043a8 <HAL_RCC_ClockConfig+0x44>
 80043a4:	2301      	movs	r3, #1
 80043a6:	e0cf      	b.n	8004548 <HAL_RCC_ClockConfig+0x1e4>
 80043a8:	687b      	ldr	r3, [r7, #4]
 80043aa:	681b      	ldr	r3, [r3, #0]
 80043ac:	f003 0302 	and.w	r3, r3, #2
 80043b0:	2b00      	cmp	r3, #0
 80043b2:	d010      	beq.n	80043d6 <HAL_RCC_ClockConfig+0x72>
 80043b4:	687b      	ldr	r3, [r7, #4]
 80043b6:	689a      	ldr	r2, [r3, #8]
 80043b8:	4b66      	ldr	r3, [pc, #408]	@ (8004554 <HAL_RCC_ClockConfig+0x1f0>)
 80043ba:	689b      	ldr	r3, [r3, #8]
 80043bc:	f003 03f0 	and.w	r3, r3, #240	@ 0xf0
 80043c0:	429a      	cmp	r2, r3
 80043c2:	d908      	bls.n	80043d6 <HAL_RCC_ClockConfig+0x72>
 80043c4:	4b63      	ldr	r3, [pc, #396]	@ (8004554 <HAL_RCC_ClockConfig+0x1f0>)
 80043c6:	689b      	ldr	r3, [r3, #8]
 80043c8:	f023 02f0 	bic.w	r2, r3, #240	@ 0xf0
 80043cc:	687b      	ldr	r3, [r7, #4]
 80043ce:	689b      	ldr	r3, [r3, #8]
 80043d0:	4960      	ldr	r1, [pc, #384]	@ (8004554 <HAL_RCC_ClockConfig+0x1f0>)
 80043d2:	4313      	orrs	r3, r2
 80043d4:	608b      	str	r3, [r1, #8]
 80043d6:	687b      	ldr	r3, [r7, #4]
 80043d8:	681b      	ldr	r3, [r3, #0]
 80043da:	f003 0301 	and.w	r3, r3, #1
 80043de:	2b00      	cmp	r3, #0
 80043e0:	d04c      	beq.n	800447c <HAL_RCC_ClockConfig+0x118>
 80043e2:	687b      	ldr	r3, [r7, #4]
 80043e4:	685b      	ldr	r3, [r3, #4]
 80043e6:	2b03      	cmp	r3, #3
 80043e8:	d107      	bne.n	80043fa <HAL_RCC_ClockConfig+0x96>
 80043ea:	4b5a      	ldr	r3, [pc, #360]	@ (8004554 <HAL_RCC_ClockConfig+0x1f0>)
 80043ec:	681b      	ldr	r3, [r3, #0]
 80043ee:	f003 7300 	and.w	r3, r3, #33554432	@ 0x2000000
 80043f2:	2b00      	cmp	r3, #0
 80043f4:	d121      	bne.n	800443a <HAL_RCC_ClockConfig+0xd6>
 80043f6:	2301      	movs	r3, #1
 80043f8:	e0a6      	b.n	8004548 <HAL_RCC_ClockConfig+0x1e4>
 80043fa:	687b      	ldr	r3, [r7, #4]
 80043fc:	685b      	ldr	r3, [r3, #4]
 80043fe:	2b02      	cmp	r3, #2
 8004400:	d107      	bne.n	8004412 <HAL_RCC_ClockConfig+0xae>
 8004402:	4b54      	ldr	r3, [pc, #336]	@ (8004554 <HAL_RCC_ClockConfig+0x1f0>)
 8004404:	681b      	ldr	r3, [r3, #0]
 8004406:	f403 3300 	and.w	r3, r3, #131072	@ 0x20000
 800440a:	2b00      	cmp	r3, #0
 800440c:	d115      	bne.n	800443a <HAL_RCC_ClockConfig+0xd6>
 800440e:	2301      	movs	r3, #1
 8004410:	e09a      	b.n	8004548 <HAL_RCC_ClockConfig+0x1e4>
 8004412:	687b      	ldr	r3, [r7, #4]
 8004414:	685b      	ldr	r3, [r3, #4]
 8004416:	2b00      	cmp	r3, #0
 8004418:	d107      	bne.n	800442a <HAL_RCC_ClockConfig+0xc6>
 800441a:	4b4e      	ldr	r3, [pc, #312]	@ (8004554 <HAL_RCC_ClockConfig+0x1f0>)
 800441c:	681b      	ldr	r3, [r3, #0]
 800441e:	f003 0302 	and.w	r3, r3, #2
 8004422:	2b00      	cmp	r3, #0
 8004424:	d109      	bne.n	800443a <HAL_RCC_ClockConfig+0xd6>
 8004426:	2301      	movs	r3, #1
 8004428:	e08e      	b.n	8004548 <HAL_RCC_ClockConfig+0x1e4>
 800442a:	4b4a      	ldr	r3, [pc, #296]	@ (8004554 <HAL_RCC_ClockConfig+0x1f0>)
 800442c:	681b      	ldr	r3, [r3, #0]
 800442e:	f403 6380 	and.w	r3, r3, #1024	@ 0x400
 8004432:	2b00      	cmp	r3, #0
 8004434:	d101      	bne.n	800443a <HAL_RCC_ClockConfig+0xd6>
 8004436:	2301      	movs	r3, #1
 8004438:	e086      	b.n	8004548 <HAL_RCC_ClockConfig+0x1e4>
 800443a:	4b46      	ldr	r3, [pc, #280]	@ (8004554 <HAL_RCC_ClockConfig+0x1f0>)
 800443c:	689b      	ldr	r3, [r3, #8]
 800443e:	f023 0203 	bic.w	r2, r3, #3
 8004442:	687b      	ldr	r3, [r7, #4]
 8004444:	685b      	ldr	r3, [r3, #4]
 8004446:	4943      	ldr	r1, [pc, #268]	@ (8004554 <HAL_RCC_ClockConfig+0x1f0>)
 8004448:	4313      	orrs	r3, r2
 800444a:	608b      	str	r3, [r1, #8]
 800444c:	f7fd fda0 	bl	8001f90 <HAL_GetTick>
 8004450:	60f8      	str	r0, [r7, #12]
 8004452:	e00a      	b.n	800446a <HAL_RCC_ClockConfig+0x106>
 8004454:	f7fd fd9c 	bl	8001f90 <HAL_GetTick>
 8004458:	4602      	mov	r2, r0
 800445a:	68fb      	ldr	r3, [r7, #12]
 800445c:	1ad3      	subs	r3, r2, r3
 800445e:	f241 3288 	movw	r2, #5000	@ 0x1388
 8004462:	4293      	cmp	r3, r2
 8004464:	d901      	bls.n	800446a <HAL_RCC_ClockConfig+0x106>
 8004466:	2303      	movs	r3, #3
 8004468:	e06e      	b.n	8004548 <HAL_RCC_ClockConfig+0x1e4>
 800446a:	4b3a      	ldr	r3, [pc, #232]	@ (8004554 <HAL_RCC_ClockConfig+0x1f0>)
 800446c:	689b      	ldr	r3, [r3, #8]
 800446e:	f003 020c 	and.w	r2, r3, #12
 8004472:	687b      	ldr	r3, [r7, #4]
 8004474:	685b      	ldr	r3, [r3, #4]
 8004476:	009b      	lsls	r3, r3, #2
 8004478:	429a      	cmp	r2, r3
 800447a:	d1eb      	bne.n	8004454 <HAL_RCC_ClockConfig+0xf0>
 800447c:	687b      	ldr	r3, [r7, #4]
 800447e:	681b      	ldr	r3, [r3, #0]
 8004480:	f003 0302 	and.w	r3, r3, #2
 8004484:	2b00      	cmp	r3, #0
 8004486:	d010      	beq.n	80044aa <HAL_RCC_ClockConfig+0x146>
 8004488:	687b      	ldr	r3, [r7, #4]
 800448a:	689a      	ldr	r2, [r3, #8]
 800448c:	4b31      	ldr	r3, [pc, #196]	@ (8004554 <HAL_RCC_ClockConfig+0x1f0>)
 800448e:	689b      	ldr	r3, [r3, #8]
 8004490:	f003 03f0 	and.w	r3, r3, #240	@ 0xf0
 8004494:	429a      	cmp	r2, r3
 8004496:	d208      	bcs.n	80044aa <HAL_RCC_ClockConfig+0x146>
 8004498:	4b2e      	ldr	r3, [pc, #184]	@ (8004554 <HAL_RCC_ClockConfig+0x1f0>)
 800449a:	689b      	ldr	r3, [r3, #8]
 800449c:	f023 02f0 	bic.w	r2, r3, #240	@ 0xf0
 80044a0:	687b      	ldr	r3, [r7, #4]
 80044a2:	689b      	ldr	r3, [r3, #8]
 80044a4:	492b      	ldr	r1, [pc, #172]	@ (8004554 <HAL_RCC_ClockConfig+0x1f0>)
 80044a6:	4313      	orrs	r3, r2
 80044a8:	608b      	str	r3, [r1, #8]
 80044aa:	4b29      	ldr	r3, [pc, #164]	@ (8004550 <HAL_RCC_ClockConfig+0x1ec>)
 80044ac:	681b      	ldr	r3, [r3, #0]
 80044ae:	f003 0307 	and.w	r3, r3, #7
 80044b2:	683a      	ldr	r2, [r7, #0]
 80044b4:	429a      	cmp	r2, r3
 80044b6:	d210      	bcs.n	80044da <HAL_RCC_ClockConfig+0x176>
 80044b8:	4b25      	ldr	r3, [pc, #148]	@ (8004550 <HAL_RCC_ClockConfig+0x1ec>)
 80044ba:	681b      	ldr	r3, [r3, #0]
 80044bc:	f023 0207 	bic.w	r2, r3, #7
 80044c0:	4923      	ldr	r1, [pc, #140]	@ (8004550 <HAL_RCC_ClockConfig+0x1ec>)
 80044c2:	683b      	ldr	r3, [r7, #0]
 80044c4:	4313      	orrs	r3, r2
 80044c6:	600b      	str	r3, [r1, #0]
 80044c8:	4b21      	ldr	r3, [pc, #132]	@ (8004550 <HAL_RCC_ClockConfig+0x1ec>)
 80044ca:	681b      	ldr	r3, [r3, #0]
 80044cc:	f003 0307 	and.w	r3, r3, #7
 80044d0:	683a      	ldr	r2, [r7, #0]
 80044d2:	429a      	cmp	r2, r3
 80044d4:	d001      	beq.n	80044da <HAL_RCC_ClockConfig+0x176>
 80044d6:	2301      	movs	r3, #1
 80044d8:	e036      	b.n	8004548 <HAL_RCC_ClockConfig+0x1e4>
 80044da:	687b      	ldr	r3, [r7, #4]
 80044dc:	681b      	ldr	r3, [r3, #0]
 80044de:	f003 0304 	and.w	r3, r3, #4
 80044e2:	2b00      	cmp	r3, #0
 80044e4:	d008      	beq.n	80044f8 <HAL_RCC_ClockConfig+0x194>
 80044e6:	4b1b      	ldr	r3, [pc, #108]	@ (8004554 <HAL_RCC_ClockConfig+0x1f0>)
 80044e8:	689b      	ldr	r3, [r3, #8]
 80044ea:	f423 62e0 	bic.w	r2, r3, #1792	@ 0x700
 80044ee:	687b      	ldr	r3, [r7, #4]
 80044f0:	68db      	ldr	r3, [r3, #12]
 80044f2:	4918      	ldr	r1, [pc, #96]	@ (8004554 <HAL_RCC_ClockConfig+0x1f0>)
 80044f4:	4313      	orrs	r3, r2
 80044f6:	608b      	str	r3, [r1, #8]
 80044f8:	687b      	ldr	r3, [r7, #4]
 80044fa:	681b      	ldr	r3, [r3, #0]
 80044fc:	f003 0308 	and.w	r3, r3, #8
 8004500:	2b00      	cmp	r3, #0
 8004502:	d009      	beq.n	8004518 <HAL_RCC_ClockConfig+0x1b4>
 8004504:	4b13      	ldr	r3, [pc, #76]	@ (8004554 <HAL_RCC_ClockConfig+0x1f0>)
 8004506:	689b      	ldr	r3, [r3, #8]
 8004508:	f423 5260 	bic.w	r2, r3, #14336	@ 0x3800
 800450c:	687b      	ldr	r3, [r7, #4]
 800450e:	691b      	ldr	r3, [r3, #16]
 8004510:	00db      	lsls	r3, r3, #3
 8004512:	4910      	ldr	r1, [pc, #64]	@ (8004554 <HAL_RCC_ClockConfig+0x1f0>)
 8004514:	4313      	orrs	r3, r2
 8004516:	608b      	str	r3, [r1, #8]
 8004518:	f000 f824 	bl	8004564 <HAL_RCC_GetSysClockFreq>
 800451c:	4602      	mov	r2, r0
 800451e:	4b0d      	ldr	r3, [pc, #52]	@ (8004554 <HAL_RCC_ClockConfig+0x1f0>)
 8004520:	689b      	ldr	r3, [r3, #8]
 8004522:	091b      	lsrs	r3, r3, #4
 8004524:	f003 030f 	and.w	r3, r3, #15
 8004528:	490b      	ldr	r1, [pc, #44]	@ (8004558 <HAL_RCC_ClockConfig+0x1f4>)
 800452a:	5ccb      	ldrb	r3, [r1, r3]
 800452c:	f003 031f 	and.w	r3, r3, #31
 8004530:	fa22 f303 	lsr.w	r3, r2, r3
 8004534:	4a09      	ldr	r2, [pc, #36]	@ (800455c <HAL_RCC_ClockConfig+0x1f8>)
 8004536:	6013      	str	r3, [r2, #0]
 8004538:	4b09      	ldr	r3, [pc, #36]	@ (8004560 <HAL_RCC_ClockConfig+0x1fc>)
 800453a:	681b      	ldr	r3, [r3, #0]
 800453c:	4618      	mov	r0, r3
 800453e:	f7fd fcd7 	bl	8001ef0 <HAL_InitTick>
 8004542:	4603      	mov	r3, r0
 8004544:	72fb      	strb	r3, [r7, #11]
 8004546:	7afb      	ldrb	r3, [r7, #11]
 8004548:	4618      	mov	r0, r3
 800454a:	3710      	adds	r7, #16
 800454c:	46bd      	mov	sp, r7
 800454e:	bd80      	pop	{r7, pc}
 8004550:	40022000 	.word	0x40022000
 8004554:	40021000 	.word	0x40021000
 8004558:	08008950 	.word	0x08008950
 800455c:	20000000 	.word	0x20000000
 8004560:	20000004 	.word	0x20000004

08004564 <HAL_RCC_GetSysClockFreq>:
 8004564:	b480      	push	{r7}
 8004566:	b089      	sub	sp, #36	@ 0x24
 8004568:	af00      	add	r7, sp, #0
 800456a:	2300      	movs	r3, #0
 800456c:	61fb      	str	r3, [r7, #28]
 800456e:	2300      	movs	r3, #0
 8004570:	61bb      	str	r3, [r7, #24]
 8004572:	4b3e      	ldr	r3, [pc, #248]	@ (800466c <HAL_RCC_GetSysClockFreq+0x108>)
 8004574:	689b      	ldr	r3, [r3, #8]
 8004576:	f003 030c 	and.w	r3, r3, #12
 800457a:	613b      	str	r3, [r7, #16]
 800457c:	4b3b      	ldr	r3, [pc, #236]	@ (800466c <HAL_RCC_GetSysClockFreq+0x108>)
 800457e:	68db      	ldr	r3, [r3, #12]
 8004580:	f003 0303 	and.w	r3, r3, #3
 8004584:	60fb      	str	r3, [r7, #12]
 8004586:	693b      	ldr	r3, [r7, #16]
 8004588:	2b00      	cmp	r3, #0
 800458a:	d005      	beq.n	8004598 <HAL_RCC_GetSysClockFreq+0x34>
 800458c:	693b      	ldr	r3, [r7, #16]
 800458e:	2b0c      	cmp	r3, #12
 8004590:	d121      	bne.n	80045d6 <HAL_RCC_GetSysClockFreq+0x72>
 8004592:	68fb      	ldr	r3, [r7, #12]
 8004594:	2b01      	cmp	r3, #1
 8004596:	d11e      	bne.n	80045d6 <HAL_RCC_GetSysClockFreq+0x72>
 8004598:	4b34      	ldr	r3, [pc, #208]	@ (800466c <HAL_RCC_GetSysClockFreq+0x108>)
 800459a:	681b      	ldr	r3, [r3, #0]
 800459c:	f003 0308 	and.w	r3, r3, #8
 80045a0:	2b00      	cmp	r3, #0
 80045a2:	d107      	bne.n	80045b4 <HAL_RCC_GetSysClockFreq+0x50>
 80045a4:	4b31      	ldr	r3, [pc, #196]	@ (800466c <HAL_RCC_GetSysClockFreq+0x108>)
 80045a6:	f8d3 3094 	ldr.w	r3, [r3, #148]	@ 0x94
 80045aa:	0a1b      	lsrs	r3, r3, #8
 80045ac:	f003 030f 	and.w	r3, r3, #15
 80045b0:	61fb      	str	r3, [r7, #28]
 80045b2:	e005      	b.n	80045c0 <HAL_RCC_GetSysClockFreq+0x5c>
 80045b4:	4b2d      	ldr	r3, [pc, #180]	@ (800466c <HAL_RCC_GetSysClockFreq+0x108>)
 80045b6:	681b      	ldr	r3, [r3, #0]
 80045b8:	091b      	lsrs	r3, r3, #4
 80045ba:	f003 030f 	and.w	r3, r3, #15
 80045be:	61fb      	str	r3, [r7, #28]
 80045c0:	4a2b      	ldr	r2, [pc, #172]	@ (8004670 <HAL_RCC_GetSysClockFreq+0x10c>)
 80045c2:	69fb      	ldr	r3, [r7, #28]
 80045c4:	f852 3023 	ldr.w	r3, [r2, r3, lsl #2]
 80045c8:	61fb      	str	r3, [r7, #28]
 80045ca:	693b      	ldr	r3, [r7, #16]
 80045cc:	2b00      	cmp	r3, #0
 80045ce:	d10d      	bne.n	80045ec <HAL_RCC_GetSysClockFreq+0x88>
 80045d0:	69fb      	ldr	r3, [r7, #28]
 80045d2:	61bb      	str	r3, [r7, #24]
 80045d4:	e00a      	b.n	80045ec <HAL_RCC_GetSysClockFreq+0x88>
 80045d6:	693b      	ldr	r3, [r7, #16]
 80045d8:	2b04      	cmp	r3, #4
 80045da:	d102      	bne.n	80045e2 <HAL_RCC_GetSysClockFreq+0x7e>
 80045dc:	4b25      	ldr	r3, [pc, #148]	@ (8004674 <HAL_RCC_GetSysClockFreq+0x110>)
 80045de:	61bb      	str	r3, [r7, #24]
 80045e0:	e004      	b.n	80045ec <HAL_RCC_GetSysClockFreq+0x88>
 80045e2:	693b      	ldr	r3, [r7, #16]
 80045e4:	2b08      	cmp	r3, #8
 80045e6:	d101      	bne.n	80045ec <HAL_RCC_GetSysClockFreq+0x88>
 80045e8:	4b23      	ldr	r3, [pc, #140]	@ (8004678 <HAL_RCC_GetSysClockFreq+0x114>)
 80045ea:	61bb      	str	r3, [r7, #24]
 80045ec:	693b      	ldr	r3, [r7, #16]
 80045ee:	2b0c      	cmp	r3, #12
 80045f0:	d134      	bne.n	800465c <HAL_RCC_GetSysClockFreq+0xf8>
 80045f2:	4b1e      	ldr	r3, [pc, #120]	@ (800466c <HAL_RCC_GetSysClockFreq+0x108>)
 80045f4:	68db      	ldr	r3, [r3, #12]
 80045f6:	f003 0303 	and.w	r3, r3, #3
 80045fa:	60bb      	str	r3, [r7, #8]
 80045fc:	68bb      	ldr	r3, [r7, #8]
 80045fe:	2b02      	cmp	r3, #2
 8004600:	d003      	beq.n	800460a <HAL_RCC_GetSysClockFreq+0xa6>
 8004602:	68bb      	ldr	r3, [r7, #8]
 8004604:	2b03      	cmp	r3, #3
 8004606:	d003      	beq.n	8004610 <HAL_RCC_GetSysClockFreq+0xac>
 8004608:	e005      	b.n	8004616 <HAL_RCC_GetSysClockFreq+0xb2>
 800460a:	4b1a      	ldr	r3, [pc, #104]	@ (8004674 <HAL_RCC_GetSysClockFreq+0x110>)
 800460c:	617b      	str	r3, [r7, #20]
 800460e:	e005      	b.n	800461c <HAL_RCC_GetSysClockFreq+0xb8>
 8004610:	4b19      	ldr	r3, [pc, #100]	@ (8004678 <HAL_RCC_GetSysClockFreq+0x114>)
 8004612:	617b      	str	r3, [r7, #20]
 8004614:	e002      	b.n	800461c <HAL_RCC_GetSysClockFreq+0xb8>
 8004616:	69fb      	ldr	r3, [r7, #28]
 8004618:	617b      	str	r3, [r7, #20]
 800461a:	bf00      	nop
 800461c:	4b13      	ldr	r3, [pc, #76]	@ (800466c <HAL_RCC_GetSysClockFreq+0x108>)
 800461e:	68db      	ldr	r3, [r3, #12]
 8004620:	091b      	lsrs	r3, r3, #4
 8004622:	f003 0307 	and.w	r3, r3, #7
 8004626:	3301      	adds	r3, #1
 8004628:	607b      	str	r3, [r7, #4]
 800462a:	4b10      	ldr	r3, [pc, #64]	@ (800466c <HAL_RCC_GetSysClockFreq+0x108>)
 800462c:	68db      	ldr	r3, [r3, #12]
 800462e:	0a1b      	lsrs	r3, r3, #8
 8004630:	f003 037f 	and.w	r3, r3, #127	@ 0x7f
 8004634:	697a      	ldr	r2, [r7, #20]
 8004636:	fb03 f202 	mul.w	r2, r3, r2
 800463a:	687b      	ldr	r3, [r7, #4]
 800463c:	fbb2 f3f3 	udiv	r3, r2, r3
 8004640:	617b      	str	r3, [r7, #20]
 8004642:	4b0a      	ldr	r3, [pc, #40]	@ (800466c <HAL_RCC_GetSysClockFreq+0x108>)
 8004644:	68db      	ldr	r3, [r3, #12]
 8004646:	0e5b      	lsrs	r3, r3, #25
 8004648:	f003 0303 	and.w	r3, r3, #3
 800464c:	3301      	adds	r3, #1
 800464e:	005b      	lsls	r3, r3, #1
 8004650:	603b      	str	r3, [r7, #0]
 8004652:	697a      	ldr	r2, [r7, #20]
 8004654:	683b      	ldr	r3, [r7, #0]
 8004656:	fbb2 f3f3 	udiv	r3, r2, r3
 800465a:	61bb      	str	r3, [r7, #24]
 800465c:	69bb      	ldr	r3, [r7, #24]
 800465e:	4618      	mov	r0, r3
 8004660:	3724      	adds	r7, #36	@ 0x24
 8004662:	46bd      	mov	sp, r7
 8004664:	f85d 7b04 	ldr.w	r7, [sp], #4
 8004668:	4770      	bx	lr
 800466a:	bf00      	nop
 800466c:	40021000 	.word	0x40021000
 8004670:	08008968 	.word	0x08008968
 8004674:	00f42400 	.word	0x00f42400
 8004678:	017d7840 	.word	0x017d7840

0800467c <HAL_RCC_GetHCLKFreq>:
 800467c:	b480      	push	{r7}
 800467e:	af00      	add	r7, sp, #0
 8004680:	4b03      	ldr	r3, [pc, #12]	@ (8004690 <HAL_RCC_GetHCLKFreq+0x14>)
 8004682:	681b      	ldr	r3, [r3, #0]
 8004684:	4618      	mov	r0, r3
 8004686:	46bd      	mov	sp, r7
 8004688:	f85d 7b04 	ldr.w	r7, [sp], #4
 800468c:	4770      	bx	lr
 800468e:	bf00      	nop
 8004690:	20000000 	.word	0x20000000

08004694 <HAL_RCC_GetPCLK1Freq>:
 8004694:	b580      	push	{r7, lr}
 8004696:	af00      	add	r7, sp, #0
 8004698:	f7ff fff0 	bl	800467c <HAL_RCC_GetHCLKFreq>
 800469c:	4602      	mov	r2, r0
 800469e:	4b06      	ldr	r3, [pc, #24]	@ (80046b8 <HAL_RCC_GetPCLK1Freq+0x24>)
 80046a0:	689b      	ldr	r3, [r3, #8]
 80046a2:	0a1b      	lsrs	r3, r3, #8
 80046a4:	f003 0307 	and.w	r3, r3, #7
 80046a8:	4904      	ldr	r1, [pc, #16]	@ (80046bc <HAL_RCC_GetPCLK1Freq+0x28>)
 80046aa:	5ccb      	ldrb	r3, [r1, r3]
 80046ac:	f003 031f 	and.w	r3, r3, #31
 80046b0:	fa22 f303 	lsr.w	r3, r2, r3
 80046b4:	4618      	mov	r0, r3
 80046b6:	bd80      	pop	{r7, pc}
 80046b8:	40021000 	.word	0x40021000
 80046bc:	08008960 	.word	0x08008960

080046c0 <HAL_RCC_GetPCLK2Freq>:
 80046c0:	b580      	push	{r7, lr}
 80046c2:	af00      	add	r7, sp, #0
 80046c4:	f7ff ffda 	bl	800467c <HAL_RCC_GetHCLKFreq>
 80046c8:	4602      	mov	r2, r0
 80046ca:	4b06      	ldr	r3, [pc, #24]	@ (80046e4 <HAL_RCC_GetPCLK2Freq+0x24>)
 80046cc:	689b      	ldr	r3, [r3, #8]
 80046ce:	0adb      	lsrs	r3, r3, #11
 80046d0:	f003 0307 	and.w	r3, r3, #7
 80046d4:	4904      	ldr	r1, [pc, #16]	@ (80046e8 <HAL_RCC_GetPCLK2Freq+0x28>)
 80046d6:	5ccb      	ldrb	r3, [r1, r3]
 80046d8:	f003 031f 	and.w	r3, r3, #31
 80046dc:	fa22 f303 	lsr.w	r3, r2, r3
 80046e0:	4618      	mov	r0, r3
 80046e2:	bd80      	pop	{r7, pc}
 80046e4:	40021000 	.word	0x40021000
 80046e8:	08008960 	.word	0x08008960

080046ec <RCC_SetFlashLatencyFromMSIRange>:
 80046ec:	b580      	push	{r7, lr}
 80046ee:	b086      	sub	sp, #24
 80046f0:	af00      	add	r7, sp, #0
 80046f2:	6078      	str	r0, [r7, #4]
 80046f4:	2300      	movs	r3, #0
 80046f6:	613b      	str	r3, [r7, #16]
 80046f8:	4b2a      	ldr	r3, [pc, #168]	@ (80047a4 <RCC_SetFlashLatencyFromMSIRange+0xb8>)
 80046fa:	6d9b      	ldr	r3, [r3, #88]	@ 0x58
 80046fc:	f003 5380 	and.w	r3, r3, #268435456	@ 0x10000000
 8004700:	2b00      	cmp	r3, #0
 8004702:	d003      	beq.n	800470c <RCC_SetFlashLatencyFromMSIRange+0x20>
 8004704:	f7ff f9ee 	bl	8003ae4 <HAL_PWREx_GetVoltageRange>
 8004708:	6178      	str	r0, [r7, #20]
 800470a:	e014      	b.n	8004736 <RCC_SetFlashLatencyFromMSIRange+0x4a>
 800470c:	4b25      	ldr	r3, [pc, #148]	@ (80047a4 <RCC_SetFlashLatencyFromMSIRange+0xb8>)
 800470e:	6d9b      	ldr	r3, [r3, #88]	@ 0x58
 8004710:	4a24      	ldr	r2, [pc, #144]	@ (80047a4 <RCC_SetFlashLatencyFromMSIRange+0xb8>)
 8004712:	f043 5380 	orr.w	r3, r3, #268435456	@ 0x10000000
 8004716:	6593      	str	r3, [r2, #88]	@ 0x58
 8004718:	4b22      	ldr	r3, [pc, #136]	@ (80047a4 <RCC_SetFlashLatencyFromMSIRange+0xb8>)
 800471a:	6d9b      	ldr	r3, [r3, #88]	@ 0x58
 800471c:	f003 5380 	and.w	r3, r3, #268435456	@ 0x10000000
 8004720:	60fb      	str	r3, [r7, #12]
 8004722:	68fb      	ldr	r3, [r7, #12]
 8004724:	f7ff f9de 	bl	8003ae4 <HAL_PWREx_GetVoltageRange>
 8004728:	6178      	str	r0, [r7, #20]
 800472a:	4b1e      	ldr	r3, [pc, #120]	@ (80047a4 <RCC_SetFlashLatencyFromMSIRange+0xb8>)
 800472c:	6d9b      	ldr	r3, [r3, #88]	@ 0x58
 800472e:	4a1d      	ldr	r2, [pc, #116]	@ (80047a4 <RCC_SetFlashLatencyFromMSIRange+0xb8>)
 8004730:	f023 5380 	bic.w	r3, r3, #268435456	@ 0x10000000
 8004734:	6593      	str	r3, [r2, #88]	@ 0x58
 8004736:	697b      	ldr	r3, [r7, #20]
 8004738:	f5b3 7f00 	cmp.w	r3, #512	@ 0x200
 800473c:	d10b      	bne.n	8004756 <RCC_SetFlashLatencyFromMSIRange+0x6a>
 800473e:	687b      	ldr	r3, [r7, #4]
 8004740:	2b80      	cmp	r3, #128	@ 0x80
 8004742:	d919      	bls.n	8004778 <RCC_SetFlashLatencyFromMSIRange+0x8c>
 8004744:	687b      	ldr	r3, [r7, #4]
 8004746:	2ba0      	cmp	r3, #160	@ 0xa0
 8004748:	d902      	bls.n	8004750 <RCC_SetFlashLatencyFromMSIRange+0x64>
 800474a:	2302      	movs	r3, #2
 800474c:	613b      	str	r3, [r7, #16]
 800474e:	e013      	b.n	8004778 <RCC_SetFlashLatencyFromMSIRange+0x8c>
 8004750:	2301      	movs	r3, #1
 8004752:	613b      	str	r3, [r7, #16]
 8004754:	e010      	b.n	8004778 <RCC_SetFlashLatencyFromMSIRange+0x8c>
 8004756:	687b      	ldr	r3, [r7, #4]
 8004758:	2b80      	cmp	r3, #128	@ 0x80
 800475a:	d902      	bls.n	8004762 <RCC_SetFlashLatencyFromMSIRange+0x76>
 800475c:	2303      	movs	r3, #3
 800475e:	613b      	str	r3, [r7, #16]
 8004760:	e00a      	b.n	8004778 <RCC_SetFlashLatencyFromMSIRange+0x8c>
 8004762:	687b      	ldr	r3, [r7, #4]
 8004764:	2b80      	cmp	r3, #128	@ 0x80
 8004766:	d102      	bne.n	800476e <RCC_SetFlashLatencyFromMSIRange+0x82>
 8004768:	2302      	movs	r3, #2
 800476a:	613b      	str	r3, [r7, #16]
 800476c:	e004      	b.n	8004778 <RCC_SetFlashLatencyFromMSIRange+0x8c>
 800476e:	687b      	ldr	r3, [r7, #4]
 8004770:	2b70      	cmp	r3, #112	@ 0x70
 8004772:	d101      	bne.n	8004778 <RCC_SetFlashLatencyFromMSIRange+0x8c>
 8004774:	2301      	movs	r3, #1
 8004776:	613b      	str	r3, [r7, #16]
 8004778:	4b0b      	ldr	r3, [pc, #44]	@ (80047a8 <RCC_SetFlashLatencyFromMSIRange+0xbc>)
 800477a:	681b      	ldr	r3, [r3, #0]
 800477c:	f023 0207 	bic.w	r2, r3, #7
 8004780:	4909      	ldr	r1, [pc, #36]	@ (80047a8 <RCC_SetFlashLatencyFromMSIRange+0xbc>)
 8004782:	693b      	ldr	r3, [r7, #16]
 8004784:	4313      	orrs	r3, r2
 8004786:	600b      	str	r3, [r1, #0]
 8004788:	4b07      	ldr	r3, [pc, #28]	@ (80047a8 <RCC_SetFlashLatencyFromMSIRange+0xbc>)
 800478a:	681b      	ldr	r3, [r3, #0]
 800478c:	f003 0307 	and.w	r3, r3, #7
 8004790:	693a      	ldr	r2, [r7, #16]
 8004792:	429a      	cmp	r2, r3
 8004794:	d001      	beq.n	800479a <RCC_SetFlashLatencyFromMSIRange+0xae>
 8004796:	2301      	movs	r3, #1
 8004798:	e000      	b.n	800479c <RCC_SetFlashLatencyFromMSIRange+0xb0>
 800479a:	2300      	movs	r3, #0
 800479c:	4618      	mov	r0, r3
 800479e:	3718      	adds	r7, #24
 80047a0:	46bd      	mov	sp, r7
 80047a2:	bd80      	pop	{r7, pc}
 80047a4:	40021000 	.word	0x40021000
 80047a8:	40022000 	.word	0x40022000

080047ac <HAL_RCCEx_PeriphCLKConfig>:
 80047ac:	b580      	push	{r7, lr}
 80047ae:	b086      	sub	sp, #24
 80047b0:	af00      	add	r7, sp, #0
 80047b2:	6078      	str	r0, [r7, #4]
 80047b4:	2300      	movs	r3, #0
 80047b6:	74fb      	strb	r3, [r7, #19]
 80047b8:	2300      	movs	r3, #0
 80047ba:	74bb      	strb	r3, [r7, #18]
 80047bc:	687b      	ldr	r3, [r7, #4]
 80047be:	681b      	ldr	r3, [r3, #0]
 80047c0:	f403 6300 	and.w	r3, r3, #2048	@ 0x800
 80047c4:	2b00      	cmp	r3, #0
 80047c6:	d041      	beq.n	800484c <HAL_RCCEx_PeriphCLKConfig+0xa0>
 80047c8:	687b      	ldr	r3, [r7, #4]
 80047ca:	6e5b      	ldr	r3, [r3, #100]	@ 0x64
 80047cc:	f5b3 0f40 	cmp.w	r3, #12582912	@ 0xc00000
 80047d0:	d02a      	beq.n	8004828 <HAL_RCCEx_PeriphCLKConfig+0x7c>
 80047d2:	f5b3 0f40 	cmp.w	r3, #12582912	@ 0xc00000
 80047d6:	d824      	bhi.n	8004822 <HAL_RCCEx_PeriphCLKConfig+0x76>
 80047d8:	f5b3 0f00 	cmp.w	r3, #8388608	@ 0x800000
 80047dc:	d008      	beq.n	80047f0 <HAL_RCCEx_PeriphCLKConfig+0x44>
 80047de:	f5b3 0f00 	cmp.w	r3, #8388608	@ 0x800000
 80047e2:	d81e      	bhi.n	8004822 <HAL_RCCEx_PeriphCLKConfig+0x76>
 80047e4:	2b00      	cmp	r3, #0
 80047e6:	d00a      	beq.n	80047fe <HAL_RCCEx_PeriphCLKConfig+0x52>
 80047e8:	f5b3 0f80 	cmp.w	r3, #4194304	@ 0x400000
 80047ec:	d010      	beq.n	8004810 <HAL_RCCEx_PeriphCLKConfig+0x64>
 80047ee:	e018      	b.n	8004822 <HAL_RCCEx_PeriphCLKConfig+0x76>
 80047f0:	4b86      	ldr	r3, [pc, #536]	@ (8004a0c <HAL_RCCEx_PeriphCLKConfig+0x260>)
 80047f2:	68db      	ldr	r3, [r3, #12]
 80047f4:	4a85      	ldr	r2, [pc, #532]	@ (8004a0c <HAL_RCCEx_PeriphCLKConfig+0x260>)
 80047f6:	f443 3380 	orr.w	r3, r3, #65536	@ 0x10000
 80047fa:	60d3      	str	r3, [r2, #12]
 80047fc:	e015      	b.n	800482a <HAL_RCCEx_PeriphCLKConfig+0x7e>
 80047fe:	687b      	ldr	r3, [r7, #4]
 8004800:	3304      	adds	r3, #4
 8004802:	2100      	movs	r1, #0
 8004804:	4618      	mov	r0, r3
 8004806:	f000 fa8b 	bl	8004d20 <RCCEx_PLLSAI1_Config>
 800480a:	4603      	mov	r3, r0
 800480c:	74fb      	strb	r3, [r7, #19]
 800480e:	e00c      	b.n	800482a <HAL_RCCEx_PeriphCLKConfig+0x7e>
 8004810:	687b      	ldr	r3, [r7, #4]
 8004812:	3320      	adds	r3, #32
 8004814:	2100      	movs	r1, #0
 8004816:	4618      	mov	r0, r3
 8004818:	f000 fb76 	bl	8004f08 <RCCEx_PLLSAI2_Config>
 800481c:	4603      	mov	r3, r0
 800481e:	74fb      	strb	r3, [r7, #19]
 8004820:	e003      	b.n	800482a <HAL_RCCEx_PeriphCLKConfig+0x7e>
 8004822:	2301      	movs	r3, #1
 8004824:	74fb      	strb	r3, [r7, #19]
 8004826:	e000      	b.n	800482a <HAL_RCCEx_PeriphCLKConfig+0x7e>
 8004828:	bf00      	nop
 800482a:	7cfb      	ldrb	r3, [r7, #19]
 800482c:	2b00      	cmp	r3, #0
 800482e:	d10b      	bne.n	8004848 <HAL_RCCEx_PeriphCLKConfig+0x9c>
 8004830:	4b76      	ldr	r3, [pc, #472]	@ (8004a0c <HAL_RCCEx_PeriphCLKConfig+0x260>)
 8004832:	f8d3 3088 	ldr.w	r3, [r3, #136]	@ 0x88
 8004836:	f423 0240 	bic.w	r2, r3, #12582912	@ 0xc00000
 800483a:	687b      	ldr	r3, [r7, #4]
 800483c:	6e5b      	ldr	r3, [r3, #100]	@ 0x64
 800483e:	4973      	ldr	r1, [pc, #460]	@ (8004a0c <HAL_RCCEx_PeriphCLKConfig+0x260>)
 8004840:	4313      	orrs	r3, r2
 8004842:	f8c1 3088 	str.w	r3, [r1, #136]	@ 0x88
 8004846:	e001      	b.n	800484c <HAL_RCCEx_PeriphCLKConfig+0xa0>
 8004848:	7cfb      	ldrb	r3, [r7, #19]
 800484a:	74bb      	strb	r3, [r7, #18]
 800484c:	687b      	ldr	r3, [r7, #4]
 800484e:	681b      	ldr	r3, [r3, #0]
 8004850:	f403 5380 	and.w	r3, r3, #4096	@ 0x1000
 8004854:	2b00      	cmp	r3, #0
 8004856:	d041      	beq.n	80048dc <HAL_RCCEx_PeriphCLKConfig+0x130>
 8004858:	687b      	ldr	r3, [r7, #4]
 800485a:	6e9b      	ldr	r3, [r3, #104]	@ 0x68
 800485c:	f1b3 7f40 	cmp.w	r3, #50331648	@ 0x3000000
 8004860:	d02a      	beq.n	80048b8 <HAL_RCCEx_PeriphCLKConfig+0x10c>
 8004862:	f1b3 7f40 	cmp.w	r3, #50331648	@ 0x3000000
 8004866:	d824      	bhi.n	80048b2 <HAL_RCCEx_PeriphCLKConfig+0x106>
 8004868:	f1b3 7f00 	cmp.w	r3, #33554432	@ 0x2000000
 800486c:	d008      	beq.n	8004880 <HAL_RCCEx_PeriphCLKConfig+0xd4>
 800486e:	f1b3 7f00 	cmp.w	r3, #33554432	@ 0x2000000
 8004872:	d81e      	bhi.n	80048b2 <HAL_RCCEx_PeriphCLKConfig+0x106>
 8004874:	2b00      	cmp	r3, #0
 8004876:	d00a      	beq.n	800488e <HAL_RCCEx_PeriphCLKConfig+0xe2>
 8004878:	f1b3 7f80 	cmp.w	r3, #16777216	@ 0x1000000
 800487c:	d010      	beq.n	80048a0 <HAL_RCCEx_PeriphCLKConfig+0xf4>
 800487e:	e018      	b.n	80048b2 <HAL_RCCEx_PeriphCLKConfig+0x106>
 8004880:	4b62      	ldr	r3, [pc, #392]	@ (8004a0c <HAL_RCCEx_PeriphCLKConfig+0x260>)
 8004882:	68db      	ldr	r3, [r3, #12]
 8004884:	4a61      	ldr	r2, [pc, #388]	@ (8004a0c <HAL_RCCEx_PeriphCLKConfig+0x260>)
 8004886:	f443 3380 	orr.w	r3, r3, #65536	@ 0x10000
 800488a:	60d3      	str	r3, [r2, #12]
 800488c:	e015      	b.n	80048ba <HAL_RCCEx_PeriphCLKConfig+0x10e>
 800488e:	687b      	ldr	r3, [r7, #4]
 8004890:	3304      	adds	r3, #4
 8004892:	2100      	movs	r1, #0
 8004894:	4618      	mov	r0, r3
 8004896:	f000 fa43 	bl	8004d20 <RCCEx_PLLSAI1_Config>
 800489a:	4603      	mov	r3, r0
 800489c:	74fb      	strb	r3, [r7, #19]
 800489e:	e00c      	b.n	80048ba <HAL_RCCEx_PeriphCLKConfig+0x10e>
 80048a0:	687b      	ldr	r3, [r7, #4]
 80048a2:	3320      	adds	r3, #32
 80048a4:	2100      	movs	r1, #0
 80048a6:	4618      	mov	r0, r3
 80048a8:	f000 fb2e 	bl	8004f08 <RCCEx_PLLSAI2_Config>
 80048ac:	4603      	mov	r3, r0
 80048ae:	74fb      	strb	r3, [r7, #19]
 80048b0:	e003      	b.n	80048ba <HAL_RCCEx_PeriphCLKConfig+0x10e>
 80048b2:	2301      	movs	r3, #1
 80048b4:	74fb      	strb	r3, [r7, #19]
 80048b6:	e000      	b.n	80048ba <HAL_RCCEx_PeriphCLKConfig+0x10e>
 80048b8:	bf00      	nop
 80048ba:	7cfb      	ldrb	r3, [r7, #19]
 80048bc:	2b00      	cmp	r3, #0
 80048be:	d10b      	bne.n	80048d8 <HAL_RCCEx_PeriphCLKConfig+0x12c>
 80048c0:	4b52      	ldr	r3, [pc, #328]	@ (8004a0c <HAL_RCCEx_PeriphCLKConfig+0x260>)
 80048c2:	f8d3 3088 	ldr.w	r3, [r3, #136]	@ 0x88
 80048c6:	f023 7240 	bic.w	r2, r3, #50331648	@ 0x3000000
 80048ca:	687b      	ldr	r3, [r7, #4]
 80048cc:	6e9b      	ldr	r3, [r3, #104]	@ 0x68
 80048ce:	494f      	ldr	r1, [pc, #316]	@ (8004a0c <HAL_RCCEx_PeriphCLKConfig+0x260>)
 80048d0:	4313      	orrs	r3, r2
 80048d2:	f8c1 3088 	str.w	r3, [r1, #136]	@ 0x88
 80048d6:	e001      	b.n	80048dc <HAL_RCCEx_PeriphCLKConfig+0x130>
 80048d8:	7cfb      	ldrb	r3, [r7, #19]
 80048da:	74bb      	strb	r3, [r7, #18]
 80048dc:	687b      	ldr	r3, [r7, #4]
 80048de:	681b      	ldr	r3, [r3, #0]
 80048e0:	f403 3300 	and.w	r3, r3, #131072	@ 0x20000
 80048e4:	2b00      	cmp	r3, #0
 80048e6:	f000 80a0 	beq.w	8004a2a <HAL_RCCEx_PeriphCLKConfig+0x27e>
 80048ea:	2300      	movs	r3, #0
 80048ec:	747b      	strb	r3, [r7, #17]
 80048ee:	4b47      	ldr	r3, [pc, #284]	@ (8004a0c <HAL_RCCEx_PeriphCLKConfig+0x260>)
 80048f0:	6d9b      	ldr	r3, [r3, #88]	@ 0x58
 80048f2:	f003 5380 	and.w	r3, r3, #268435456	@ 0x10000000
 80048f6:	2b00      	cmp	r3, #0
 80048f8:	d101      	bne.n	80048fe <HAL_RCCEx_PeriphCLKConfig+0x152>
 80048fa:	2301      	movs	r3, #1
 80048fc:	e000      	b.n	8004900 <HAL_RCCEx_PeriphCLKConfig+0x154>
 80048fe:	2300      	movs	r3, #0
 8004900:	2b00      	cmp	r3, #0
 8004902:	d00d      	beq.n	8004920 <HAL_RCCEx_PeriphCLKConfig+0x174>
 8004904:	4b41      	ldr	r3, [pc, #260]	@ (8004a0c <HAL_RCCEx_PeriphCLKConfig+0x260>)
 8004906:	6d9b      	ldr	r3, [r3, #88]	@ 0x58
 8004908:	4a40      	ldr	r2, [pc, #256]	@ (8004a0c <HAL_RCCEx_PeriphCLKConfig+0x260>)
 800490a:	f043 5380 	orr.w	r3, r3, #268435456	@ 0x10000000
 800490e:	6593      	str	r3, [r2, #88]	@ 0x58
 8004910:	4b3e      	ldr	r3, [pc, #248]	@ (8004a0c <HAL_RCCEx_PeriphCLKConfig+0x260>)
 8004912:	6d9b      	ldr	r3, [r3, #88]	@ 0x58
 8004914:	f003 5380 	and.w	r3, r3, #268435456	@ 0x10000000
 8004918:	60bb      	str	r3, [r7, #8]
 800491a:	68bb      	ldr	r3, [r7, #8]
 800491c:	2301      	movs	r3, #1
 800491e:	747b      	strb	r3, [r7, #17]
 8004920:	4b3b      	ldr	r3, [pc, #236]	@ (8004a10 <HAL_RCCEx_PeriphCLKConfig+0x264>)
 8004922:	681b      	ldr	r3, [r3, #0]
 8004924:	4a3a      	ldr	r2, [pc, #232]	@ (8004a10 <HAL_RCCEx_PeriphCLKConfig+0x264>)
 8004926:	f443 7380 	orr.w	r3, r3, #256	@ 0x100
 800492a:	6013      	str	r3, [r2, #0]
 800492c:	f7fd fb30 	bl	8001f90 <HAL_GetTick>
 8004930:	60f8      	str	r0, [r7, #12]
 8004932:	e009      	b.n	8004948 <HAL_RCCEx_PeriphCLKConfig+0x19c>
 8004934:	f7fd fb2c 	bl	8001f90 <HAL_GetTick>
 8004938:	4602      	mov	r2, r0
 800493a:	68fb      	ldr	r3, [r7, #12]
 800493c:	1ad3      	subs	r3, r2, r3
 800493e:	2b02      	cmp	r3, #2
 8004940:	d902      	bls.n	8004948 <HAL_RCCEx_PeriphCLKConfig+0x19c>
 8004942:	2303      	movs	r3, #3
 8004944:	74fb      	strb	r3, [r7, #19]
 8004946:	e005      	b.n	8004954 <HAL_RCCEx_PeriphCLKConfig+0x1a8>
 8004948:	4b31      	ldr	r3, [pc, #196]	@ (8004a10 <HAL_RCCEx_PeriphCLKConfig+0x264>)
 800494a:	681b      	ldr	r3, [r3, #0]
 800494c:	f403 7380 	and.w	r3, r3, #256	@ 0x100
 8004950:	2b00      	cmp	r3, #0
 8004952:	d0ef      	beq.n	8004934 <HAL_RCCEx_PeriphCLKConfig+0x188>
 8004954:	7cfb      	ldrb	r3, [r7, #19]
 8004956:	2b00      	cmp	r3, #0
 8004958:	d15c      	bne.n	8004a14 <HAL_RCCEx_PeriphCLKConfig+0x268>
 800495a:	4b2c      	ldr	r3, [pc, #176]	@ (8004a0c <HAL_RCCEx_PeriphCLKConfig+0x260>)
 800495c:	f8d3 3090 	ldr.w	r3, [r3, #144]	@ 0x90
 8004960:	f403 7340 	and.w	r3, r3, #768	@ 0x300
 8004964:	617b      	str	r3, [r7, #20]
 8004966:	697b      	ldr	r3, [r7, #20]
 8004968:	2b00      	cmp	r3, #0
 800496a:	d01f      	beq.n	80049ac <HAL_RCCEx_PeriphCLKConfig+0x200>
 800496c:	687b      	ldr	r3, [r7, #4]
 800496e:	f8d3 3080 	ldr.w	r3, [r3, #128]	@ 0x80
 8004972:	697a      	ldr	r2, [r7, #20]
 8004974:	429a      	cmp	r2, r3
 8004976:	d019      	beq.n	80049ac <HAL_RCCEx_PeriphCLKConfig+0x200>
 8004978:	4b24      	ldr	r3, [pc, #144]	@ (8004a0c <HAL_RCCEx_PeriphCLKConfig+0x260>)
 800497a:	f8d3 3090 	ldr.w	r3, [r3, #144]	@ 0x90
 800497e:	f423 7340 	bic.w	r3, r3, #768	@ 0x300
 8004982:	617b      	str	r3, [r7, #20]
 8004984:	4b21      	ldr	r3, [pc, #132]	@ (8004a0c <HAL_RCCEx_PeriphCLKConfig+0x260>)
 8004986:	f8d3 3090 	ldr.w	r3, [r3, #144]	@ 0x90
 800498a:	4a20      	ldr	r2, [pc, #128]	@ (8004a0c <HAL_RCCEx_PeriphCLKConfig+0x260>)
 800498c:	f443 3380 	orr.w	r3, r3, #65536	@ 0x10000
 8004990:	f8c2 3090 	str.w	r3, [r2, #144]	@ 0x90
 8004994:	4b1d      	ldr	r3, [pc, #116]	@ (8004a0c <HAL_RCCEx_PeriphCLKConfig+0x260>)
 8004996:	f8d3 3090 	ldr.w	r3, [r3, #144]	@ 0x90
 800499a:	4a1c      	ldr	r2, [pc, #112]	@ (8004a0c <HAL_RCCEx_PeriphCLKConfig+0x260>)
 800499c:	f423 3380 	bic.w	r3, r3, #65536	@ 0x10000
 80049a0:	f8c2 3090 	str.w	r3, [r2, #144]	@ 0x90
 80049a4:	4a19      	ldr	r2, [pc, #100]	@ (8004a0c <HAL_RCCEx_PeriphCLKConfig+0x260>)
 80049a6:	697b      	ldr	r3, [r7, #20]
 80049a8:	f8c2 3090 	str.w	r3, [r2, #144]	@ 0x90
 80049ac:	697b      	ldr	r3, [r7, #20]
 80049ae:	f003 0301 	and.w	r3, r3, #1
 80049b2:	2b00      	cmp	r3, #0
 80049b4:	d016      	beq.n	80049e4 <HAL_RCCEx_PeriphCLKConfig+0x238>
 80049b6:	f7fd faeb 	bl	8001f90 <HAL_GetTick>
 80049ba:	60f8      	str	r0, [r7, #12]
 80049bc:	e00b      	b.n	80049d6 <HAL_RCCEx_PeriphCLKConfig+0x22a>
 80049be:	f7fd fae7 	bl	8001f90 <HAL_GetTick>
 80049c2:	4602      	mov	r2, r0
 80049c4:	68fb      	ldr	r3, [r7, #12]
 80049c6:	1ad3      	subs	r3, r2, r3
 80049c8:	f241 3288 	movw	r2, #5000	@ 0x1388
 80049cc:	4293      	cmp	r3, r2
 80049ce:	d902      	bls.n	80049d6 <HAL_RCCEx_PeriphCLKConfig+0x22a>
 80049d0:	2303      	movs	r3, #3
 80049d2:	74fb      	strb	r3, [r7, #19]
 80049d4:	e006      	b.n	80049e4 <HAL_RCCEx_PeriphCLKConfig+0x238>
 80049d6:	4b0d      	ldr	r3, [pc, #52]	@ (8004a0c <HAL_RCCEx_PeriphCLKConfig+0x260>)
 80049d8:	f8d3 3090 	ldr.w	r3, [r3, #144]	@ 0x90
 80049dc:	f003 0302 	and.w	r3, r3, #2
 80049e0:	2b00      	cmp	r3, #0
 80049e2:	d0ec      	beq.n	80049be <HAL_RCCEx_PeriphCLKConfig+0x212>
 80049e4:	7cfb      	ldrb	r3, [r7, #19]
 80049e6:	2b00      	cmp	r3, #0
 80049e8:	d10c      	bne.n	8004a04 <HAL_RCCEx_PeriphCLKConfig+0x258>
 80049ea:	4b08      	ldr	r3, [pc, #32]	@ (8004a0c <HAL_RCCEx_PeriphCLKConfig+0x260>)
 80049ec:	f8d3 3090 	ldr.w	r3, [r3, #144]	@ 0x90
 80049f0:	f423 7240 	bic.w	r2, r3, #768	@ 0x300
 80049f4:	687b      	ldr	r3, [r7, #4]
 80049f6:	f8d3 3080 	ldr.w	r3, [r3, #128]	@ 0x80
 80049fa:	4904      	ldr	r1, [pc, #16]	@ (8004a0c <HAL_RCCEx_PeriphCLKConfig+0x260>)
 80049fc:	4313      	orrs	r3, r2
 80049fe:	f8c1 3090 	str.w	r3, [r1, #144]	@ 0x90
 8004a02:	e009      	b.n	8004a18 <HAL_RCCEx_PeriphCLKConfig+0x26c>
 8004a04:	7cfb      	ldrb	r3, [r7, #19]
 8004a06:	74bb      	strb	r3, [r7, #18]
 8004a08:	e006      	b.n	8004a18 <HAL_RCCEx_PeriphCLKConfig+0x26c>
 8004a0a:	bf00      	nop
 8004a0c:	40021000 	.word	0x40021000
 8004a10:	40007000 	.word	0x40007000
 8004a14:	7cfb      	ldrb	r3, [r7, #19]
 8004a16:	74bb      	strb	r3, [r7, #18]
 8004a18:	7c7b      	ldrb	r3, [r7, #17]
 8004a1a:	2b01      	cmp	r3, #1
 8004a1c:	d105      	bne.n	8004a2a <HAL_RCCEx_PeriphCLKConfig+0x27e>
 8004a1e:	4ba1      	ldr	r3, [pc, #644]	@ (8004ca4 <HAL_RCCEx_PeriphCLKConfig+0x4f8>)
 8004a20:	6d9b      	ldr	r3, [r3, #88]	@ 0x58
 8004a22:	4aa0      	ldr	r2, [pc, #640]	@ (8004ca4 <HAL_RCCEx_PeriphCLKConfig+0x4f8>)
 8004a24:	f023 5380 	bic.w	r3, r3, #268435456	@ 0x10000000
 8004a28:	6593      	str	r3, [r2, #88]	@ 0x58
 8004a2a:	687b      	ldr	r3, [r7, #4]
 8004a2c:	681b      	ldr	r3, [r3, #0]
 8004a2e:	f003 0301 	and.w	r3, r3, #1
 8004a32:	2b00      	cmp	r3, #0
 8004a34:	d00a      	beq.n	8004a4c <HAL_RCCEx_PeriphCLKConfig+0x2a0>
 8004a36:	4b9b      	ldr	r3, [pc, #620]	@ (8004ca4 <HAL_RCCEx_PeriphCLKConfig+0x4f8>)
 8004a38:	f8d3 3088 	ldr.w	r3, [r3, #136]	@ 0x88
 8004a3c:	f023 0203 	bic.w	r2, r3, #3
 8004a40:	687b      	ldr	r3, [r7, #4]
 8004a42:	6b9b      	ldr	r3, [r3, #56]	@ 0x38
 8004a44:	4997      	ldr	r1, [pc, #604]	@ (8004ca4 <HAL_RCCEx_PeriphCLKConfig+0x4f8>)
 8004a46:	4313      	orrs	r3, r2
 8004a48:	f8c1 3088 	str.w	r3, [r1, #136]	@ 0x88
 8004a4c:	687b      	ldr	r3, [r7, #4]
 8004a4e:	681b      	ldr	r3, [r3, #0]
 8004a50:	f003 0302 	and.w	r3, r3, #2
 8004a54:	2b00      	cmp	r3, #0
 8004a56:	d00a      	beq.n	8004a6e <HAL_RCCEx_PeriphCLKConfig+0x2c2>
 8004a58:	4b92      	ldr	r3, [pc, #584]	@ (8004ca4 <HAL_RCCEx_PeriphCLKConfig+0x4f8>)
 8004a5a:	f8d3 3088 	ldr.w	r3, [r3, #136]	@ 0x88
 8004a5e:	f023 020c 	bic.w	r2, r3, #12
 8004a62:	687b      	ldr	r3, [r7, #4]
 8004a64:	6bdb      	ldr	r3, [r3, #60]	@ 0x3c
 8004a66:	498f      	ldr	r1, [pc, #572]	@ (8004ca4 <HAL_RCCEx_PeriphCLKConfig+0x4f8>)
 8004a68:	4313      	orrs	r3, r2
 8004a6a:	f8c1 3088 	str.w	r3, [r1, #136]	@ 0x88
 8004a6e:	687b      	ldr	r3, [r7, #4]
 8004a70:	681b      	ldr	r3, [r3, #0]
 8004a72:	f003 0304 	and.w	r3, r3, #4
 8004a76:	2b00      	cmp	r3, #0
 8004a78:	d00a      	beq.n	8004a90 <HAL_RCCEx_PeriphCLKConfig+0x2e4>
 8004a7a:	4b8a      	ldr	r3, [pc, #552]	@ (8004ca4 <HAL_RCCEx_PeriphCLKConfig+0x4f8>)
 8004a7c:	f8d3 3088 	ldr.w	r3, [r3, #136]	@ 0x88
 8004a80:	f023 0230 	bic.w	r2, r3, #48	@ 0x30
 8004a84:	687b      	ldr	r3, [r7, #4]
 8004a86:	6c1b      	ldr	r3, [r3, #64]	@ 0x40
 8004a88:	4986      	ldr	r1, [pc, #536]	@ (8004ca4 <HAL_RCCEx_PeriphCLKConfig+0x4f8>)
 8004a8a:	4313      	orrs	r3, r2
 8004a8c:	f8c1 3088 	str.w	r3, [r1, #136]	@ 0x88
 8004a90:	687b      	ldr	r3, [r7, #4]
 8004a92:	681b      	ldr	r3, [r3, #0]
 8004a94:	f003 0308 	and.w	r3, r3, #8
 8004a98:	2b00      	cmp	r3, #0
 8004a9a:	d00a      	beq.n	8004ab2 <HAL_RCCEx_PeriphCLKConfig+0x306>
 8004a9c:	4b81      	ldr	r3, [pc, #516]	@ (8004ca4 <HAL_RCCEx_PeriphCLKConfig+0x4f8>)
 8004a9e:	f8d3 3088 	ldr.w	r3, [r3, #136]	@ 0x88
 8004aa2:	f023 02c0 	bic.w	r2, r3, #192	@ 0xc0
 8004aa6:	687b      	ldr	r3, [r7, #4]
 8004aa8:	6c5b      	ldr	r3, [r3, #68]	@ 0x44
 8004aaa:	497e      	ldr	r1, [pc, #504]	@ (8004ca4 <HAL_RCCEx_PeriphCLKConfig+0x4f8>)
 8004aac:	4313      	orrs	r3, r2
 8004aae:	f8c1 3088 	str.w	r3, [r1, #136]	@ 0x88
 8004ab2:	687b      	ldr	r3, [r7, #4]
 8004ab4:	681b      	ldr	r3, [r3, #0]
 8004ab6:	f003 0310 	and.w	r3, r3, #16
 8004aba:	2b00      	cmp	r3, #0
 8004abc:	d00a      	beq.n	8004ad4 <HAL_RCCEx_PeriphCLKConfig+0x328>
 8004abe:	4b79      	ldr	r3, [pc, #484]	@ (8004ca4 <HAL_RCCEx_PeriphCLKConfig+0x4f8>)
 8004ac0:	f8d3 3088 	ldr.w	r3, [r3, #136]	@ 0x88
 8004ac4:	f423 7240 	bic.w	r2, r3, #768	@ 0x300
 8004ac8:	687b      	ldr	r3, [r7, #4]
 8004aca:	6c9b      	ldr	r3, [r3, #72]	@ 0x48
 8004acc:	4975      	ldr	r1, [pc, #468]	@ (8004ca4 <HAL_RCCEx_PeriphCLKConfig+0x4f8>)
 8004ace:	4313      	orrs	r3, r2
 8004ad0:	f8c1 3088 	str.w	r3, [r1, #136]	@ 0x88
 8004ad4:	687b      	ldr	r3, [r7, #4]
 8004ad6:	681b      	ldr	r3, [r3, #0]
 8004ad8:	f003 0320 	and.w	r3, r3, #32
 8004adc:	2b00      	cmp	r3, #0
 8004ade:	d00a      	beq.n	8004af6 <HAL_RCCEx_PeriphCLKConfig+0x34a>
 8004ae0:	4b70      	ldr	r3, [pc, #448]	@ (8004ca4 <HAL_RCCEx_PeriphCLKConfig+0x4f8>)
 8004ae2:	f8d3 3088 	ldr.w	r3, [r3, #136]	@ 0x88
 8004ae6:	f423 6240 	bic.w	r2, r3, #3072	@ 0xc00
 8004aea:	687b      	ldr	r3, [r7, #4]
 8004aec:	6cdb      	ldr	r3, [r3, #76]	@ 0x4c
 8004aee:	496d      	ldr	r1, [pc, #436]	@ (8004ca4 <HAL_RCCEx_PeriphCLKConfig+0x4f8>)
 8004af0:	4313      	orrs	r3, r2
 8004af2:	f8c1 3088 	str.w	r3, [r1, #136]	@ 0x88
 8004af6:	687b      	ldr	r3, [r7, #4]
 8004af8:	681b      	ldr	r3, [r3, #0]
 8004afa:	f403 7300 	and.w	r3, r3, #512	@ 0x200
 8004afe:	2b00      	cmp	r3, #0
 8004b00:	d00a      	beq.n	8004b18 <HAL_RCCEx_PeriphCLKConfig+0x36c>
 8004b02:	4b68      	ldr	r3, [pc, #416]	@ (8004ca4 <HAL_RCCEx_PeriphCLKConfig+0x4f8>)
 8004b04:	f8d3 3088 	ldr.w	r3, [r3, #136]	@ 0x88
 8004b08:	f423 2240 	bic.w	r2, r3, #786432	@ 0xc0000
 8004b0c:	687b      	ldr	r3, [r7, #4]
 8004b0e:	6ddb      	ldr	r3, [r3, #92]	@ 0x5c
 8004b10:	4964      	ldr	r1, [pc, #400]	@ (8004ca4 <HAL_RCCEx_PeriphCLKConfig+0x4f8>)
 8004b12:	4313      	orrs	r3, r2
 8004b14:	f8c1 3088 	str.w	r3, [r1, #136]	@ 0x88
 8004b18:	687b      	ldr	r3, [r7, #4]
 8004b1a:	681b      	ldr	r3, [r3, #0]
 8004b1c:	f403 6380 	and.w	r3, r3, #1024	@ 0x400
 8004b20:	2b00      	cmp	r3, #0
 8004b22:	d00a      	beq.n	8004b3a <HAL_RCCEx_PeriphCLKConfig+0x38e>
 8004b24:	4b5f      	ldr	r3, [pc, #380]	@ (8004ca4 <HAL_RCCEx_PeriphCLKConfig+0x4f8>)
 8004b26:	f8d3 3088 	ldr.w	r3, [r3, #136]	@ 0x88
 8004b2a:	f423 1240 	bic.w	r2, r3, #3145728	@ 0x300000
 8004b2e:	687b      	ldr	r3, [r7, #4]
 8004b30:	6e1b      	ldr	r3, [r3, #96]	@ 0x60
 8004b32:	495c      	ldr	r1, [pc, #368]	@ (8004ca4 <HAL_RCCEx_PeriphCLKConfig+0x4f8>)
 8004b34:	4313      	orrs	r3, r2
 8004b36:	f8c1 3088 	str.w	r3, [r1, #136]	@ 0x88
 8004b3a:	687b      	ldr	r3, [r7, #4]
 8004b3c:	681b      	ldr	r3, [r3, #0]
 8004b3e:	f003 0340 	and.w	r3, r3, #64	@ 0x40
 8004b42:	2b00      	cmp	r3, #0
 8004b44:	d00a      	beq.n	8004b5c <HAL_RCCEx_PeriphCLKConfig+0x3b0>
 8004b46:	4b57      	ldr	r3, [pc, #348]	@ (8004ca4 <HAL_RCCEx_PeriphCLKConfig+0x4f8>)
 8004b48:	f8d3 3088 	ldr.w	r3, [r3, #136]	@ 0x88
 8004b4c:	f423 5240 	bic.w	r2, r3, #12288	@ 0x3000
 8004b50:	687b      	ldr	r3, [r7, #4]
 8004b52:	6d1b      	ldr	r3, [r3, #80]	@ 0x50
 8004b54:	4953      	ldr	r1, [pc, #332]	@ (8004ca4 <HAL_RCCEx_PeriphCLKConfig+0x4f8>)
 8004b56:	4313      	orrs	r3, r2
 8004b58:	f8c1 3088 	str.w	r3, [r1, #136]	@ 0x88
 8004b5c:	687b      	ldr	r3, [r7, #4]
 8004b5e:	681b      	ldr	r3, [r3, #0]
 8004b60:	f003 0380 	and.w	r3, r3, #128	@ 0x80
 8004b64:	2b00      	cmp	r3, #0
 8004b66:	d00a      	beq.n	8004b7e <HAL_RCCEx_PeriphCLKConfig+0x3d2>
 8004b68:	4b4e      	ldr	r3, [pc, #312]	@ (8004ca4 <HAL_RCCEx_PeriphCLKConfig+0x4f8>)
 8004b6a:	f8d3 3088 	ldr.w	r3, [r3, #136]	@ 0x88
 8004b6e:	f423 4240 	bic.w	r2, r3, #49152	@ 0xc000
 8004b72:	687b      	ldr	r3, [r7, #4]
 8004b74:	6d5b      	ldr	r3, [r3, #84]	@ 0x54
 8004b76:	494b      	ldr	r1, [pc, #300]	@ (8004ca4 <HAL_RCCEx_PeriphCLKConfig+0x4f8>)
 8004b78:	4313      	orrs	r3, r2
 8004b7a:	f8c1 3088 	str.w	r3, [r1, #136]	@ 0x88
 8004b7e:	687b      	ldr	r3, [r7, #4]
 8004b80:	681b      	ldr	r3, [r3, #0]
 8004b82:	f403 7380 	and.w	r3, r3, #256	@ 0x100
 8004b86:	2b00      	cmp	r3, #0
 8004b88:	d00a      	beq.n	8004ba0 <HAL_RCCEx_PeriphCLKConfig+0x3f4>
 8004b8a:	4b46      	ldr	r3, [pc, #280]	@ (8004ca4 <HAL_RCCEx_PeriphCLKConfig+0x4f8>)
 8004b8c:	f8d3 3088 	ldr.w	r3, [r3, #136]	@ 0x88
 8004b90:	f423 3240 	bic.w	r2, r3, #196608	@ 0x30000
 8004b94:	687b      	ldr	r3, [r7, #4]
 8004b96:	6d9b      	ldr	r3, [r3, #88]	@ 0x58
 8004b98:	4942      	ldr	r1, [pc, #264]	@ (8004ca4 <HAL_RCCEx_PeriphCLKConfig+0x4f8>)
 8004b9a:	4313      	orrs	r3, r2
 8004b9c:	f8c1 3088 	str.w	r3, [r1, #136]	@ 0x88
 8004ba0:	687b      	ldr	r3, [r7, #4]
 8004ba2:	681b      	ldr	r3, [r3, #0]
 8004ba4:	f403 2300 	and.w	r3, r3, #524288	@ 0x80000
 8004ba8:	2b00      	cmp	r3, #0
 8004baa:	d028      	beq.n	8004bfe <HAL_RCCEx_PeriphCLKConfig+0x452>
 8004bac:	4b3d      	ldr	r3, [pc, #244]	@ (8004ca4 <HAL_RCCEx_PeriphCLKConfig+0x4f8>)
 8004bae:	f8d3 3088 	ldr.w	r3, [r3, #136]	@ 0x88
 8004bb2:	f023 6240 	bic.w	r2, r3, #201326592	@ 0xc000000
 8004bb6:	687b      	ldr	r3, [r7, #4]
 8004bb8:	6edb      	ldr	r3, [r3, #108]	@ 0x6c
 8004bba:	493a      	ldr	r1, [pc, #232]	@ (8004ca4 <HAL_RCCEx_PeriphCLKConfig+0x4f8>)
 8004bbc:	4313      	orrs	r3, r2
 8004bbe:	f8c1 3088 	str.w	r3, [r1, #136]	@ 0x88
 8004bc2:	687b      	ldr	r3, [r7, #4]
 8004bc4:	6edb      	ldr	r3, [r3, #108]	@ 0x6c
 8004bc6:	f1b3 6f00 	cmp.w	r3, #134217728	@ 0x8000000
 8004bca:	d106      	bne.n	8004bda <HAL_RCCEx_PeriphCLKConfig+0x42e>
 8004bcc:	4b35      	ldr	r3, [pc, #212]	@ (8004ca4 <HAL_RCCEx_PeriphCLKConfig+0x4f8>)
 8004bce:	68db      	ldr	r3, [r3, #12]
 8004bd0:	4a34      	ldr	r2, [pc, #208]	@ (8004ca4 <HAL_RCCEx_PeriphCLKConfig+0x4f8>)
 8004bd2:	f443 1380 	orr.w	r3, r3, #1048576	@ 0x100000
 8004bd6:	60d3      	str	r3, [r2, #12]
 8004bd8:	e011      	b.n	8004bfe <HAL_RCCEx_PeriphCLKConfig+0x452>
 8004bda:	687b      	ldr	r3, [r7, #4]
 8004bdc:	6edb      	ldr	r3, [r3, #108]	@ 0x6c
 8004bde:	f1b3 6f80 	cmp.w	r3, #67108864	@ 0x4000000
 8004be2:	d10c      	bne.n	8004bfe <HAL_RCCEx_PeriphCLKConfig+0x452>
 8004be4:	687b      	ldr	r3, [r7, #4]
 8004be6:	3304      	adds	r3, #4
 8004be8:	2101      	movs	r1, #1
 8004bea:	4618      	mov	r0, r3
 8004bec:	f000 f898 	bl	8004d20 <RCCEx_PLLSAI1_Config>
 8004bf0:	4603      	mov	r3, r0
 8004bf2:	74fb      	strb	r3, [r7, #19]
 8004bf4:	7cfb      	ldrb	r3, [r7, #19]
 8004bf6:	2b00      	cmp	r3, #0
 8004bf8:	d001      	beq.n	8004bfe <HAL_RCCEx_PeriphCLKConfig+0x452>
 8004bfa:	7cfb      	ldrb	r3, [r7, #19]
 8004bfc:	74bb      	strb	r3, [r7, #18]
 8004bfe:	687b      	ldr	r3, [r7, #4]
 8004c00:	681b      	ldr	r3, [r3, #0]
 8004c02:	f403 2380 	and.w	r3, r3, #262144	@ 0x40000
 8004c06:	2b00      	cmp	r3, #0
 8004c08:	d028      	beq.n	8004c5c <HAL_RCCEx_PeriphCLKConfig+0x4b0>
 8004c0a:	4b26      	ldr	r3, [pc, #152]	@ (8004ca4 <HAL_RCCEx_PeriphCLKConfig+0x4f8>)
 8004c0c:	f8d3 3088 	ldr.w	r3, [r3, #136]	@ 0x88
 8004c10:	f023 6240 	bic.w	r2, r3, #201326592	@ 0xc000000
 8004c14:	687b      	ldr	r3, [r7, #4]
 8004c16:	6f1b      	ldr	r3, [r3, #112]	@ 0x70
 8004c18:	4922      	ldr	r1, [pc, #136]	@ (8004ca4 <HAL_RCCEx_PeriphCLKConfig+0x4f8>)
 8004c1a:	4313      	orrs	r3, r2
 8004c1c:	f8c1 3088 	str.w	r3, [r1, #136]	@ 0x88
 8004c20:	687b      	ldr	r3, [r7, #4]
 8004c22:	6f1b      	ldr	r3, [r3, #112]	@ 0x70
 8004c24:	f1b3 6f00 	cmp.w	r3, #134217728	@ 0x8000000
 8004c28:	d106      	bne.n	8004c38 <HAL_RCCEx_PeriphCLKConfig+0x48c>
 8004c2a:	4b1e      	ldr	r3, [pc, #120]	@ (8004ca4 <HAL_RCCEx_PeriphCLKConfig+0x4f8>)
 8004c2c:	68db      	ldr	r3, [r3, #12]
 8004c2e:	4a1d      	ldr	r2, [pc, #116]	@ (8004ca4 <HAL_RCCEx_PeriphCLKConfig+0x4f8>)
 8004c30:	f443 1380 	orr.w	r3, r3, #1048576	@ 0x100000
 8004c34:	60d3      	str	r3, [r2, #12]
 8004c36:	e011      	b.n	8004c5c <HAL_RCCEx_PeriphCLKConfig+0x4b0>
 8004c38:	687b      	ldr	r3, [r7, #4]
 8004c3a:	6f1b      	ldr	r3, [r3, #112]	@ 0x70
 8004c3c:	f1b3 6f80 	cmp.w	r3, #67108864	@ 0x4000000
 8004c40:	d10c      	bne.n	8004c5c <HAL_RCCEx_PeriphCLKConfig+0x4b0>
 8004c42:	687b      	ldr	r3, [r7, #4]
 8004c44:	3304      	adds	r3, #4
 8004c46:	2101      	movs	r1, #1
 8004c48:	4618      	mov	r0, r3
 8004c4a:	f000 f869 	bl	8004d20 <RCCEx_PLLSAI1_Config>
 8004c4e:	4603      	mov	r3, r0
 8004c50:	74fb      	strb	r3, [r7, #19]
 8004c52:	7cfb      	ldrb	r3, [r7, #19]
 8004c54:	2b00      	cmp	r3, #0
 8004c56:	d001      	beq.n	8004c5c <HAL_RCCEx_PeriphCLKConfig+0x4b0>
 8004c58:	7cfb      	ldrb	r3, [r7, #19]
 8004c5a:	74bb      	strb	r3, [r7, #18]
 8004c5c:	687b      	ldr	r3, [r7, #4]
 8004c5e:	681b      	ldr	r3, [r3, #0]
 8004c60:	f403 4380 	and.w	r3, r3, #16384	@ 0x4000
 8004c64:	2b00      	cmp	r3, #0
 8004c66:	d031      	beq.n	8004ccc <HAL_RCCEx_PeriphCLKConfig+0x520>
 8004c68:	4b0e      	ldr	r3, [pc, #56]	@ (8004ca4 <HAL_RCCEx_PeriphCLKConfig+0x4f8>)
 8004c6a:	f8d3 3088 	ldr.w	r3, [r3, #136]	@ 0x88
 8004c6e:	f023 5240 	bic.w	r2, r3, #805306368	@ 0x30000000
 8004c72:	687b      	ldr	r3, [r7, #4]
 8004c74:	6f5b      	ldr	r3, [r3, #116]	@ 0x74
 8004c76:	490b      	ldr	r1, [pc, #44]	@ (8004ca4 <HAL_RCCEx_PeriphCLKConfig+0x4f8>)
 8004c78:	4313      	orrs	r3, r2
 8004c7a:	f8c1 3088 	str.w	r3, [r1, #136]	@ 0x88
 8004c7e:	687b      	ldr	r3, [r7, #4]
 8004c80:	6f5b      	ldr	r3, [r3, #116]	@ 0x74
 8004c82:	f1b3 5f80 	cmp.w	r3, #268435456	@ 0x10000000
 8004c86:	d10f      	bne.n	8004ca8 <HAL_RCCEx_PeriphCLKConfig+0x4fc>
 8004c88:	687b      	ldr	r3, [r7, #4]
 8004c8a:	3304      	adds	r3, #4
 8004c8c:	2102      	movs	r1, #2
 8004c8e:	4618      	mov	r0, r3
 8004c90:	f000 f846 	bl	8004d20 <RCCEx_PLLSAI1_Config>
 8004c94:	4603      	mov	r3, r0
 8004c96:	74fb      	strb	r3, [r7, #19]
 8004c98:	7cfb      	ldrb	r3, [r7, #19]
 8004c9a:	2b00      	cmp	r3, #0
 8004c9c:	d016      	beq.n	8004ccc <HAL_RCCEx_PeriphCLKConfig+0x520>
 8004c9e:	7cfb      	ldrb	r3, [r7, #19]
 8004ca0:	74bb      	strb	r3, [r7, #18]
 8004ca2:	e013      	b.n	8004ccc <HAL_RCCEx_PeriphCLKConfig+0x520>
 8004ca4:	40021000 	.word	0x40021000
 8004ca8:	687b      	ldr	r3, [r7, #4]
 8004caa:	6f5b      	ldr	r3, [r3, #116]	@ 0x74
 8004cac:	f1b3 5f00 	cmp.w	r3, #536870912	@ 0x20000000
 8004cb0:	d10c      	bne.n	8004ccc <HAL_RCCEx_PeriphCLKConfig+0x520>
 8004cb2:	687b      	ldr	r3, [r7, #4]
 8004cb4:	3320      	adds	r3, #32
 8004cb6:	2102      	movs	r1, #2
 8004cb8:	4618      	mov	r0, r3
 8004cba:	f000 f925 	bl	8004f08 <RCCEx_PLLSAI2_Config>
 8004cbe:	4603      	mov	r3, r0
 8004cc0:	74fb      	strb	r3, [r7, #19]
 8004cc2:	7cfb      	ldrb	r3, [r7, #19]
 8004cc4:	2b00      	cmp	r3, #0
 8004cc6:	d001      	beq.n	8004ccc <HAL_RCCEx_PeriphCLKConfig+0x520>
 8004cc8:	7cfb      	ldrb	r3, [r7, #19]
 8004cca:	74bb      	strb	r3, [r7, #18]
 8004ccc:	687b      	ldr	r3, [r7, #4]
 8004cce:	681b      	ldr	r3, [r3, #0]
 8004cd0:	f403 4300 	and.w	r3, r3, #32768	@ 0x8000
 8004cd4:	2b00      	cmp	r3, #0
 8004cd6:	d00a      	beq.n	8004cee <HAL_RCCEx_PeriphCLKConfig+0x542>
 8004cd8:	4b10      	ldr	r3, [pc, #64]	@ (8004d1c <HAL_RCCEx_PeriphCLKConfig+0x570>)
 8004cda:	f8d3 3088 	ldr.w	r3, [r3, #136]	@ 0x88
 8004cde:	f023 4280 	bic.w	r2, r3, #1073741824	@ 0x40000000
 8004ce2:	687b      	ldr	r3, [r7, #4]
 8004ce4:	6f9b      	ldr	r3, [r3, #120]	@ 0x78
 8004ce6:	490d      	ldr	r1, [pc, #52]	@ (8004d1c <HAL_RCCEx_PeriphCLKConfig+0x570>)
 8004ce8:	4313      	orrs	r3, r2
 8004cea:	f8c1 3088 	str.w	r3, [r1, #136]	@ 0x88
 8004cee:	687b      	ldr	r3, [r7, #4]
 8004cf0:	681b      	ldr	r3, [r3, #0]
 8004cf2:	f403 3380 	and.w	r3, r3, #65536	@ 0x10000
 8004cf6:	2b00      	cmp	r3, #0
 8004cf8:	d00a      	beq.n	8004d10 <HAL_RCCEx_PeriphCLKConfig+0x564>
 8004cfa:	4b08      	ldr	r3, [pc, #32]	@ (8004d1c <HAL_RCCEx_PeriphCLKConfig+0x570>)
 8004cfc:	f8d3 3088 	ldr.w	r3, [r3, #136]	@ 0x88
 8004d00:	f023 4200 	bic.w	r2, r3, #2147483648	@ 0x80000000
 8004d04:	687b      	ldr	r3, [r7, #4]
 8004d06:	6fdb      	ldr	r3, [r3, #124]	@ 0x7c
 8004d08:	4904      	ldr	r1, [pc, #16]	@ (8004d1c <HAL_RCCEx_PeriphCLKConfig+0x570>)
 8004d0a:	4313      	orrs	r3, r2
 8004d0c:	f8c1 3088 	str.w	r3, [r1, #136]	@ 0x88
 8004d10:	7cbb      	ldrb	r3, [r7, #18]
 8004d12:	4618      	mov	r0, r3
 8004d14:	3718      	adds	r7, #24
 8004d16:	46bd      	mov	sp, r7
 8004d18:	bd80      	pop	{r7, pc}
 8004d1a:	bf00      	nop
 8004d1c:	40021000 	.word	0x40021000

08004d20 <RCCEx_PLLSAI1_Config>:
 8004d20:	b580      	push	{r7, lr}
 8004d22:	b084      	sub	sp, #16
 8004d24:	af00      	add	r7, sp, #0
 8004d26:	6078      	str	r0, [r7, #4]
 8004d28:	6039      	str	r1, [r7, #0]
 8004d2a:	2300      	movs	r3, #0
 8004d2c:	73fb      	strb	r3, [r7, #15]
 8004d2e:	4b75      	ldr	r3, [pc, #468]	@ (8004f04 <RCCEx_PLLSAI1_Config+0x1e4>)
 8004d30:	68db      	ldr	r3, [r3, #12]
 8004d32:	f003 0303 	and.w	r3, r3, #3
 8004d36:	2b00      	cmp	r3, #0
 8004d38:	d018      	beq.n	8004d6c <RCCEx_PLLSAI1_Config+0x4c>
 8004d3a:	4b72      	ldr	r3, [pc, #456]	@ (8004f04 <RCCEx_PLLSAI1_Config+0x1e4>)
 8004d3c:	68db      	ldr	r3, [r3, #12]
 8004d3e:	f003 0203 	and.w	r2, r3, #3
 8004d42:	687b      	ldr	r3, [r7, #4]
 8004d44:	681b      	ldr	r3, [r3, #0]
 8004d46:	429a      	cmp	r2, r3
 8004d48:	d10d      	bne.n	8004d66 <RCCEx_PLLSAI1_Config+0x46>
 8004d4a:	687b      	ldr	r3, [r7, #4]
 8004d4c:	681b      	ldr	r3, [r3, #0]
 8004d4e:	2b00      	cmp	r3, #0
 8004d50:	d009      	beq.n	8004d66 <RCCEx_PLLSAI1_Config+0x46>
 8004d52:	4b6c      	ldr	r3, [pc, #432]	@ (8004f04 <RCCEx_PLLSAI1_Config+0x1e4>)
 8004d54:	68db      	ldr	r3, [r3, #12]
 8004d56:	091b      	lsrs	r3, r3, #4
 8004d58:	f003 0307 	and.w	r3, r3, #7
 8004d5c:	1c5a      	adds	r2, r3, #1
 8004d5e:	687b      	ldr	r3, [r7, #4]
 8004d60:	685b      	ldr	r3, [r3, #4]
 8004d62:	429a      	cmp	r2, r3
 8004d64:	d047      	beq.n	8004df6 <RCCEx_PLLSAI1_Config+0xd6>
 8004d66:	2301      	movs	r3, #1
 8004d68:	73fb      	strb	r3, [r7, #15]
 8004d6a:	e044      	b.n	8004df6 <RCCEx_PLLSAI1_Config+0xd6>
 8004d6c:	687b      	ldr	r3, [r7, #4]
 8004d6e:	681b      	ldr	r3, [r3, #0]
 8004d70:	2b03      	cmp	r3, #3
 8004d72:	d018      	beq.n	8004da6 <RCCEx_PLLSAI1_Config+0x86>
 8004d74:	2b03      	cmp	r3, #3
 8004d76:	d825      	bhi.n	8004dc4 <RCCEx_PLLSAI1_Config+0xa4>
 8004d78:	2b01      	cmp	r3, #1
 8004d7a:	d002      	beq.n	8004d82 <RCCEx_PLLSAI1_Config+0x62>
 8004d7c:	2b02      	cmp	r3, #2
 8004d7e:	d009      	beq.n	8004d94 <RCCEx_PLLSAI1_Config+0x74>
 8004d80:	e020      	b.n	8004dc4 <RCCEx_PLLSAI1_Config+0xa4>
 8004d82:	4b60      	ldr	r3, [pc, #384]	@ (8004f04 <RCCEx_PLLSAI1_Config+0x1e4>)
 8004d84:	681b      	ldr	r3, [r3, #0]
 8004d86:	f003 0302 	and.w	r3, r3, #2
 8004d8a:	2b00      	cmp	r3, #0
 8004d8c:	d11d      	bne.n	8004dca <RCCEx_PLLSAI1_Config+0xaa>
 8004d8e:	2301      	movs	r3, #1
 8004d90:	73fb      	strb	r3, [r7, #15]
 8004d92:	e01a      	b.n	8004dca <RCCEx_PLLSAI1_Config+0xaa>
 8004d94:	4b5b      	ldr	r3, [pc, #364]	@ (8004f04 <RCCEx_PLLSAI1_Config+0x1e4>)
 8004d96:	681b      	ldr	r3, [r3, #0]
 8004d98:	f403 6380 	and.w	r3, r3, #1024	@ 0x400
 8004d9c:	2b00      	cmp	r3, #0
 8004d9e:	d116      	bne.n	8004dce <RCCEx_PLLSAI1_Config+0xae>
 8004da0:	2301      	movs	r3, #1
 8004da2:	73fb      	strb	r3, [r7, #15]
 8004da4:	e013      	b.n	8004dce <RCCEx_PLLSAI1_Config+0xae>
 8004da6:	4b57      	ldr	r3, [pc, #348]	@ (8004f04 <RCCEx_PLLSAI1_Config+0x1e4>)
 8004da8:	681b      	ldr	r3, [r3, #0]
 8004daa:	f403 3300 	and.w	r3, r3, #131072	@ 0x20000
 8004dae:	2b00      	cmp	r3, #0
 8004db0:	d10f      	bne.n	8004dd2 <RCCEx_PLLSAI1_Config+0xb2>
 8004db2:	4b54      	ldr	r3, [pc, #336]	@ (8004f04 <RCCEx_PLLSAI1_Config+0x1e4>)
 8004db4:	681b      	ldr	r3, [r3, #0]
 8004db6:	f403 2380 	and.w	r3, r3, #262144	@ 0x40000
 8004dba:	2b00      	cmp	r3, #0
 8004dbc:	d109      	bne.n	8004dd2 <RCCEx_PLLSAI1_Config+0xb2>
 8004dbe:	2301      	movs	r3, #1
 8004dc0:	73fb      	strb	r3, [r7, #15]
 8004dc2:	e006      	b.n	8004dd2 <RCCEx_PLLSAI1_Config+0xb2>
 8004dc4:	2301      	movs	r3, #1
 8004dc6:	73fb      	strb	r3, [r7, #15]
 8004dc8:	e004      	b.n	8004dd4 <RCCEx_PLLSAI1_Config+0xb4>
 8004dca:	bf00      	nop
 8004dcc:	e002      	b.n	8004dd4 <RCCEx_PLLSAI1_Config+0xb4>
 8004dce:	bf00      	nop
 8004dd0:	e000      	b.n	8004dd4 <RCCEx_PLLSAI1_Config+0xb4>
 8004dd2:	bf00      	nop
 8004dd4:	7bfb      	ldrb	r3, [r7, #15]
 8004dd6:	2b00      	cmp	r3, #0
 8004dd8:	d10d      	bne.n	8004df6 <RCCEx_PLLSAI1_Config+0xd6>
 8004dda:	4b4a      	ldr	r3, [pc, #296]	@ (8004f04 <RCCEx_PLLSAI1_Config+0x1e4>)
 8004ddc:	68db      	ldr	r3, [r3, #12]
 8004dde:	f023 0273 	bic.w	r2, r3, #115	@ 0x73
 8004de2:	687b      	ldr	r3, [r7, #4]
 8004de4:	6819      	ldr	r1, [r3, #0]
 8004de6:	687b      	ldr	r3, [r7, #4]
 8004de8:	685b      	ldr	r3, [r3, #4]
 8004dea:	3b01      	subs	r3, #1
 8004dec:	011b      	lsls	r3, r3, #4
 8004dee:	430b      	orrs	r3, r1
 8004df0:	4944      	ldr	r1, [pc, #272]	@ (8004f04 <RCCEx_PLLSAI1_Config+0x1e4>)
 8004df2:	4313      	orrs	r3, r2
 8004df4:	60cb      	str	r3, [r1, #12]
 8004df6:	7bfb      	ldrb	r3, [r7, #15]
 8004df8:	2b00      	cmp	r3, #0
 8004dfa:	d17d      	bne.n	8004ef8 <RCCEx_PLLSAI1_Config+0x1d8>
 8004dfc:	4b41      	ldr	r3, [pc, #260]	@ (8004f04 <RCCEx_PLLSAI1_Config+0x1e4>)
 8004dfe:	681b      	ldr	r3, [r3, #0]
 8004e00:	4a40      	ldr	r2, [pc, #256]	@ (8004f04 <RCCEx_PLLSAI1_Config+0x1e4>)
 8004e02:	f023 6380 	bic.w	r3, r3, #67108864	@ 0x4000000
 8004e06:	6013      	str	r3, [r2, #0]
 8004e08:	f7fd f8c2 	bl	8001f90 <HAL_GetTick>
 8004e0c:	60b8      	str	r0, [r7, #8]
 8004e0e:	e009      	b.n	8004e24 <RCCEx_PLLSAI1_Config+0x104>
 8004e10:	f7fd f8be 	bl	8001f90 <HAL_GetTick>
 8004e14:	4602      	mov	r2, r0
 8004e16:	68bb      	ldr	r3, [r7, #8]
 8004e18:	1ad3      	subs	r3, r2, r3
 8004e1a:	2b02      	cmp	r3, #2
 8004e1c:	d902      	bls.n	8004e24 <RCCEx_PLLSAI1_Config+0x104>
 8004e1e:	2303      	movs	r3, #3
 8004e20:	73fb      	strb	r3, [r7, #15]
 8004e22:	e005      	b.n	8004e30 <RCCEx_PLLSAI1_Config+0x110>
 8004e24:	4b37      	ldr	r3, [pc, #220]	@ (8004f04 <RCCEx_PLLSAI1_Config+0x1e4>)
 8004e26:	681b      	ldr	r3, [r3, #0]
 8004e28:	f003 6300 	and.w	r3, r3, #134217728	@ 0x8000000
 8004e2c:	2b00      	cmp	r3, #0
 8004e2e:	d1ef      	bne.n	8004e10 <RCCEx_PLLSAI1_Config+0xf0>
 8004e30:	7bfb      	ldrb	r3, [r7, #15]
 8004e32:	2b00      	cmp	r3, #0
 8004e34:	d160      	bne.n	8004ef8 <RCCEx_PLLSAI1_Config+0x1d8>
 8004e36:	683b      	ldr	r3, [r7, #0]
 8004e38:	2b00      	cmp	r3, #0
 8004e3a:	d111      	bne.n	8004e60 <RCCEx_PLLSAI1_Config+0x140>
 8004e3c:	4b31      	ldr	r3, [pc, #196]	@ (8004f04 <RCCEx_PLLSAI1_Config+0x1e4>)
 8004e3e:	691b      	ldr	r3, [r3, #16]
 8004e40:	f423 331f 	bic.w	r3, r3, #162816	@ 0x27c00
 8004e44:	f423 7340 	bic.w	r3, r3, #768	@ 0x300
 8004e48:	687a      	ldr	r2, [r7, #4]
 8004e4a:	6892      	ldr	r2, [r2, #8]
 8004e4c:	0211      	lsls	r1, r2, #8
 8004e4e:	687a      	ldr	r2, [r7, #4]
 8004e50:	68d2      	ldr	r2, [r2, #12]
 8004e52:	0912      	lsrs	r2, r2, #4
 8004e54:	0452      	lsls	r2, r2, #17
 8004e56:	430a      	orrs	r2, r1
 8004e58:	492a      	ldr	r1, [pc, #168]	@ (8004f04 <RCCEx_PLLSAI1_Config+0x1e4>)
 8004e5a:	4313      	orrs	r3, r2
 8004e5c:	610b      	str	r3, [r1, #16]
 8004e5e:	e027      	b.n	8004eb0 <RCCEx_PLLSAI1_Config+0x190>
 8004e60:	683b      	ldr	r3, [r7, #0]
 8004e62:	2b01      	cmp	r3, #1
 8004e64:	d112      	bne.n	8004e8c <RCCEx_PLLSAI1_Config+0x16c>
 8004e66:	4b27      	ldr	r3, [pc, #156]	@ (8004f04 <RCCEx_PLLSAI1_Config+0x1e4>)
 8004e68:	691b      	ldr	r3, [r3, #16]
 8004e6a:	f423 03c0 	bic.w	r3, r3, #6291456	@ 0x600000
 8004e6e:	f423 43fe 	bic.w	r3, r3, #32512	@ 0x7f00
 8004e72:	687a      	ldr	r2, [r7, #4]
 8004e74:	6892      	ldr	r2, [r2, #8]
 8004e76:	0211      	lsls	r1, r2, #8
 8004e78:	687a      	ldr	r2, [r7, #4]
 8004e7a:	6912      	ldr	r2, [r2, #16]
 8004e7c:	0852      	lsrs	r2, r2, #1
 8004e7e:	3a01      	subs	r2, #1
 8004e80:	0552      	lsls	r2, r2, #21
 8004e82:	430a      	orrs	r2, r1
 8004e84:	491f      	ldr	r1, [pc, #124]	@ (8004f04 <RCCEx_PLLSAI1_Config+0x1e4>)
 8004e86:	4313      	orrs	r3, r2
 8004e88:	610b      	str	r3, [r1, #16]
 8004e8a:	e011      	b.n	8004eb0 <RCCEx_PLLSAI1_Config+0x190>
 8004e8c:	4b1d      	ldr	r3, [pc, #116]	@ (8004f04 <RCCEx_PLLSAI1_Config+0x1e4>)
 8004e8e:	691b      	ldr	r3, [r3, #16]
 8004e90:	f023 63c0 	bic.w	r3, r3, #100663296	@ 0x6000000
 8004e94:	f423 43fe 	bic.w	r3, r3, #32512	@ 0x7f00
 8004e98:	687a      	ldr	r2, [r7, #4]
 8004e9a:	6892      	ldr	r2, [r2, #8]
 8004e9c:	0211      	lsls	r1, r2, #8
 8004e9e:	687a      	ldr	r2, [r7, #4]
 8004ea0:	6952      	ldr	r2, [r2, #20]
 8004ea2:	0852      	lsrs	r2, r2, #1
 8004ea4:	3a01      	subs	r2, #1
 8004ea6:	0652      	lsls	r2, r2, #25
 8004ea8:	430a      	orrs	r2, r1
 8004eaa:	4916      	ldr	r1, [pc, #88]	@ (8004f04 <RCCEx_PLLSAI1_Config+0x1e4>)
 8004eac:	4313      	orrs	r3, r2
 8004eae:	610b      	str	r3, [r1, #16]
 8004eb0:	4b14      	ldr	r3, [pc, #80]	@ (8004f04 <RCCEx_PLLSAI1_Config+0x1e4>)
 8004eb2:	681b      	ldr	r3, [r3, #0]
 8004eb4:	4a13      	ldr	r2, [pc, #76]	@ (8004f04 <RCCEx_PLLSAI1_Config+0x1e4>)
 8004eb6:	f043 6380 	orr.w	r3, r3, #67108864	@ 0x4000000
 8004eba:	6013      	str	r3, [r2, #0]
 8004ebc:	f7fd f868 	bl	8001f90 <HAL_GetTick>
 8004ec0:	60b8      	str	r0, [r7, #8]
 8004ec2:	e009      	b.n	8004ed8 <RCCEx_PLLSAI1_Config+0x1b8>
 8004ec4:	f7fd f864 	bl	8001f90 <HAL_GetTick>
 8004ec8:	4602      	mov	r2, r0
 8004eca:	68bb      	ldr	r3, [r7, #8]
 8004ecc:	1ad3      	subs	r3, r2, r3
 8004ece:	2b02      	cmp	r3, #2
 8004ed0:	d902      	bls.n	8004ed8 <RCCEx_PLLSAI1_Config+0x1b8>
 8004ed2:	2303      	movs	r3, #3
 8004ed4:	73fb      	strb	r3, [r7, #15]
 8004ed6:	e005      	b.n	8004ee4 <RCCEx_PLLSAI1_Config+0x1c4>
 8004ed8:	4b0a      	ldr	r3, [pc, #40]	@ (8004f04 <RCCEx_PLLSAI1_Config+0x1e4>)
 8004eda:	681b      	ldr	r3, [r3, #0]
 8004edc:	f003 6300 	and.w	r3, r3, #134217728	@ 0x8000000
 8004ee0:	2b00      	cmp	r3, #0
 8004ee2:	d0ef      	beq.n	8004ec4 <RCCEx_PLLSAI1_Config+0x1a4>
 8004ee4:	7bfb      	ldrb	r3, [r7, #15]
 8004ee6:	2b00      	cmp	r3, #0
 8004ee8:	d106      	bne.n	8004ef8 <RCCEx_PLLSAI1_Config+0x1d8>
 8004eea:	4b06      	ldr	r3, [pc, #24]	@ (8004f04 <RCCEx_PLLSAI1_Config+0x1e4>)
 8004eec:	691a      	ldr	r2, [r3, #16]
 8004eee:	687b      	ldr	r3, [r7, #4]
 8004ef0:	699b      	ldr	r3, [r3, #24]
 8004ef2:	4904      	ldr	r1, [pc, #16]	@ (8004f04 <RCCEx_PLLSAI1_Config+0x1e4>)
 8004ef4:	4313      	orrs	r3, r2
 8004ef6:	610b      	str	r3, [r1, #16]
 8004ef8:	7bfb      	ldrb	r3, [r7, #15]
 8004efa:	4618      	mov	r0, r3
 8004efc:	3710      	adds	r7, #16
 8004efe:	46bd      	mov	sp, r7
 8004f00:	bd80      	pop	{r7, pc}
 8004f02:	bf00      	nop
 8004f04:	40021000 	.word	0x40021000

08004f08 <RCCEx_PLLSAI2_Config>:
 8004f08:	b580      	push	{r7, lr}
 8004f0a:	b084      	sub	sp, #16
 8004f0c:	af00      	add	r7, sp, #0
 8004f0e:	6078      	str	r0, [r7, #4]
 8004f10:	6039      	str	r1, [r7, #0]
 8004f12:	2300      	movs	r3, #0
 8004f14:	73fb      	strb	r3, [r7, #15]
 8004f16:	4b6a      	ldr	r3, [pc, #424]	@ (80050c0 <RCCEx_PLLSAI2_Config+0x1b8>)
 8004f18:	68db      	ldr	r3, [r3, #12]
 8004f1a:	f003 0303 	and.w	r3, r3, #3
 8004f1e:	2b00      	cmp	r3, #0
 8004f20:	d018      	beq.n	8004f54 <RCCEx_PLLSAI2_Config+0x4c>
 8004f22:	4b67      	ldr	r3, [pc, #412]	@ (80050c0 <RCCEx_PLLSAI2_Config+0x1b8>)
 8004f24:	68db      	ldr	r3, [r3, #12]
 8004f26:	f003 0203 	and.w	r2, r3, #3
 8004f2a:	687b      	ldr	r3, [r7, #4]
 8004f2c:	681b      	ldr	r3, [r3, #0]
 8004f2e:	429a      	cmp	r2, r3
 8004f30:	d10d      	bne.n	8004f4e <RCCEx_PLLSAI2_Config+0x46>
 8004f32:	687b      	ldr	r3, [r7, #4]
 8004f34:	681b      	ldr	r3, [r3, #0]
 8004f36:	2b00      	cmp	r3, #0
 8004f38:	d009      	beq.n	8004f4e <RCCEx_PLLSAI2_Config+0x46>
 8004f3a:	4b61      	ldr	r3, [pc, #388]	@ (80050c0 <RCCEx_PLLSAI2_Config+0x1b8>)
 8004f3c:	68db      	ldr	r3, [r3, #12]
 8004f3e:	091b      	lsrs	r3, r3, #4
 8004f40:	f003 0307 	and.w	r3, r3, #7
 8004f44:	1c5a      	adds	r2, r3, #1
 8004f46:	687b      	ldr	r3, [r7, #4]
 8004f48:	685b      	ldr	r3, [r3, #4]
 8004f4a:	429a      	cmp	r2, r3
 8004f4c:	d047      	beq.n	8004fde <RCCEx_PLLSAI2_Config+0xd6>
 8004f4e:	2301      	movs	r3, #1
 8004f50:	73fb      	strb	r3, [r7, #15]
 8004f52:	e044      	b.n	8004fde <RCCEx_PLLSAI2_Config+0xd6>
 8004f54:	687b      	ldr	r3, [r7, #4]
 8004f56:	681b      	ldr	r3, [r3, #0]
 8004f58:	2b03      	cmp	r3, #3
 8004f5a:	d018      	beq.n	8004f8e <RCCEx_PLLSAI2_Config+0x86>
 8004f5c:	2b03      	cmp	r3, #3
 8004f5e:	d825      	bhi.n	8004fac <RCCEx_PLLSAI2_Config+0xa4>
 8004f60:	2b01      	cmp	r3, #1
 8004f62:	d002      	beq.n	8004f6a <RCCEx_PLLSAI2_Config+0x62>
 8004f64:	2b02      	cmp	r3, #2
 8004f66:	d009      	beq.n	8004f7c <RCCEx_PLLSAI2_Config+0x74>
 8004f68:	e020      	b.n	8004fac <RCCEx_PLLSAI2_Config+0xa4>
 8004f6a:	4b55      	ldr	r3, [pc, #340]	@ (80050c0 <RCCEx_PLLSAI2_Config+0x1b8>)
 8004f6c:	681b      	ldr	r3, [r3, #0]
 8004f6e:	f003 0302 	and.w	r3, r3, #2
 8004f72:	2b00      	cmp	r3, #0
 8004f74:	d11d      	bne.n	8004fb2 <RCCEx_PLLSAI2_Config+0xaa>
 8004f76:	2301      	movs	r3, #1
 8004f78:	73fb      	strb	r3, [r7, #15]
 8004f7a:	e01a      	b.n	8004fb2 <RCCEx_PLLSAI2_Config+0xaa>
 8004f7c:	4b50      	ldr	r3, [pc, #320]	@ (80050c0 <RCCEx_PLLSAI2_Config+0x1b8>)
 8004f7e:	681b      	ldr	r3, [r3, #0]
 8004f80:	f403 6380 	and.w	r3, r3, #1024	@ 0x400
 8004f84:	2b00      	cmp	r3, #0
 8004f86:	d116      	bne.n	8004fb6 <RCCEx_PLLSAI2_Config+0xae>
 8004f88:	2301      	movs	r3, #1
 8004f8a:	73fb      	strb	r3, [r7, #15]
 8004f8c:	e013      	b.n	8004fb6 <RCCEx_PLLSAI2_Config+0xae>
 8004f8e:	4b4c      	ldr	r3, [pc, #304]	@ (80050c0 <RCCEx_PLLSAI2_Config+0x1b8>)
 8004f90:	681b      	ldr	r3, [r3, #0]
 8004f92:	f403 3300 	and.w	r3, r3, #131072	@ 0x20000
 8004f96:	2b00      	cmp	r3, #0
 8004f98:	d10f      	bne.n	8004fba <RCCEx_PLLSAI2_Config+0xb2>
 8004f9a:	4b49      	ldr	r3, [pc, #292]	@ (80050c0 <RCCEx_PLLSAI2_Config+0x1b8>)
 8004f9c:	681b      	ldr	r3, [r3, #0]
 8004f9e:	f403 2380 	and.w	r3, r3, #262144	@ 0x40000
 8004fa2:	2b00      	cmp	r3, #0
 8004fa4:	d109      	bne.n	8004fba <RCCEx_PLLSAI2_Config+0xb2>
 8004fa6:	2301      	movs	r3, #1
 8004fa8:	73fb      	strb	r3, [r7, #15]
 8004faa:	e006      	b.n	8004fba <RCCEx_PLLSAI2_Config+0xb2>
 8004fac:	2301      	movs	r3, #1
 8004fae:	73fb      	strb	r3, [r7, #15]
 8004fb0:	e004      	b.n	8004fbc <RCCEx_PLLSAI2_Config+0xb4>
 8004fb2:	bf00      	nop
 8004fb4:	e002      	b.n	8004fbc <RCCEx_PLLSAI2_Config+0xb4>
 8004fb6:	bf00      	nop
 8004fb8:	e000      	b.n	8004fbc <RCCEx_PLLSAI2_Config+0xb4>
 8004fba:	bf00      	nop
 8004fbc:	7bfb      	ldrb	r3, [r7, #15]
 8004fbe:	2b00      	cmp	r3, #0
 8004fc0:	d10d      	bne.n	8004fde <RCCEx_PLLSAI2_Config+0xd6>
 8004fc2:	4b3f      	ldr	r3, [pc, #252]	@ (80050c0 <RCCEx_PLLSAI2_Config+0x1b8>)
 8004fc4:	68db      	ldr	r3, [r3, #12]
 8004fc6:	f023 0273 	bic.w	r2, r3, #115	@ 0x73
 8004fca:	687b      	ldr	r3, [r7, #4]
 8004fcc:	6819      	ldr	r1, [r3, #0]
 8004fce:	687b      	ldr	r3, [r7, #4]
 8004fd0:	685b      	ldr	r3, [r3, #4]
 8004fd2:	3b01      	subs	r3, #1
 8004fd4:	011b      	lsls	r3, r3, #4
 8004fd6:	430b      	orrs	r3, r1
 8004fd8:	4939      	ldr	r1, [pc, #228]	@ (80050c0 <RCCEx_PLLSAI2_Config+0x1b8>)
 8004fda:	4313      	orrs	r3, r2
 8004fdc:	60cb      	str	r3, [r1, #12]
 8004fde:	7bfb      	ldrb	r3, [r7, #15]
 8004fe0:	2b00      	cmp	r3, #0
 8004fe2:	d167      	bne.n	80050b4 <RCCEx_PLLSAI2_Config+0x1ac>
 8004fe4:	4b36      	ldr	r3, [pc, #216]	@ (80050c0 <RCCEx_PLLSAI2_Config+0x1b8>)
 8004fe6:	681b      	ldr	r3, [r3, #0]
 8004fe8:	4a35      	ldr	r2, [pc, #212]	@ (80050c0 <RCCEx_PLLSAI2_Config+0x1b8>)
 8004fea:	f023 5380 	bic.w	r3, r3, #268435456	@ 0x10000000
 8004fee:	6013      	str	r3, [r2, #0]
 8004ff0:	f7fc ffce 	bl	8001f90 <HAL_GetTick>
 8004ff4:	60b8      	str	r0, [r7, #8]
 8004ff6:	e009      	b.n	800500c <RCCEx_PLLSAI2_Config+0x104>
 8004ff8:	f7fc ffca 	bl	8001f90 <HAL_GetTick>
 8004ffc:	4602      	mov	r2, r0
 8004ffe:	68bb      	ldr	r3, [r7, #8]
 8005000:	1ad3      	subs	r3, r2, r3
 8005002:	2b02      	cmp	r3, #2
 8005004:	d902      	bls.n	800500c <RCCEx_PLLSAI2_Config+0x104>
 8005006:	2303      	movs	r3, #3
 8005008:	73fb      	strb	r3, [r7, #15]
 800500a:	e005      	b.n	8005018 <RCCEx_PLLSAI2_Config+0x110>
 800500c:	4b2c      	ldr	r3, [pc, #176]	@ (80050c0 <RCCEx_PLLSAI2_Config+0x1b8>)
 800500e:	681b      	ldr	r3, [r3, #0]
 8005010:	f003 5300 	and.w	r3, r3, #536870912	@ 0x20000000
 8005014:	2b00      	cmp	r3, #0
 8005016:	d1ef      	bne.n	8004ff8 <RCCEx_PLLSAI2_Config+0xf0>
 8005018:	7bfb      	ldrb	r3, [r7, #15]
 800501a:	2b00      	cmp	r3, #0
 800501c:	d14a      	bne.n	80050b4 <RCCEx_PLLSAI2_Config+0x1ac>
 800501e:	683b      	ldr	r3, [r7, #0]
 8005020:	2b00      	cmp	r3, #0
 8005022:	d111      	bne.n	8005048 <RCCEx_PLLSAI2_Config+0x140>
 8005024:	4b26      	ldr	r3, [pc, #152]	@ (80050c0 <RCCEx_PLLSAI2_Config+0x1b8>)
 8005026:	695b      	ldr	r3, [r3, #20]
 8005028:	f423 331f 	bic.w	r3, r3, #162816	@ 0x27c00
 800502c:	f423 7340 	bic.w	r3, r3, #768	@ 0x300
 8005030:	687a      	ldr	r2, [r7, #4]
 8005032:	6892      	ldr	r2, [r2, #8]
 8005034:	0211      	lsls	r1, r2, #8
 8005036:	687a      	ldr	r2, [r7, #4]
 8005038:	68d2      	ldr	r2, [r2, #12]
 800503a:	0912      	lsrs	r2, r2, #4
 800503c:	0452      	lsls	r2, r2, #17
 800503e:	430a      	orrs	r2, r1
 8005040:	491f      	ldr	r1, [pc, #124]	@ (80050c0 <RCCEx_PLLSAI2_Config+0x1b8>)
 8005042:	4313      	orrs	r3, r2
 8005044:	614b      	str	r3, [r1, #20]
 8005046:	e011      	b.n	800506c <RCCEx_PLLSAI2_Config+0x164>
 8005048:	4b1d      	ldr	r3, [pc, #116]	@ (80050c0 <RCCEx_PLLSAI2_Config+0x1b8>)
 800504a:	695b      	ldr	r3, [r3, #20]
 800504c:	f023 63c0 	bic.w	r3, r3, #100663296	@ 0x6000000
 8005050:	f423 43fe 	bic.w	r3, r3, #32512	@ 0x7f00
 8005054:	687a      	ldr	r2, [r7, #4]
 8005056:	6892      	ldr	r2, [r2, #8]
 8005058:	0211      	lsls	r1, r2, #8
 800505a:	687a      	ldr	r2, [r7, #4]
 800505c:	6912      	ldr	r2, [r2, #16]
 800505e:	0852      	lsrs	r2, r2, #1
 8005060:	3a01      	subs	r2, #1
 8005062:	0652      	lsls	r2, r2, #25
 8005064:	430a      	orrs	r2, r1
 8005066:	4916      	ldr	r1, [pc, #88]	@ (80050c0 <RCCEx_PLLSAI2_Config+0x1b8>)
 8005068:	4313      	orrs	r3, r2
 800506a:	614b      	str	r3, [r1, #20]
 800506c:	4b14      	ldr	r3, [pc, #80]	@ (80050c0 <RCCEx_PLLSAI2_Config+0x1b8>)
 800506e:	681b      	ldr	r3, [r3, #0]
 8005070:	4a13      	ldr	r2, [pc, #76]	@ (80050c0 <RCCEx_PLLSAI2_Config+0x1b8>)
 8005072:	f043 5380 	orr.w	r3, r3, #268435456	@ 0x10000000
 8005076:	6013      	str	r3, [r2, #0]
 8005078:	f7fc ff8a 	bl	8001f90 <HAL_GetTick>
 800507c:	60b8      	str	r0, [r7, #8]
 800507e:	e009      	b.n	8005094 <RCCEx_PLLSAI2_Config+0x18c>
 8005080:	f7fc ff86 	bl	8001f90 <HAL_GetTick>
 8005084:	4602      	mov	r2, r0
 8005086:	68bb      	ldr	r3, [r7, #8]
 8005088:	1ad3      	subs	r3, r2, r3
 800508a:	2b02      	cmp	r3, #2
 800508c:	d902      	bls.n	8005094 <RCCEx_PLLSAI2_Config+0x18c>
 800508e:	2303      	movs	r3, #3
 8005090:	73fb      	strb	r3, [r7, #15]
 8005092:	e005      	b.n	80050a0 <RCCEx_PLLSAI2_Config+0x198>
 8005094:	4b0a      	ldr	r3, [pc, #40]	@ (80050c0 <RCCEx_PLLSAI2_Config+0x1b8>)
 8005096:	681b      	ldr	r3, [r3, #0]
 8005098:	f003 5300 	and.w	r3, r3, #536870912	@ 0x20000000
 800509c:	2b00      	cmp	r3, #0
 800509e:	d0ef      	beq.n	8005080 <RCCEx_PLLSAI2_Config+0x178>
 80050a0:	7bfb      	ldrb	r3, [r7, #15]
 80050a2:	2b00      	cmp	r3, #0
 80050a4:	d106      	bne.n	80050b4 <RCCEx_PLLSAI2_Config+0x1ac>
 80050a6:	4b06      	ldr	r3, [pc, #24]	@ (80050c0 <RCCEx_PLLSAI2_Config+0x1b8>)
 80050a8:	695a      	ldr	r2, [r3, #20]
 80050aa:	687b      	ldr	r3, [r7, #4]
 80050ac:	695b      	ldr	r3, [r3, #20]
 80050ae:	4904      	ldr	r1, [pc, #16]	@ (80050c0 <RCCEx_PLLSAI2_Config+0x1b8>)
 80050b0:	4313      	orrs	r3, r2
 80050b2:	614b      	str	r3, [r1, #20]
 80050b4:	7bfb      	ldrb	r3, [r7, #15]
 80050b6:	4618      	mov	r0, r3
 80050b8:	3710      	adds	r7, #16
 80050ba:	46bd      	mov	sp, r7
 80050bc:	bd80      	pop	{r7, pc}
 80050be:	bf00      	nop
 80050c0:	40021000 	.word	0x40021000

080050c4 <HAL_SPI_Init>:
 80050c4:	b580      	push	{r7, lr}
 80050c6:	b084      	sub	sp, #16
 80050c8:	af00      	add	r7, sp, #0
 80050ca:	6078      	str	r0, [r7, #4]
 80050cc:	687b      	ldr	r3, [r7, #4]
 80050ce:	2b00      	cmp	r3, #0
 80050d0:	d101      	bne.n	80050d6 <HAL_SPI_Init+0x12>
 80050d2:	2301      	movs	r3, #1
 80050d4:	e095      	b.n	8005202 <HAL_SPI_Init+0x13e>
 80050d6:	687b      	ldr	r3, [r7, #4]
 80050d8:	6a5b      	ldr	r3, [r3, #36]	@ 0x24
 80050da:	2b00      	cmp	r3, #0
 80050dc:	d108      	bne.n	80050f0 <HAL_SPI_Init+0x2c>
 80050de:	687b      	ldr	r3, [r7, #4]
 80050e0:	685b      	ldr	r3, [r3, #4]
 80050e2:	f5b3 7f82 	cmp.w	r3, #260	@ 0x104
 80050e6:	d009      	beq.n	80050fc <HAL_SPI_Init+0x38>
 80050e8:	687b      	ldr	r3, [r7, #4]
 80050ea:	2200      	movs	r2, #0
 80050ec:	61da      	str	r2, [r3, #28]
 80050ee:	e005      	b.n	80050fc <HAL_SPI_Init+0x38>
 80050f0:	687b      	ldr	r3, [r7, #4]
 80050f2:	2200      	movs	r2, #0
 80050f4:	611a      	str	r2, [r3, #16]
 80050f6:	687b      	ldr	r3, [r7, #4]
 80050f8:	2200      	movs	r2, #0
 80050fa:	615a      	str	r2, [r3, #20]
 80050fc:	687b      	ldr	r3, [r7, #4]
 80050fe:	2200      	movs	r2, #0
 8005100:	629a      	str	r2, [r3, #40]	@ 0x28
 8005102:	687b      	ldr	r3, [r7, #4]
 8005104:	f893 305d 	ldrb.w	r3, [r3, #93]	@ 0x5d
 8005108:	b2db      	uxtb	r3, r3
 800510a:	2b00      	cmp	r3, #0
 800510c:	d106      	bne.n	800511c <HAL_SPI_Init+0x58>
 800510e:	687b      	ldr	r3, [r7, #4]
 8005110:	2200      	movs	r2, #0
 8005112:	f883 205c 	strb.w	r2, [r3, #92]	@ 0x5c
 8005116:	6878      	ldr	r0, [r7, #4]
 8005118:	f7fc fafa 	bl	8001710 <HAL_SPI_MspInit>
 800511c:	687b      	ldr	r3, [r7, #4]
 800511e:	2202      	movs	r2, #2
 8005120:	f883 205d 	strb.w	r2, [r3, #93]	@ 0x5d
 8005124:	687b      	ldr	r3, [r7, #4]
 8005126:	681b      	ldr	r3, [r3, #0]
 8005128:	681a      	ldr	r2, [r3, #0]
 800512a:	687b      	ldr	r3, [r7, #4]
 800512c:	681b      	ldr	r3, [r3, #0]
 800512e:	f022 0240 	bic.w	r2, r2, #64	@ 0x40
 8005132:	601a      	str	r2, [r3, #0]
 8005134:	687b      	ldr	r3, [r7, #4]
 8005136:	68db      	ldr	r3, [r3, #12]
 8005138:	f5b3 6fe0 	cmp.w	r3, #1792	@ 0x700
 800513c:	d902      	bls.n	8005144 <HAL_SPI_Init+0x80>
 800513e:	2300      	movs	r3, #0
 8005140:	60fb      	str	r3, [r7, #12]
 8005142:	e002      	b.n	800514a <HAL_SPI_Init+0x86>
 8005144:	f44f 5380 	mov.w	r3, #4096	@ 0x1000
 8005148:	60fb      	str	r3, [r7, #12]
 800514a:	687b      	ldr	r3, [r7, #4]
 800514c:	68db      	ldr	r3, [r3, #12]
 800514e:	f5b3 6f70 	cmp.w	r3, #3840	@ 0xf00
 8005152:	d007      	beq.n	8005164 <HAL_SPI_Init+0xa0>
 8005154:	687b      	ldr	r3, [r7, #4]
 8005156:	68db      	ldr	r3, [r3, #12]
 8005158:	f5b3 6fe0 	cmp.w	r3, #1792	@ 0x700
 800515c:	d002      	beq.n	8005164 <HAL_SPI_Init+0xa0>
 800515e:	687b      	ldr	r3, [r7, #4]
 8005160:	2200      	movs	r2, #0
 8005162:	629a      	str	r2, [r3, #40]	@ 0x28
 8005164:	687b      	ldr	r3, [r7, #4]
 8005166:	685b      	ldr	r3, [r3, #4]
 8005168:	f403 7282 	and.w	r2, r3, #260	@ 0x104
 800516c:	687b      	ldr	r3, [r7, #4]
 800516e:	689b      	ldr	r3, [r3, #8]
 8005170:	f403 4304 	and.w	r3, r3, #33792	@ 0x8400
 8005174:	431a      	orrs	r2, r3
 8005176:	687b      	ldr	r3, [r7, #4]
 8005178:	691b      	ldr	r3, [r3, #16]
 800517a:	f003 0302 	and.w	r3, r3, #2
 800517e:	431a      	orrs	r2, r3
 8005180:	687b      	ldr	r3, [r7, #4]
 8005182:	695b      	ldr	r3, [r3, #20]
 8005184:	f003 0301 	and.w	r3, r3, #1
 8005188:	431a      	orrs	r2, r3
 800518a:	687b      	ldr	r3, [r7, #4]
 800518c:	699b      	ldr	r3, [r3, #24]
 800518e:	f403 7300 	and.w	r3, r3, #512	@ 0x200
 8005192:	431a      	orrs	r2, r3
 8005194:	687b      	ldr	r3, [r7, #4]
 8005196:	69db      	ldr	r3, [r3, #28]
 8005198:	f003 0338 	and.w	r3, r3, #56	@ 0x38
 800519c:	431a      	orrs	r2, r3
 800519e:	687b      	ldr	r3, [r7, #4]
 80051a0:	6a1b      	ldr	r3, [r3, #32]
 80051a2:	f003 0380 	and.w	r3, r3, #128	@ 0x80
 80051a6:	ea42 0103 	orr.w	r1, r2, r3
 80051aa:	687b      	ldr	r3, [r7, #4]
 80051ac:	6a9b      	ldr	r3, [r3, #40]	@ 0x28
 80051ae:	f403 5200 	and.w	r2, r3, #8192	@ 0x2000
 80051b2:	687b      	ldr	r3, [r7, #4]
 80051b4:	681b      	ldr	r3, [r3, #0]
 80051b6:	430a      	orrs	r2, r1
 80051b8:	601a      	str	r2, [r3, #0]
 80051ba:	687b      	ldr	r3, [r7, #4]
 80051bc:	699b      	ldr	r3, [r3, #24]
 80051be:	0c1b      	lsrs	r3, r3, #16
 80051c0:	f003 0204 	and.w	r2, r3, #4
 80051c4:	687b      	ldr	r3, [r7, #4]
 80051c6:	6a5b      	ldr	r3, [r3, #36]	@ 0x24
 80051c8:	f003 0310 	and.w	r3, r3, #16
 80051cc:	431a      	orrs	r2, r3
 80051ce:	687b      	ldr	r3, [r7, #4]
 80051d0:	6b5b      	ldr	r3, [r3, #52]	@ 0x34
 80051d2:	f003 0308 	and.w	r3, r3, #8
 80051d6:	431a      	orrs	r2, r3
 80051d8:	687b      	ldr	r3, [r7, #4]
 80051da:	68db      	ldr	r3, [r3, #12]
 80051dc:	f403 6370 	and.w	r3, r3, #3840	@ 0xf00
 80051e0:	ea42 0103 	orr.w	r1, r2, r3
 80051e4:	68fb      	ldr	r3, [r7, #12]
 80051e6:	f403 5280 	and.w	r2, r3, #4096	@ 0x1000
 80051ea:	687b      	ldr	r3, [r7, #4]
 80051ec:	681b      	ldr	r3, [r3, #0]
 80051ee:	430a      	orrs	r2, r1
 80051f0:	605a      	str	r2, [r3, #4]
 80051f2:	687b      	ldr	r3, [r7, #4]
 80051f4:	2200      	movs	r2, #0
 80051f6:	661a      	str	r2, [r3, #96]	@ 0x60
 80051f8:	687b      	ldr	r3, [r7, #4]
 80051fa:	2201      	movs	r2, #1
 80051fc:	f883 205d 	strb.w	r2, [r3, #93]	@ 0x5d
 8005200:	2300      	movs	r3, #0
 8005202:	4618      	mov	r0, r3
 8005204:	3710      	adds	r7, #16
 8005206:	46bd      	mov	sp, r7
 8005208:	bd80      	pop	{r7, pc}
	...

0800520c <HAL_SPI_IRQHandler>:
 800520c:	b580      	push	{r7, lr}
 800520e:	b088      	sub	sp, #32
 8005210:	af00      	add	r7, sp, #0
 8005212:	6078      	str	r0, [r7, #4]
 8005214:	687b      	ldr	r3, [r7, #4]
 8005216:	681b      	ldr	r3, [r3, #0]
 8005218:	685b      	ldr	r3, [r3, #4]
 800521a:	61fb      	str	r3, [r7, #28]
 800521c:	687b      	ldr	r3, [r7, #4]
 800521e:	681b      	ldr	r3, [r3, #0]
 8005220:	689b      	ldr	r3, [r3, #8]
 8005222:	61bb      	str	r3, [r7, #24]
 8005224:	69bb      	ldr	r3, [r7, #24]
 8005226:	f003 0340 	and.w	r3, r3, #64	@ 0x40
 800522a:	2b00      	cmp	r3, #0
 800522c:	d10e      	bne.n	800524c <HAL_SPI_IRQHandler+0x40>
 800522e:	69bb      	ldr	r3, [r7, #24]
 8005230:	f003 0301 	and.w	r3, r3, #1
 8005234:	2b00      	cmp	r3, #0
 8005236:	d009      	beq.n	800524c <HAL_SPI_IRQHandler+0x40>
 8005238:	69fb      	ldr	r3, [r7, #28]
 800523a:	f003 0340 	and.w	r3, r3, #64	@ 0x40
 800523e:	2b00      	cmp	r3, #0
 8005240:	d004      	beq.n	800524c <HAL_SPI_IRQHandler+0x40>
 8005242:	687b      	ldr	r3, [r7, #4]
 8005244:	6cdb      	ldr	r3, [r3, #76]	@ 0x4c
 8005246:	6878      	ldr	r0, [r7, #4]
 8005248:	4798      	blx	r3
 800524a:	e0ce      	b.n	80053ea <HAL_SPI_IRQHandler+0x1de>
 800524c:	69bb      	ldr	r3, [r7, #24]
 800524e:	f003 0302 	and.w	r3, r3, #2
 8005252:	2b00      	cmp	r3, #0
 8005254:	d009      	beq.n	800526a <HAL_SPI_IRQHandler+0x5e>
 8005256:	69fb      	ldr	r3, [r7, #28]
 8005258:	f003 0380 	and.w	r3, r3, #128	@ 0x80
 800525c:	2b00      	cmp	r3, #0
 800525e:	d004      	beq.n	800526a <HAL_SPI_IRQHandler+0x5e>
 8005260:	687b      	ldr	r3, [r7, #4]
 8005262:	6d1b      	ldr	r3, [r3, #80]	@ 0x50
 8005264:	6878      	ldr	r0, [r7, #4]
 8005266:	4798      	blx	r3
 8005268:	e0bf      	b.n	80053ea <HAL_SPI_IRQHandler+0x1de>
 800526a:	69bb      	ldr	r3, [r7, #24]
 800526c:	f003 0320 	and.w	r3, r3, #32
 8005270:	2b00      	cmp	r3, #0
 8005272:	d10a      	bne.n	800528a <HAL_SPI_IRQHandler+0x7e>
 8005274:	69bb      	ldr	r3, [r7, #24]
 8005276:	f003 0340 	and.w	r3, r3, #64	@ 0x40
 800527a:	2b00      	cmp	r3, #0
 800527c:	d105      	bne.n	800528a <HAL_SPI_IRQHandler+0x7e>
 800527e:	69bb      	ldr	r3, [r7, #24]
 8005280:	f403 7380 	and.w	r3, r3, #256	@ 0x100
 8005284:	2b00      	cmp	r3, #0
 8005286:	f000 80b0 	beq.w	80053ea <HAL_SPI_IRQHandler+0x1de>
 800528a:	69fb      	ldr	r3, [r7, #28]
 800528c:	f003 0320 	and.w	r3, r3, #32
 8005290:	2b00      	cmp	r3, #0
 8005292:	f000 80aa 	beq.w	80053ea <HAL_SPI_IRQHandler+0x1de>
 8005296:	69bb      	ldr	r3, [r7, #24]
 8005298:	f003 0340 	and.w	r3, r3, #64	@ 0x40
 800529c:	2b00      	cmp	r3, #0
 800529e:	d023      	beq.n	80052e8 <HAL_SPI_IRQHandler+0xdc>
 80052a0:	687b      	ldr	r3, [r7, #4]
 80052a2:	f893 305d 	ldrb.w	r3, [r3, #93]	@ 0x5d
 80052a6:	b2db      	uxtb	r3, r3
 80052a8:	2b03      	cmp	r3, #3
 80052aa:	d011      	beq.n	80052d0 <HAL_SPI_IRQHandler+0xc4>
 80052ac:	687b      	ldr	r3, [r7, #4]
 80052ae:	6e1b      	ldr	r3, [r3, #96]	@ 0x60
 80052b0:	f043 0204 	orr.w	r2, r3, #4
 80052b4:	687b      	ldr	r3, [r7, #4]
 80052b6:	661a      	str	r2, [r3, #96]	@ 0x60
 80052b8:	2300      	movs	r3, #0
 80052ba:	617b      	str	r3, [r7, #20]
 80052bc:	687b      	ldr	r3, [r7, #4]
 80052be:	681b      	ldr	r3, [r3, #0]
 80052c0:	68db      	ldr	r3, [r3, #12]
 80052c2:	617b      	str	r3, [r7, #20]
 80052c4:	687b      	ldr	r3, [r7, #4]
 80052c6:	681b      	ldr	r3, [r3, #0]
 80052c8:	689b      	ldr	r3, [r3, #8]
 80052ca:	617b      	str	r3, [r7, #20]
 80052cc:	697b      	ldr	r3, [r7, #20]
 80052ce:	e00b      	b.n	80052e8 <HAL_SPI_IRQHandler+0xdc>
 80052d0:	2300      	movs	r3, #0
 80052d2:	613b      	str	r3, [r7, #16]
 80052d4:	687b      	ldr	r3, [r7, #4]
 80052d6:	681b      	ldr	r3, [r3, #0]
 80052d8:	68db      	ldr	r3, [r3, #12]
 80052da:	613b      	str	r3, [r7, #16]
 80052dc:	687b      	ldr	r3, [r7, #4]
 80052de:	681b      	ldr	r3, [r3, #0]
 80052e0:	689b      	ldr	r3, [r3, #8]
 80052e2:	613b      	str	r3, [r7, #16]
 80052e4:	693b      	ldr	r3, [r7, #16]
 80052e6:	e080      	b.n	80053ea <HAL_SPI_IRQHandler+0x1de>
 80052e8:	69bb      	ldr	r3, [r7, #24]
 80052ea:	f003 0320 	and.w	r3, r3, #32
 80052ee:	2b00      	cmp	r3, #0
 80052f0:	d014      	beq.n	800531c <HAL_SPI_IRQHandler+0x110>
 80052f2:	687b      	ldr	r3, [r7, #4]
 80052f4:	6e1b      	ldr	r3, [r3, #96]	@ 0x60
 80052f6:	f043 0201 	orr.w	r2, r3, #1
 80052fa:	687b      	ldr	r3, [r7, #4]
 80052fc:	661a      	str	r2, [r3, #96]	@ 0x60
 80052fe:	2300      	movs	r3, #0
 8005300:	60fb      	str	r3, [r7, #12]
 8005302:	687b      	ldr	r3, [r7, #4]
 8005304:	681b      	ldr	r3, [r3, #0]
 8005306:	689b      	ldr	r3, [r3, #8]
 8005308:	60fb      	str	r3, [r7, #12]
 800530a:	687b      	ldr	r3, [r7, #4]
 800530c:	681b      	ldr	r3, [r3, #0]
 800530e:	681a      	ldr	r2, [r3, #0]
 8005310:	687b      	ldr	r3, [r7, #4]
 8005312:	681b      	ldr	r3, [r3, #0]
 8005314:	f022 0240 	bic.w	r2, r2, #64	@ 0x40
 8005318:	601a      	str	r2, [r3, #0]
 800531a:	68fb      	ldr	r3, [r7, #12]
 800531c:	69bb      	ldr	r3, [r7, #24]
 800531e:	f403 7380 	and.w	r3, r3, #256	@ 0x100
 8005322:	2b00      	cmp	r3, #0
 8005324:	d00c      	beq.n	8005340 <HAL_SPI_IRQHandler+0x134>
 8005326:	687b      	ldr	r3, [r7, #4]
 8005328:	6e1b      	ldr	r3, [r3, #96]	@ 0x60
 800532a:	f043 0208 	orr.w	r2, r3, #8
 800532e:	687b      	ldr	r3, [r7, #4]
 8005330:	661a      	str	r2, [r3, #96]	@ 0x60
 8005332:	2300      	movs	r3, #0
 8005334:	60bb      	str	r3, [r7, #8]
 8005336:	687b      	ldr	r3, [r7, #4]
 8005338:	681b      	ldr	r3, [r3, #0]
 800533a:	689b      	ldr	r3, [r3, #8]
 800533c:	60bb      	str	r3, [r7, #8]
 800533e:	68bb      	ldr	r3, [r7, #8]
 8005340:	687b      	ldr	r3, [r7, #4]
 8005342:	6e1b      	ldr	r3, [r3, #96]	@ 0x60
 8005344:	2b00      	cmp	r3, #0
 8005346:	d04f      	beq.n	80053e8 <HAL_SPI_IRQHandler+0x1dc>
 8005348:	687b      	ldr	r3, [r7, #4]
 800534a:	681b      	ldr	r3, [r3, #0]
 800534c:	685a      	ldr	r2, [r3, #4]
 800534e:	687b      	ldr	r3, [r7, #4]
 8005350:	681b      	ldr	r3, [r3, #0]
 8005352:	f022 02e0 	bic.w	r2, r2, #224	@ 0xe0
 8005356:	605a      	str	r2, [r3, #4]
 8005358:	687b      	ldr	r3, [r7, #4]
 800535a:	2201      	movs	r2, #1
 800535c:	f883 205d 	strb.w	r2, [r3, #93]	@ 0x5d
 8005360:	69fb      	ldr	r3, [r7, #28]
 8005362:	f003 0302 	and.w	r3, r3, #2
 8005366:	2b00      	cmp	r3, #0
 8005368:	d104      	bne.n	8005374 <HAL_SPI_IRQHandler+0x168>
 800536a:	69fb      	ldr	r3, [r7, #28]
 800536c:	f003 0301 	and.w	r3, r3, #1
 8005370:	2b00      	cmp	r3, #0
 8005372:	d034      	beq.n	80053de <HAL_SPI_IRQHandler+0x1d2>
 8005374:	687b      	ldr	r3, [r7, #4]
 8005376:	681b      	ldr	r3, [r3, #0]
 8005378:	685a      	ldr	r2, [r3, #4]
 800537a:	687b      	ldr	r3, [r7, #4]
 800537c:	681b      	ldr	r3, [r3, #0]
 800537e:	f022 0203 	bic.w	r2, r2, #3
 8005382:	605a      	str	r2, [r3, #4]
 8005384:	687b      	ldr	r3, [r7, #4]
 8005386:	6d9b      	ldr	r3, [r3, #88]	@ 0x58
 8005388:	2b00      	cmp	r3, #0
 800538a:	d011      	beq.n	80053b0 <HAL_SPI_IRQHandler+0x1a4>
 800538c:	687b      	ldr	r3, [r7, #4]
 800538e:	6d9b      	ldr	r3, [r3, #88]	@ 0x58
 8005390:	4a17      	ldr	r2, [pc, #92]	@ (80053f0 <HAL_SPI_IRQHandler+0x1e4>)
 8005392:	639a      	str	r2, [r3, #56]	@ 0x38
 8005394:	687b      	ldr	r3, [r7, #4]
 8005396:	6d9b      	ldr	r3, [r3, #88]	@ 0x58
 8005398:	4618      	mov	r0, r3
 800539a:	f7fe f86e 	bl	800347a <HAL_DMA_Abort_IT>
 800539e:	4603      	mov	r3, r0
 80053a0:	2b00      	cmp	r3, #0
 80053a2:	d005      	beq.n	80053b0 <HAL_SPI_IRQHandler+0x1a4>
 80053a4:	687b      	ldr	r3, [r7, #4]
 80053a6:	6e1b      	ldr	r3, [r3, #96]	@ 0x60
 80053a8:	f043 0240 	orr.w	r2, r3, #64	@ 0x40
 80053ac:	687b      	ldr	r3, [r7, #4]
 80053ae:	661a      	str	r2, [r3, #96]	@ 0x60
 80053b0:	687b      	ldr	r3, [r7, #4]
 80053b2:	6d5b      	ldr	r3, [r3, #84]	@ 0x54
 80053b4:	2b00      	cmp	r3, #0
 80053b6:	d016      	beq.n	80053e6 <HAL_SPI_IRQHandler+0x1da>
 80053b8:	687b      	ldr	r3, [r7, #4]
 80053ba:	6d5b      	ldr	r3, [r3, #84]	@ 0x54
 80053bc:	4a0c      	ldr	r2, [pc, #48]	@ (80053f0 <HAL_SPI_IRQHandler+0x1e4>)
 80053be:	639a      	str	r2, [r3, #56]	@ 0x38
 80053c0:	687b      	ldr	r3, [r7, #4]
 80053c2:	6d5b      	ldr	r3, [r3, #84]	@ 0x54
 80053c4:	4618      	mov	r0, r3
 80053c6:	f7fe f858 	bl	800347a <HAL_DMA_Abort_IT>
 80053ca:	4603      	mov	r3, r0
 80053cc:	2b00      	cmp	r3, #0
 80053ce:	d00a      	beq.n	80053e6 <HAL_SPI_IRQHandler+0x1da>
 80053d0:	687b      	ldr	r3, [r7, #4]
 80053d2:	6e1b      	ldr	r3, [r3, #96]	@ 0x60
 80053d4:	f043 0240 	orr.w	r2, r3, #64	@ 0x40
 80053d8:	687b      	ldr	r3, [r7, #4]
 80053da:	661a      	str	r2, [r3, #96]	@ 0x60
 80053dc:	e003      	b.n	80053e6 <HAL_SPI_IRQHandler+0x1da>
 80053de:	6878      	ldr	r0, [r7, #4]
 80053e0:	f000 f808 	bl	80053f4 <HAL_SPI_ErrorCallback>
 80053e4:	e000      	b.n	80053e8 <HAL_SPI_IRQHandler+0x1dc>
 80053e6:	bf00      	nop
 80053e8:	bf00      	nop
 80053ea:	3720      	adds	r7, #32
 80053ec:	46bd      	mov	sp, r7
 80053ee:	bd80      	pop	{r7, pc}
 80053f0:	08005409 	.word	0x08005409

080053f4 <HAL_SPI_ErrorCallback>:
 80053f4:	b480      	push	{r7}
 80053f6:	b083      	sub	sp, #12
 80053f8:	af00      	add	r7, sp, #0
 80053fa:	6078      	str	r0, [r7, #4]
 80053fc:	bf00      	nop
 80053fe:	370c      	adds	r7, #12
 8005400:	46bd      	mov	sp, r7
 8005402:	f85d 7b04 	ldr.w	r7, [sp], #4
 8005406:	4770      	bx	lr

08005408 <SPI_DMAAbortOnError>:
 8005408:	b580      	push	{r7, lr}
 800540a:	b084      	sub	sp, #16
 800540c:	af00      	add	r7, sp, #0
 800540e:	6078      	str	r0, [r7, #4]
 8005410:	687b      	ldr	r3, [r7, #4]
 8005412:	6a9b      	ldr	r3, [r3, #40]	@ 0x28
 8005414:	60fb      	str	r3, [r7, #12]
 8005416:	68fb      	ldr	r3, [r7, #12]
 8005418:	2200      	movs	r2, #0
 800541a:	f8a3 2046 	strh.w	r2, [r3, #70]	@ 0x46
 800541e:	68fb      	ldr	r3, [r7, #12]
 8005420:	2200      	movs	r2, #0
 8005422:	87da      	strh	r2, [r3, #62]	@ 0x3e
 8005424:	68f8      	ldr	r0, [r7, #12]
 8005426:	f7ff ffe5 	bl	80053f4 <HAL_SPI_ErrorCallback>
 800542a:	bf00      	nop
 800542c:	3710      	adds	r7, #16
 800542e:	46bd      	mov	sp, r7
 8005430:	bd80      	pop	{r7, pc}

08005432 <HAL_TIM_Base_Init>:
 8005432:	b580      	push	{r7, lr}
 8005434:	b082      	sub	sp, #8
 8005436:	af00      	add	r7, sp, #0
 8005438:	6078      	str	r0, [r7, #4]
 800543a:	687b      	ldr	r3, [r7, #4]
 800543c:	2b00      	cmp	r3, #0
 800543e:	d101      	bne.n	8005444 <HAL_TIM_Base_Init+0x12>
 8005440:	2301      	movs	r3, #1
 8005442:	e049      	b.n	80054d8 <HAL_TIM_Base_Init+0xa6>
 8005444:	687b      	ldr	r3, [r7, #4]
 8005446:	f893 303d 	ldrb.w	r3, [r3, #61]	@ 0x3d
 800544a:	b2db      	uxtb	r3, r3
 800544c:	2b00      	cmp	r3, #0
 800544e:	d106      	bne.n	800545e <HAL_TIM_Base_Init+0x2c>
 8005450:	687b      	ldr	r3, [r7, #4]
 8005452:	2200      	movs	r2, #0
 8005454:	f883 203c 	strb.w	r2, [r3, #60]	@ 0x3c
 8005458:	6878      	ldr	r0, [r7, #4]
 800545a:	f7fc f9c3 	bl	80017e4 <HAL_TIM_Base_MspInit>
 800545e:	687b      	ldr	r3, [r7, #4]
 8005460:	2202      	movs	r2, #2
 8005462:	f883 203d 	strb.w	r2, [r3, #61]	@ 0x3d
 8005466:	687b      	ldr	r3, [r7, #4]
 8005468:	681a      	ldr	r2, [r3, #0]
 800546a:	687b      	ldr	r3, [r7, #4]
 800546c:	3304      	adds	r3, #4
 800546e:	4619      	mov	r1, r3
 8005470:	4610      	mov	r0, r2
 8005472:	f001 f871 	bl	8006558 <TIM_Base_SetConfig>
 8005476:	687b      	ldr	r3, [r7, #4]
 8005478:	2201      	movs	r2, #1
 800547a:	f883 2048 	strb.w	r2, [r3, #72]	@ 0x48
 800547e:	687b      	ldr	r3, [r7, #4]
 8005480:	2201      	movs	r2, #1
 8005482:	f883 203e 	strb.w	r2, [r3, #62]	@ 0x3e
 8005486:	687b      	ldr	r3, [r7, #4]
 8005488:	2201      	movs	r2, #1
 800548a:	f883 203f 	strb.w	r2, [r3, #63]	@ 0x3f
 800548e:	687b      	ldr	r3, [r7, #4]
 8005490:	2201      	movs	r2, #1
 8005492:	f883 2040 	strb.w	r2, [r3, #64]	@ 0x40
 8005496:	687b      	ldr	r3, [r7, #4]
 8005498:	2201      	movs	r2, #1
 800549a:	f883 2041 	strb.w	r2, [r3, #65]	@ 0x41
 800549e:	687b      	ldr	r3, [r7, #4]
 80054a0:	2201      	movs	r2, #1
 80054a2:	f883 2042 	strb.w	r2, [r3, #66]	@ 0x42
 80054a6:	687b      	ldr	r3, [r7, #4]
 80054a8:	2201      	movs	r2, #1
 80054aa:	f883 2043 	strb.w	r2, [r3, #67]	@ 0x43
 80054ae:	687b      	ldr	r3, [r7, #4]
 80054b0:	2201      	movs	r2, #1
 80054b2:	f883 2044 	strb.w	r2, [r3, #68]	@ 0x44
 80054b6:	687b      	ldr	r3, [r7, #4]
 80054b8:	2201      	movs	r2, #1
 80054ba:	f883 2045 	strb.w	r2, [r3, #69]	@ 0x45
 80054be:	687b      	ldr	r3, [r7, #4]
 80054c0:	2201      	movs	r2, #1
 80054c2:	f883 2046 	strb.w	r2, [r3, #70]	@ 0x46
 80054c6:	687b      	ldr	r3, [r7, #4]
 80054c8:	2201      	movs	r2, #1
 80054ca:	f883 2047 	strb.w	r2, [r3, #71]	@ 0x47
 80054ce:	687b      	ldr	r3, [r7, #4]
 80054d0:	2201      	movs	r2, #1
 80054d2:	f883 203d 	strb.w	r2, [r3, #61]	@ 0x3d
 80054d6:	2300      	movs	r3, #0
 80054d8:	4618      	mov	r0, r3
 80054da:	3708      	adds	r7, #8
 80054dc:	46bd      	mov	sp, r7
 80054de:	bd80      	pop	{r7, pc}

080054e0 <HAL_TIM_PWM_Init>:
 80054e0:	b580      	push	{r7, lr}
 80054e2:	b082      	sub	sp, #8
 80054e4:	af00      	add	r7, sp, #0
 80054e6:	6078      	str	r0, [r7, #4]
 80054e8:	687b      	ldr	r3, [r7, #4]
 80054ea:	2b00      	cmp	r3, #0
 80054ec:	d101      	bne.n	80054f2 <HAL_TIM_PWM_Init+0x12>
 80054ee:	2301      	movs	r3, #1
 80054f0:	e049      	b.n	8005586 <HAL_TIM_PWM_Init+0xa6>
 80054f2:	687b      	ldr	r3, [r7, #4]
 80054f4:	f893 303d 	ldrb.w	r3, [r3, #61]	@ 0x3d
 80054f8:	b2db      	uxtb	r3, r3
 80054fa:	2b00      	cmp	r3, #0
 80054fc:	d106      	bne.n	800550c <HAL_TIM_PWM_Init+0x2c>
 80054fe:	687b      	ldr	r3, [r7, #4]
 8005500:	2200      	movs	r2, #0
 8005502:	f883 203c 	strb.w	r2, [r3, #60]	@ 0x3c
 8005506:	6878      	ldr	r0, [r7, #4]
 8005508:	f7fc fac8 	bl	8001a9c <HAL_TIM_PWM_MspInit>
 800550c:	687b      	ldr	r3, [r7, #4]
 800550e:	2202      	movs	r2, #2
 8005510:	f883 203d 	strb.w	r2, [r3, #61]	@ 0x3d
 8005514:	687b      	ldr	r3, [r7, #4]
 8005516:	681a      	ldr	r2, [r3, #0]
 8005518:	687b      	ldr	r3, [r7, #4]
 800551a:	3304      	adds	r3, #4
 800551c:	4619      	mov	r1, r3
 800551e:	4610      	mov	r0, r2
 8005520:	f001 f81a 	bl	8006558 <TIM_Base_SetConfig>
 8005524:	687b      	ldr	r3, [r7, #4]
 8005526:	2201      	movs	r2, #1
 8005528:	f883 2048 	strb.w	r2, [r3, #72]	@ 0x48
 800552c:	687b      	ldr	r3, [r7, #4]
 800552e:	2201      	movs	r2, #1
 8005530:	f883 203e 	strb.w	r2, [r3, #62]	@ 0x3e
 8005534:	687b      	ldr	r3, [r7, #4]
 8005536:	2201      	movs	r2, #1
 8005538:	f883 203f 	strb.w	r2, [r3, #63]	@ 0x3f
 800553c:	687b      	ldr	r3, [r7, #4]
 800553e:	2201      	movs	r2, #1
 8005540:	f883 2040 	strb.w	r2, [r3, #64]	@ 0x40
 8005544:	687b      	ldr	r3, [r7, #4]
 8005546:	2201      	movs	r2, #1
 8005548:	f883 2041 	strb.w	r2, [r3, #65]	@ 0x41
 800554c:	687b      	ldr	r3, [r7, #4]
 800554e:	2201      	movs	r2, #1
 8005550:	f883 2042 	strb.w	r2, [r3, #66]	@ 0x42
 8005554:	687b      	ldr	r3, [r7, #4]
 8005556:	2201      	movs	r2, #1
 8005558:	f883 2043 	strb.w	r2, [r3, #67]	@ 0x43
 800555c:	687b      	ldr	r3, [r7, #4]
 800555e:	2201      	movs	r2, #1
 8005560:	f883 2044 	strb.w	r2, [r3, #68]	@ 0x44
 8005564:	687b      	ldr	r3, [r7, #4]
 8005566:	2201      	movs	r2, #1
 8005568:	f883 2045 	strb.w	r2, [r3, #69]	@ 0x45
 800556c:	687b      	ldr	r3, [r7, #4]
 800556e:	2201      	movs	r2, #1
 8005570:	f883 2046 	strb.w	r2, [r3, #70]	@ 0x46
 8005574:	687b      	ldr	r3, [r7, #4]
 8005576:	2201      	movs	r2, #1
 8005578:	f883 2047 	strb.w	r2, [r3, #71]	@ 0x47
 800557c:	687b      	ldr	r3, [r7, #4]
 800557e:	2201      	movs	r2, #1
 8005580:	f883 203d 	strb.w	r2, [r3, #61]	@ 0x3d
 8005584:	2300      	movs	r3, #0
 8005586:	4618      	mov	r0, r3
 8005588:	3708      	adds	r7, #8
 800558a:	46bd      	mov	sp, r7
 800558c:	bd80      	pop	{r7, pc}
	...

08005590 <HAL_TIM_PWM_Start>:
 8005590:	b580      	push	{r7, lr}
 8005592:	b084      	sub	sp, #16
 8005594:	af00      	add	r7, sp, #0
 8005596:	6078      	str	r0, [r7, #4]
 8005598:	6039      	str	r1, [r7, #0]
 800559a:	683b      	ldr	r3, [r7, #0]
 800559c:	2b00      	cmp	r3, #0
 800559e:	d109      	bne.n	80055b4 <HAL_TIM_PWM_Start+0x24>
 80055a0:	687b      	ldr	r3, [r7, #4]
 80055a2:	f893 303e 	ldrb.w	r3, [r3, #62]	@ 0x3e
 80055a6:	b2db      	uxtb	r3, r3
 80055a8:	2b01      	cmp	r3, #1
 80055aa:	bf14      	ite	ne
 80055ac:	2301      	movne	r3, #1
 80055ae:	2300      	moveq	r3, #0
 80055b0:	b2db      	uxtb	r3, r3
 80055b2:	e03c      	b.n	800562e <HAL_TIM_PWM_Start+0x9e>
 80055b4:	683b      	ldr	r3, [r7, #0]
 80055b6:	2b04      	cmp	r3, #4
 80055b8:	d109      	bne.n	80055ce <HAL_TIM_PWM_Start+0x3e>
 80055ba:	687b      	ldr	r3, [r7, #4]
 80055bc:	f893 303f 	ldrb.w	r3, [r3, #63]	@ 0x3f
 80055c0:	b2db      	uxtb	r3, r3
 80055c2:	2b01      	cmp	r3, #1
 80055c4:	bf14      	ite	ne
 80055c6:	2301      	movne	r3, #1
 80055c8:	2300      	moveq	r3, #0
 80055ca:	b2db      	uxtb	r3, r3
 80055cc:	e02f      	b.n	800562e <HAL_TIM_PWM_Start+0x9e>
 80055ce:	683b      	ldr	r3, [r7, #0]
 80055d0:	2b08      	cmp	r3, #8
 80055d2:	d109      	bne.n	80055e8 <HAL_TIM_PWM_Start+0x58>
 80055d4:	687b      	ldr	r3, [r7, #4]
 80055d6:	f893 3040 	ldrb.w	r3, [r3, #64]	@ 0x40
 80055da:	b2db      	uxtb	r3, r3
 80055dc:	2b01      	cmp	r3, #1
 80055de:	bf14      	ite	ne
 80055e0:	2301      	movne	r3, #1
 80055e2:	2300      	moveq	r3, #0
 80055e4:	b2db      	uxtb	r3, r3
 80055e6:	e022      	b.n	800562e <HAL_TIM_PWM_Start+0x9e>
 80055e8:	683b      	ldr	r3, [r7, #0]
 80055ea:	2b0c      	cmp	r3, #12
 80055ec:	d109      	bne.n	8005602 <HAL_TIM_PWM_Start+0x72>
 80055ee:	687b      	ldr	r3, [r7, #4]
 80055f0:	f893 3041 	ldrb.w	r3, [r3, #65]	@ 0x41
 80055f4:	b2db      	uxtb	r3, r3
 80055f6:	2b01      	cmp	r3, #1
 80055f8:	bf14      	ite	ne
 80055fa:	2301      	movne	r3, #1
 80055fc:	2300      	moveq	r3, #0
 80055fe:	b2db      	uxtb	r3, r3
 8005600:	e015      	b.n	800562e <HAL_TIM_PWM_Start+0x9e>
 8005602:	683b      	ldr	r3, [r7, #0]
 8005604:	2b10      	cmp	r3, #16
 8005606:	d109      	bne.n	800561c <HAL_TIM_PWM_Start+0x8c>
 8005608:	687b      	ldr	r3, [r7, #4]
 800560a:	f893 3042 	ldrb.w	r3, [r3, #66]	@ 0x42
 800560e:	b2db      	uxtb	r3, r3
 8005610:	2b01      	cmp	r3, #1
 8005612:	bf14      	ite	ne
 8005614:	2301      	movne	r3, #1
 8005616:	2300      	moveq	r3, #0
 8005618:	b2db      	uxtb	r3, r3
 800561a:	e008      	b.n	800562e <HAL_TIM_PWM_Start+0x9e>
 800561c:	687b      	ldr	r3, [r7, #4]
 800561e:	f893 3043 	ldrb.w	r3, [r3, #67]	@ 0x43
 8005622:	b2db      	uxtb	r3, r3
 8005624:	2b01      	cmp	r3, #1
 8005626:	bf14      	ite	ne
 8005628:	2301      	movne	r3, #1
 800562a:	2300      	moveq	r3, #0
 800562c:	b2db      	uxtb	r3, r3
 800562e:	2b00      	cmp	r3, #0
 8005630:	d001      	beq.n	8005636 <HAL_TIM_PWM_Start+0xa6>
 8005632:	2301      	movs	r3, #1
 8005634:	e09c      	b.n	8005770 <HAL_TIM_PWM_Start+0x1e0>
 8005636:	683b      	ldr	r3, [r7, #0]
 8005638:	2b00      	cmp	r3, #0
 800563a:	d104      	bne.n	8005646 <HAL_TIM_PWM_Start+0xb6>
 800563c:	687b      	ldr	r3, [r7, #4]
 800563e:	2202      	movs	r2, #2
 8005640:	f883 203e 	strb.w	r2, [r3, #62]	@ 0x3e
 8005644:	e023      	b.n	800568e <HAL_TIM_PWM_Start+0xfe>
 8005646:	683b      	ldr	r3, [r7, #0]
 8005648:	2b04      	cmp	r3, #4
 800564a:	d104      	bne.n	8005656 <HAL_TIM_PWM_Start+0xc6>
 800564c:	687b      	ldr	r3, [r7, #4]
 800564e:	2202      	movs	r2, #2
 8005650:	f883 203f 	strb.w	r2, [r3, #63]	@ 0x3f
 8005654:	e01b      	b.n	800568e <HAL_TIM_PWM_Start+0xfe>
 8005656:	683b      	ldr	r3, [r7, #0]
 8005658:	2b08      	cmp	r3, #8
 800565a:	d104      	bne.n	8005666 <HAL_TIM_PWM_Start+0xd6>
 800565c:	687b      	ldr	r3, [r7, #4]
 800565e:	2202      	movs	r2, #2
 8005660:	f883 2040 	strb.w	r2, [r3, #64]	@ 0x40
 8005664:	e013      	b.n	800568e <HAL_TIM_PWM_Start+0xfe>
 8005666:	683b      	ldr	r3, [r7, #0]
 8005668:	2b0c      	cmp	r3, #12
 800566a:	d104      	bne.n	8005676 <HAL_TIM_PWM_Start+0xe6>
 800566c:	687b      	ldr	r3, [r7, #4]
 800566e:	2202      	movs	r2, #2
 8005670:	f883 2041 	strb.w	r2, [r3, #65]	@ 0x41
 8005674:	e00b      	b.n	800568e <HAL_TIM_PWM_Start+0xfe>
 8005676:	683b      	ldr	r3, [r7, #0]
 8005678:	2b10      	cmp	r3, #16
 800567a:	d104      	bne.n	8005686 <HAL_TIM_PWM_Start+0xf6>
 800567c:	687b      	ldr	r3, [r7, #4]
 800567e:	2202      	movs	r2, #2
 8005680:	f883 2042 	strb.w	r2, [r3, #66]	@ 0x42
 8005684:	e003      	b.n	800568e <HAL_TIM_PWM_Start+0xfe>
 8005686:	687b      	ldr	r3, [r7, #4]
 8005688:	2202      	movs	r2, #2
 800568a:	f883 2043 	strb.w	r2, [r3, #67]	@ 0x43
 800568e:	687b      	ldr	r3, [r7, #4]
 8005690:	681b      	ldr	r3, [r3, #0]
 8005692:	2201      	movs	r2, #1
 8005694:	6839      	ldr	r1, [r7, #0]
 8005696:	4618      	mov	r0, r3
 8005698:	f001 fc8c 	bl	8006fb4 <TIM_CCxChannelCmd>
 800569c:	687b      	ldr	r3, [r7, #4]
 800569e:	681b      	ldr	r3, [r3, #0]
 80056a0:	4a35      	ldr	r2, [pc, #212]	@ (8005778 <HAL_TIM_PWM_Start+0x1e8>)
 80056a2:	4293      	cmp	r3, r2
 80056a4:	d013      	beq.n	80056ce <HAL_TIM_PWM_Start+0x13e>
 80056a6:	687b      	ldr	r3, [r7, #4]
 80056a8:	681b      	ldr	r3, [r3, #0]
 80056aa:	4a34      	ldr	r2, [pc, #208]	@ (800577c <HAL_TIM_PWM_Start+0x1ec>)
 80056ac:	4293      	cmp	r3, r2
 80056ae:	d00e      	beq.n	80056ce <HAL_TIM_PWM_Start+0x13e>
 80056b0:	687b      	ldr	r3, [r7, #4]
 80056b2:	681b      	ldr	r3, [r3, #0]
 80056b4:	4a32      	ldr	r2, [pc, #200]	@ (8005780 <HAL_TIM_PWM_Start+0x1f0>)
 80056b6:	4293      	cmp	r3, r2
 80056b8:	d009      	beq.n	80056ce <HAL_TIM_PWM_Start+0x13e>
 80056ba:	687b      	ldr	r3, [r7, #4]
 80056bc:	681b      	ldr	r3, [r3, #0]
 80056be:	4a31      	ldr	r2, [pc, #196]	@ (8005784 <HAL_TIM_PWM_Start+0x1f4>)
 80056c0:	4293      	cmp	r3, r2
 80056c2:	d004      	beq.n	80056ce <HAL_TIM_PWM_Start+0x13e>
 80056c4:	687b      	ldr	r3, [r7, #4]
 80056c6:	681b      	ldr	r3, [r3, #0]
 80056c8:	4a2f      	ldr	r2, [pc, #188]	@ (8005788 <HAL_TIM_PWM_Start+0x1f8>)
 80056ca:	4293      	cmp	r3, r2
 80056cc:	d101      	bne.n	80056d2 <HAL_TIM_PWM_Start+0x142>
 80056ce:	2301      	movs	r3, #1
 80056d0:	e000      	b.n	80056d4 <HAL_TIM_PWM_Start+0x144>
 80056d2:	2300      	movs	r3, #0
 80056d4:	2b00      	cmp	r3, #0
 80056d6:	d007      	beq.n	80056e8 <HAL_TIM_PWM_Start+0x158>
 80056d8:	687b      	ldr	r3, [r7, #4]
 80056da:	681b      	ldr	r3, [r3, #0]
 80056dc:	6c5a      	ldr	r2, [r3, #68]	@ 0x44
 80056de:	687b      	ldr	r3, [r7, #4]
 80056e0:	681b      	ldr	r3, [r3, #0]
 80056e2:	f442 4200 	orr.w	r2, r2, #32768	@ 0x8000
 80056e6:	645a      	str	r2, [r3, #68]	@ 0x44
 80056e8:	687b      	ldr	r3, [r7, #4]
 80056ea:	681b      	ldr	r3, [r3, #0]
 80056ec:	4a22      	ldr	r2, [pc, #136]	@ (8005778 <HAL_TIM_PWM_Start+0x1e8>)
 80056ee:	4293      	cmp	r3, r2
 80056f0:	d01d      	beq.n	800572e <HAL_TIM_PWM_Start+0x19e>
 80056f2:	687b      	ldr	r3, [r7, #4]
 80056f4:	681b      	ldr	r3, [r3, #0]
 80056f6:	f1b3 4f80 	cmp.w	r3, #1073741824	@ 0x40000000
 80056fa:	d018      	beq.n	800572e <HAL_TIM_PWM_Start+0x19e>
 80056fc:	687b      	ldr	r3, [r7, #4]
 80056fe:	681b      	ldr	r3, [r3, #0]
 8005700:	4a22      	ldr	r2, [pc, #136]	@ (800578c <HAL_TIM_PWM_Start+0x1fc>)
 8005702:	4293      	cmp	r3, r2
 8005704:	d013      	beq.n	800572e <HAL_TIM_PWM_Start+0x19e>
 8005706:	687b      	ldr	r3, [r7, #4]
 8005708:	681b      	ldr	r3, [r3, #0]
 800570a:	4a21      	ldr	r2, [pc, #132]	@ (8005790 <HAL_TIM_PWM_Start+0x200>)
 800570c:	4293      	cmp	r3, r2
 800570e:	d00e      	beq.n	800572e <HAL_TIM_PWM_Start+0x19e>
 8005710:	687b      	ldr	r3, [r7, #4]
 8005712:	681b      	ldr	r3, [r3, #0]
 8005714:	4a1f      	ldr	r2, [pc, #124]	@ (8005794 <HAL_TIM_PWM_Start+0x204>)
 8005716:	4293      	cmp	r3, r2
 8005718:	d009      	beq.n	800572e <HAL_TIM_PWM_Start+0x19e>
 800571a:	687b      	ldr	r3, [r7, #4]
 800571c:	681b      	ldr	r3, [r3, #0]
 800571e:	4a17      	ldr	r2, [pc, #92]	@ (800577c <HAL_TIM_PWM_Start+0x1ec>)
 8005720:	4293      	cmp	r3, r2
 8005722:	d004      	beq.n	800572e <HAL_TIM_PWM_Start+0x19e>
 8005724:	687b      	ldr	r3, [r7, #4]
 8005726:	681b      	ldr	r3, [r3, #0]
 8005728:	4a15      	ldr	r2, [pc, #84]	@ (8005780 <HAL_TIM_PWM_Start+0x1f0>)
 800572a:	4293      	cmp	r3, r2
 800572c:	d115      	bne.n	800575a <HAL_TIM_PWM_Start+0x1ca>
 800572e:	687b      	ldr	r3, [r7, #4]
 8005730:	681b      	ldr	r3, [r3, #0]
 8005732:	689a      	ldr	r2, [r3, #8]
 8005734:	4b18      	ldr	r3, [pc, #96]	@ (8005798 <HAL_TIM_PWM_Start+0x208>)
 8005736:	4013      	ands	r3, r2
 8005738:	60fb      	str	r3, [r7, #12]
 800573a:	68fb      	ldr	r3, [r7, #12]
 800573c:	2b06      	cmp	r3, #6
 800573e:	d015      	beq.n	800576c <HAL_TIM_PWM_Start+0x1dc>
 8005740:	68fb      	ldr	r3, [r7, #12]
 8005742:	f5b3 3f80 	cmp.w	r3, #65536	@ 0x10000
 8005746:	d011      	beq.n	800576c <HAL_TIM_PWM_Start+0x1dc>
 8005748:	687b      	ldr	r3, [r7, #4]
 800574a:	681b      	ldr	r3, [r3, #0]
 800574c:	681a      	ldr	r2, [r3, #0]
 800574e:	687b      	ldr	r3, [r7, #4]
 8005750:	681b      	ldr	r3, [r3, #0]
 8005752:	f042 0201 	orr.w	r2, r2, #1
 8005756:	601a      	str	r2, [r3, #0]
 8005758:	e008      	b.n	800576c <HAL_TIM_PWM_Start+0x1dc>
 800575a:	687b      	ldr	r3, [r7, #4]
 800575c:	681b      	ldr	r3, [r3, #0]
 800575e:	681a      	ldr	r2, [r3, #0]
 8005760:	687b      	ldr	r3, [r7, #4]
 8005762:	681b      	ldr	r3, [r3, #0]
 8005764:	f042 0201 	orr.w	r2, r2, #1
 8005768:	601a      	str	r2, [r3, #0]
 800576a:	e000      	b.n	800576e <HAL_TIM_PWM_Start+0x1de>
 800576c:	bf00      	nop
 800576e:	2300      	movs	r3, #0
 8005770:	4618      	mov	r0, r3
 8005772:	3710      	adds	r7, #16
 8005774:	46bd      	mov	sp, r7
 8005776:	bd80      	pop	{r7, pc}
 8005778:	40012c00 	.word	0x40012c00
 800577c:	40013400 	.word	0x40013400
 8005780:	40014000 	.word	0x40014000
 8005784:	40014400 	.word	0x40014400
 8005788:	40014800 	.word	0x40014800
 800578c:	40000400 	.word	0x40000400
 8005790:	40000800 	.word	0x40000800
 8005794:	40000c00 	.word	0x40000c00
 8005798:	00010007 	.word	0x00010007

0800579c <HAL_TIM_IC_Init>:
 800579c:	b580      	push	{r7, lr}
 800579e:	b082      	sub	sp, #8
 80057a0:	af00      	add	r7, sp, #0
 80057a2:	6078      	str	r0, [r7, #4]
 80057a4:	687b      	ldr	r3, [r7, #4]
 80057a6:	2b00      	cmp	r3, #0
 80057a8:	d101      	bne.n	80057ae <HAL_TIM_IC_Init+0x12>
 80057aa:	2301      	movs	r3, #1
 80057ac:	e049      	b.n	8005842 <HAL_TIM_IC_Init+0xa6>
 80057ae:	687b      	ldr	r3, [r7, #4]
 80057b0:	f893 303d 	ldrb.w	r3, [r3, #61]	@ 0x3d
 80057b4:	b2db      	uxtb	r3, r3
 80057b6:	2b00      	cmp	r3, #0
 80057b8:	d106      	bne.n	80057c8 <HAL_TIM_IC_Init+0x2c>
 80057ba:	687b      	ldr	r3, [r7, #4]
 80057bc:	2200      	movs	r2, #0
 80057be:	f883 203c 	strb.w	r2, [r3, #60]	@ 0x3c
 80057c2:	6878      	ldr	r0, [r7, #4]
 80057c4:	f7fc f8ec 	bl	80019a0 <HAL_TIM_IC_MspInit>
 80057c8:	687b      	ldr	r3, [r7, #4]
 80057ca:	2202      	movs	r2, #2
 80057cc:	f883 203d 	strb.w	r2, [r3, #61]	@ 0x3d
 80057d0:	687b      	ldr	r3, [r7, #4]
 80057d2:	681a      	ldr	r2, [r3, #0]
 80057d4:	687b      	ldr	r3, [r7, #4]
 80057d6:	3304      	adds	r3, #4
 80057d8:	4619      	mov	r1, r3
 80057da:	4610      	mov	r0, r2
 80057dc:	f000 febc 	bl	8006558 <TIM_Base_SetConfig>
 80057e0:	687b      	ldr	r3, [r7, #4]
 80057e2:	2201      	movs	r2, #1
 80057e4:	f883 2048 	strb.w	r2, [r3, #72]	@ 0x48
 80057e8:	687b      	ldr	r3, [r7, #4]
 80057ea:	2201      	movs	r2, #1
 80057ec:	f883 203e 	strb.w	r2, [r3, #62]	@ 0x3e
 80057f0:	687b      	ldr	r3, [r7, #4]
 80057f2:	2201      	movs	r2, #1
 80057f4:	f883 203f 	strb.w	r2, [r3, #63]	@ 0x3f
 80057f8:	687b      	ldr	r3, [r7, #4]
 80057fa:	2201      	movs	r2, #1
 80057fc:	f883 2040 	strb.w	r2, [r3, #64]	@ 0x40
 8005800:	687b      	ldr	r3, [r7, #4]
 8005802:	2201      	movs	r2, #1
 8005804:	f883 2041 	strb.w	r2, [r3, #65]	@ 0x41
 8005808:	687b      	ldr	r3, [r7, #4]
 800580a:	2201      	movs	r2, #1
 800580c:	f883 2042 	strb.w	r2, [r3, #66]	@ 0x42
 8005810:	687b      	ldr	r3, [r7, #4]
 8005812:	2201      	movs	r2, #1
 8005814:	f883 2043 	strb.w	r2, [r3, #67]	@ 0x43
 8005818:	687b      	ldr	r3, [r7, #4]
 800581a:	2201      	movs	r2, #1
 800581c:	f883 2044 	strb.w	r2, [r3, #68]	@ 0x44
 8005820:	687b      	ldr	r3, [r7, #4]
 8005822:	2201      	movs	r2, #1
 8005824:	f883 2045 	strb.w	r2, [r3, #69]	@ 0x45
 8005828:	687b      	ldr	r3, [r7, #4]
 800582a:	2201      	movs	r2, #1
 800582c:	f883 2046 	strb.w	r2, [r3, #70]	@ 0x46
 8005830:	687b      	ldr	r3, [r7, #4]
 8005832:	2201      	movs	r2, #1
 8005834:	f883 2047 	strb.w	r2, [r3, #71]	@ 0x47
 8005838:	687b      	ldr	r3, [r7, #4]
 800583a:	2201      	movs	r2, #1
 800583c:	f883 203d 	strb.w	r2, [r3, #61]	@ 0x3d
 8005840:	2300      	movs	r3, #0
 8005842:	4618      	mov	r0, r3
 8005844:	3708      	adds	r7, #8
 8005846:	46bd      	mov	sp, r7
 8005848:	bd80      	pop	{r7, pc}
	...

0800584c <HAL_TIM_IC_Start_IT>:
 800584c:	b580      	push	{r7, lr}
 800584e:	b084      	sub	sp, #16
 8005850:	af00      	add	r7, sp, #0
 8005852:	6078      	str	r0, [r7, #4]
 8005854:	6039      	str	r1, [r7, #0]
 8005856:	2300      	movs	r3, #0
 8005858:	73fb      	strb	r3, [r7, #15]
 800585a:	683b      	ldr	r3, [r7, #0]
 800585c:	2b00      	cmp	r3, #0
 800585e:	d104      	bne.n	800586a <HAL_TIM_IC_Start_IT+0x1e>
 8005860:	687b      	ldr	r3, [r7, #4]
 8005862:	f893 303e 	ldrb.w	r3, [r3, #62]	@ 0x3e
 8005866:	b2db      	uxtb	r3, r3
 8005868:	e023      	b.n	80058b2 <HAL_TIM_IC_Start_IT+0x66>
 800586a:	683b      	ldr	r3, [r7, #0]
 800586c:	2b04      	cmp	r3, #4
 800586e:	d104      	bne.n	800587a <HAL_TIM_IC_Start_IT+0x2e>
 8005870:	687b      	ldr	r3, [r7, #4]
 8005872:	f893 303f 	ldrb.w	r3, [r3, #63]	@ 0x3f
 8005876:	b2db      	uxtb	r3, r3
 8005878:	e01b      	b.n	80058b2 <HAL_TIM_IC_Start_IT+0x66>
 800587a:	683b      	ldr	r3, [r7, #0]
 800587c:	2b08      	cmp	r3, #8
 800587e:	d104      	bne.n	800588a <HAL_TIM_IC_Start_IT+0x3e>
 8005880:	687b      	ldr	r3, [r7, #4]
 8005882:	f893 3040 	ldrb.w	r3, [r3, #64]	@ 0x40
 8005886:	b2db      	uxtb	r3, r3
 8005888:	e013      	b.n	80058b2 <HAL_TIM_IC_Start_IT+0x66>
 800588a:	683b      	ldr	r3, [r7, #0]
 800588c:	2b0c      	cmp	r3, #12
 800588e:	d104      	bne.n	800589a <HAL_TIM_IC_Start_IT+0x4e>
 8005890:	687b      	ldr	r3, [r7, #4]
 8005892:	f893 3041 	ldrb.w	r3, [r3, #65]	@ 0x41
 8005896:	b2db      	uxtb	r3, r3
 8005898:	e00b      	b.n	80058b2 <HAL_TIM_IC_Start_IT+0x66>
 800589a:	683b      	ldr	r3, [r7, #0]
 800589c:	2b10      	cmp	r3, #16
 800589e:	d104      	bne.n	80058aa <HAL_TIM_IC_Start_IT+0x5e>
 80058a0:	687b      	ldr	r3, [r7, #4]
 80058a2:	f893 3042 	ldrb.w	r3, [r3, #66]	@ 0x42
 80058a6:	b2db      	uxtb	r3, r3
 80058a8:	e003      	b.n	80058b2 <HAL_TIM_IC_Start_IT+0x66>
 80058aa:	687b      	ldr	r3, [r7, #4]
 80058ac:	f893 3043 	ldrb.w	r3, [r3, #67]	@ 0x43
 80058b0:	b2db      	uxtb	r3, r3
 80058b2:	73bb      	strb	r3, [r7, #14]
 80058b4:	683b      	ldr	r3, [r7, #0]
 80058b6:	2b00      	cmp	r3, #0
 80058b8:	d104      	bne.n	80058c4 <HAL_TIM_IC_Start_IT+0x78>
 80058ba:	687b      	ldr	r3, [r7, #4]
 80058bc:	f893 3044 	ldrb.w	r3, [r3, #68]	@ 0x44
 80058c0:	b2db      	uxtb	r3, r3
 80058c2:	e013      	b.n	80058ec <HAL_TIM_IC_Start_IT+0xa0>
 80058c4:	683b      	ldr	r3, [r7, #0]
 80058c6:	2b04      	cmp	r3, #4
 80058c8:	d104      	bne.n	80058d4 <HAL_TIM_IC_Start_IT+0x88>
 80058ca:	687b      	ldr	r3, [r7, #4]
 80058cc:	f893 3045 	ldrb.w	r3, [r3, #69]	@ 0x45
 80058d0:	b2db      	uxtb	r3, r3
 80058d2:	e00b      	b.n	80058ec <HAL_TIM_IC_Start_IT+0xa0>
 80058d4:	683b      	ldr	r3, [r7, #0]
 80058d6:	2b08      	cmp	r3, #8
 80058d8:	d104      	bne.n	80058e4 <HAL_TIM_IC_Start_IT+0x98>
 80058da:	687b      	ldr	r3, [r7, #4]
 80058dc:	f893 3046 	ldrb.w	r3, [r3, #70]	@ 0x46
 80058e0:	b2db      	uxtb	r3, r3
 80058e2:	e003      	b.n	80058ec <HAL_TIM_IC_Start_IT+0xa0>
 80058e4:	687b      	ldr	r3, [r7, #4]
 80058e6:	f893 3047 	ldrb.w	r3, [r3, #71]	@ 0x47
 80058ea:	b2db      	uxtb	r3, r3
 80058ec:	737b      	strb	r3, [r7, #13]
 80058ee:	7bbb      	ldrb	r3, [r7, #14]
 80058f0:	2b01      	cmp	r3, #1
 80058f2:	d102      	bne.n	80058fa <HAL_TIM_IC_Start_IT+0xae>
 80058f4:	7b7b      	ldrb	r3, [r7, #13]
 80058f6:	2b01      	cmp	r3, #1
 80058f8:	d001      	beq.n	80058fe <HAL_TIM_IC_Start_IT+0xb2>
 80058fa:	2301      	movs	r3, #1
 80058fc:	e0dd      	b.n	8005aba <HAL_TIM_IC_Start_IT+0x26e>
 80058fe:	683b      	ldr	r3, [r7, #0]
 8005900:	2b00      	cmp	r3, #0
 8005902:	d104      	bne.n	800590e <HAL_TIM_IC_Start_IT+0xc2>
 8005904:	687b      	ldr	r3, [r7, #4]
 8005906:	2202      	movs	r2, #2
 8005908:	f883 203e 	strb.w	r2, [r3, #62]	@ 0x3e
 800590c:	e023      	b.n	8005956 <HAL_TIM_IC_Start_IT+0x10a>
 800590e:	683b      	ldr	r3, [r7, #0]
 8005910:	2b04      	cmp	r3, #4
 8005912:	d104      	bne.n	800591e <HAL_TIM_IC_Start_IT+0xd2>
 8005914:	687b      	ldr	r3, [r7, #4]
 8005916:	2202      	movs	r2, #2
 8005918:	f883 203f 	strb.w	r2, [r3, #63]	@ 0x3f
 800591c:	e01b      	b.n	8005956 <HAL_TIM_IC_Start_IT+0x10a>
 800591e:	683b      	ldr	r3, [r7, #0]
 8005920:	2b08      	cmp	r3, #8
 8005922:	d104      	bne.n	800592e <HAL_TIM_IC_Start_IT+0xe2>
 8005924:	687b      	ldr	r3, [r7, #4]
 8005926:	2202      	movs	r2, #2
 8005928:	f883 2040 	strb.w	r2, [r3, #64]	@ 0x40
 800592c:	e013      	b.n	8005956 <HAL_TIM_IC_Start_IT+0x10a>
 800592e:	683b      	ldr	r3, [r7, #0]
 8005930:	2b0c      	cmp	r3, #12
 8005932:	d104      	bne.n	800593e <HAL_TIM_IC_Start_IT+0xf2>
 8005934:	687b      	ldr	r3, [r7, #4]
 8005936:	2202      	movs	r2, #2
 8005938:	f883 2041 	strb.w	r2, [r3, #65]	@ 0x41
 800593c:	e00b      	b.n	8005956 <HAL_TIM_IC_Start_IT+0x10a>
 800593e:	683b      	ldr	r3, [r7, #0]
 8005940:	2b10      	cmp	r3, #16
 8005942:	d104      	bne.n	800594e <HAL_TIM_IC_Start_IT+0x102>
 8005944:	687b      	ldr	r3, [r7, #4]
 8005946:	2202      	movs	r2, #2
 8005948:	f883 2042 	strb.w	r2, [r3, #66]	@ 0x42
 800594c:	e003      	b.n	8005956 <HAL_TIM_IC_Start_IT+0x10a>
 800594e:	687b      	ldr	r3, [r7, #4]
 8005950:	2202      	movs	r2, #2
 8005952:	f883 2043 	strb.w	r2, [r3, #67]	@ 0x43
 8005956:	683b      	ldr	r3, [r7, #0]
 8005958:	2b00      	cmp	r3, #0
 800595a:	d104      	bne.n	8005966 <HAL_TIM_IC_Start_IT+0x11a>
 800595c:	687b      	ldr	r3, [r7, #4]
 800595e:	2202      	movs	r2, #2
 8005960:	f883 2044 	strb.w	r2, [r3, #68]	@ 0x44
 8005964:	e013      	b.n	800598e <HAL_TIM_IC_Start_IT+0x142>
 8005966:	683b      	ldr	r3, [r7, #0]
 8005968:	2b04      	cmp	r3, #4
 800596a:	d104      	bne.n	8005976 <HAL_TIM_IC_Start_IT+0x12a>
 800596c:	687b      	ldr	r3, [r7, #4]
 800596e:	2202      	movs	r2, #2
 8005970:	f883 2045 	strb.w	r2, [r3, #69]	@ 0x45
 8005974:	e00b      	b.n	800598e <HAL_TIM_IC_Start_IT+0x142>
 8005976:	683b      	ldr	r3, [r7, #0]
 8005978:	2b08      	cmp	r3, #8
 800597a:	d104      	bne.n	8005986 <HAL_TIM_IC_Start_IT+0x13a>
 800597c:	687b      	ldr	r3, [r7, #4]
 800597e:	2202      	movs	r2, #2
 8005980:	f883 2046 	strb.w	r2, [r3, #70]	@ 0x46
 8005984:	e003      	b.n	800598e <HAL_TIM_IC_Start_IT+0x142>
 8005986:	687b      	ldr	r3, [r7, #4]
 8005988:	2202      	movs	r2, #2
 800598a:	f883 2047 	strb.w	r2, [r3, #71]	@ 0x47
 800598e:	683b      	ldr	r3, [r7, #0]
 8005990:	2b0c      	cmp	r3, #12
 8005992:	d841      	bhi.n	8005a18 <HAL_TIM_IC_Start_IT+0x1cc>
 8005994:	a201      	add	r2, pc, #4	@ (adr r2, 800599c <HAL_TIM_IC_Start_IT+0x150>)
 8005996:	f852 f023 	ldr.w	pc, [r2, r3, lsl #2]
 800599a:	bf00      	nop
 800599c:	080059d1 	.word	0x080059d1
 80059a0:	08005a19 	.word	0x08005a19
 80059a4:	08005a19 	.word	0x08005a19
 80059a8:	08005a19 	.word	0x08005a19
 80059ac:	080059e3 	.word	0x080059e3
 80059b0:	08005a19 	.word	0x08005a19
 80059b4:	08005a19 	.word	0x08005a19
 80059b8:	08005a19 	.word	0x08005a19
 80059bc:	080059f5 	.word	0x080059f5
 80059c0:	08005a19 	.word	0x08005a19
 80059c4:	08005a19 	.word	0x08005a19
 80059c8:	08005a19 	.word	0x08005a19
 80059cc:	08005a07 	.word	0x08005a07
 80059d0:	687b      	ldr	r3, [r7, #4]
 80059d2:	681b      	ldr	r3, [r3, #0]
 80059d4:	68da      	ldr	r2, [r3, #12]
 80059d6:	687b      	ldr	r3, [r7, #4]
 80059d8:	681b      	ldr	r3, [r3, #0]
 80059da:	f042 0202 	orr.w	r2, r2, #2
 80059de:	60da      	str	r2, [r3, #12]
 80059e0:	e01d      	b.n	8005a1e <HAL_TIM_IC_Start_IT+0x1d2>
 80059e2:	687b      	ldr	r3, [r7, #4]
 80059e4:	681b      	ldr	r3, [r3, #0]
 80059e6:	68da      	ldr	r2, [r3, #12]
 80059e8:	687b      	ldr	r3, [r7, #4]
 80059ea:	681b      	ldr	r3, [r3, #0]
 80059ec:	f042 0204 	orr.w	r2, r2, #4
 80059f0:	60da      	str	r2, [r3, #12]
 80059f2:	e014      	b.n	8005a1e <HAL_TIM_IC_Start_IT+0x1d2>
 80059f4:	687b      	ldr	r3, [r7, #4]
 80059f6:	681b      	ldr	r3, [r3, #0]
 80059f8:	68da      	ldr	r2, [r3, #12]
 80059fa:	687b      	ldr	r3, [r7, #4]
 80059fc:	681b      	ldr	r3, [r3, #0]
 80059fe:	f042 0208 	orr.w	r2, r2, #8
 8005a02:	60da      	str	r2, [r3, #12]
 8005a04:	e00b      	b.n	8005a1e <HAL_TIM_IC_Start_IT+0x1d2>
 8005a06:	687b      	ldr	r3, [r7, #4]
 8005a08:	681b      	ldr	r3, [r3, #0]
 8005a0a:	68da      	ldr	r2, [r3, #12]
 8005a0c:	687b      	ldr	r3, [r7, #4]
 8005a0e:	681b      	ldr	r3, [r3, #0]
 8005a10:	f042 0210 	orr.w	r2, r2, #16
 8005a14:	60da      	str	r2, [r3, #12]
 8005a16:	e002      	b.n	8005a1e <HAL_TIM_IC_Start_IT+0x1d2>
 8005a18:	2301      	movs	r3, #1
 8005a1a:	73fb      	strb	r3, [r7, #15]
 8005a1c:	bf00      	nop
 8005a1e:	7bfb      	ldrb	r3, [r7, #15]
 8005a20:	2b00      	cmp	r3, #0
 8005a22:	d149      	bne.n	8005ab8 <HAL_TIM_IC_Start_IT+0x26c>
 8005a24:	687b      	ldr	r3, [r7, #4]
 8005a26:	681b      	ldr	r3, [r3, #0]
 8005a28:	2201      	movs	r2, #1
 8005a2a:	6839      	ldr	r1, [r7, #0]
 8005a2c:	4618      	mov	r0, r3
 8005a2e:	f001 fac1 	bl	8006fb4 <TIM_CCxChannelCmd>
 8005a32:	687b      	ldr	r3, [r7, #4]
 8005a34:	681b      	ldr	r3, [r3, #0]
 8005a36:	4a23      	ldr	r2, [pc, #140]	@ (8005ac4 <HAL_TIM_IC_Start_IT+0x278>)
 8005a38:	4293      	cmp	r3, r2
 8005a3a:	d01d      	beq.n	8005a78 <HAL_TIM_IC_Start_IT+0x22c>
 8005a3c:	687b      	ldr	r3, [r7, #4]
 8005a3e:	681b      	ldr	r3, [r3, #0]
 8005a40:	f1b3 4f80 	cmp.w	r3, #1073741824	@ 0x40000000
 8005a44:	d018      	beq.n	8005a78 <HAL_TIM_IC_Start_IT+0x22c>
 8005a46:	687b      	ldr	r3, [r7, #4]
 8005a48:	681b      	ldr	r3, [r3, #0]
 8005a4a:	4a1f      	ldr	r2, [pc, #124]	@ (8005ac8 <HAL_TIM_IC_Start_IT+0x27c>)
 8005a4c:	4293      	cmp	r3, r2
 8005a4e:	d013      	beq.n	8005a78 <HAL_TIM_IC_Start_IT+0x22c>
 8005a50:	687b      	ldr	r3, [r7, #4]
 8005a52:	681b      	ldr	r3, [r3, #0]
 8005a54:	4a1d      	ldr	r2, [pc, #116]	@ (8005acc <HAL_TIM_IC_Start_IT+0x280>)
 8005a56:	4293      	cmp	r3, r2
 8005a58:	d00e      	beq.n	8005a78 <HAL_TIM_IC_Start_IT+0x22c>
 8005a5a:	687b      	ldr	r3, [r7, #4]
 8005a5c:	681b      	ldr	r3, [r3, #0]
 8005a5e:	4a1c      	ldr	r2, [pc, #112]	@ (8005ad0 <HAL_TIM_IC_Start_IT+0x284>)
 8005a60:	4293      	cmp	r3, r2
 8005a62:	d009      	beq.n	8005a78 <HAL_TIM_IC_Start_IT+0x22c>
 8005a64:	687b      	ldr	r3, [r7, #4]
 8005a66:	681b      	ldr	r3, [r3, #0]
 8005a68:	4a1a      	ldr	r2, [pc, #104]	@ (8005ad4 <HAL_TIM_IC_Start_IT+0x288>)
 8005a6a:	4293      	cmp	r3, r2
 8005a6c:	d004      	beq.n	8005a78 <HAL_TIM_IC_Start_IT+0x22c>
 8005a6e:	687b      	ldr	r3, [r7, #4]
 8005a70:	681b      	ldr	r3, [r3, #0]
 8005a72:	4a19      	ldr	r2, [pc, #100]	@ (8005ad8 <HAL_TIM_IC_Start_IT+0x28c>)
 8005a74:	4293      	cmp	r3, r2
 8005a76:	d115      	bne.n	8005aa4 <HAL_TIM_IC_Start_IT+0x258>
 8005a78:	687b      	ldr	r3, [r7, #4]
 8005a7a:	681b      	ldr	r3, [r3, #0]
 8005a7c:	689a      	ldr	r2, [r3, #8]
 8005a7e:	4b17      	ldr	r3, [pc, #92]	@ (8005adc <HAL_TIM_IC_Start_IT+0x290>)
 8005a80:	4013      	ands	r3, r2
 8005a82:	60bb      	str	r3, [r7, #8]
 8005a84:	68bb      	ldr	r3, [r7, #8]
 8005a86:	2b06      	cmp	r3, #6
 8005a88:	d015      	beq.n	8005ab6 <HAL_TIM_IC_Start_IT+0x26a>
 8005a8a:	68bb      	ldr	r3, [r7, #8]
 8005a8c:	f5b3 3f80 	cmp.w	r3, #65536	@ 0x10000
 8005a90:	d011      	beq.n	8005ab6 <HAL_TIM_IC_Start_IT+0x26a>
 8005a92:	687b      	ldr	r3, [r7, #4]
 8005a94:	681b      	ldr	r3, [r3, #0]
 8005a96:	681a      	ldr	r2, [r3, #0]
 8005a98:	687b      	ldr	r3, [r7, #4]
 8005a9a:	681b      	ldr	r3, [r3, #0]
 8005a9c:	f042 0201 	orr.w	r2, r2, #1
 8005aa0:	601a      	str	r2, [r3, #0]
 8005aa2:	e008      	b.n	8005ab6 <HAL_TIM_IC_Start_IT+0x26a>
 8005aa4:	687b      	ldr	r3, [r7, #4]
 8005aa6:	681b      	ldr	r3, [r3, #0]
 8005aa8:	681a      	ldr	r2, [r3, #0]
 8005aaa:	687b      	ldr	r3, [r7, #4]
 8005aac:	681b      	ldr	r3, [r3, #0]
 8005aae:	f042 0201 	orr.w	r2, r2, #1
 8005ab2:	601a      	str	r2, [r3, #0]
 8005ab4:	e000      	b.n	8005ab8 <HAL_TIM_IC_Start_IT+0x26c>
 8005ab6:	bf00      	nop
 8005ab8:	7bfb      	ldrb	r3, [r7, #15]
 8005aba:	4618      	mov	r0, r3
 8005abc:	3710      	adds	r7, #16
 8005abe:	46bd      	mov	sp, r7
 8005ac0:	bd80      	pop	{r7, pc}
 8005ac2:	bf00      	nop
 8005ac4:	40012c00 	.word	0x40012c00
 8005ac8:	40000400 	.word	0x40000400
 8005acc:	40000800 	.word	0x40000800
 8005ad0:	40000c00 	.word	0x40000c00
 8005ad4:	40013400 	.word	0x40013400
 8005ad8:	40014000 	.word	0x40014000
 8005adc:	00010007 	.word	0x00010007

08005ae0 <HAL_TIM_Encoder_Init>:
 8005ae0:	b580      	push	{r7, lr}
 8005ae2:	b086      	sub	sp, #24
 8005ae4:	af00      	add	r7, sp, #0
 8005ae6:	6078      	str	r0, [r7, #4]
 8005ae8:	6039      	str	r1, [r7, #0]
 8005aea:	687b      	ldr	r3, [r7, #4]
 8005aec:	2b00      	cmp	r3, #0
 8005aee:	d101      	bne.n	8005af4 <HAL_TIM_Encoder_Init+0x14>
 8005af0:	2301      	movs	r3, #1
 8005af2:	e097      	b.n	8005c24 <HAL_TIM_Encoder_Init+0x144>
 8005af4:	687b      	ldr	r3, [r7, #4]
 8005af6:	f893 303d 	ldrb.w	r3, [r3, #61]	@ 0x3d
 8005afa:	b2db      	uxtb	r3, r3
 8005afc:	2b00      	cmp	r3, #0
 8005afe:	d106      	bne.n	8005b0e <HAL_TIM_Encoder_Init+0x2e>
 8005b00:	687b      	ldr	r3, [r7, #4]
 8005b02:	2200      	movs	r2, #0
 8005b04:	f883 203c 	strb.w	r2, [r3, #60]	@ 0x3c
 8005b08:	6878      	ldr	r0, [r7, #4]
 8005b0a:	f7fb fea5 	bl	8001858 <HAL_TIM_Encoder_MspInit>
 8005b0e:	687b      	ldr	r3, [r7, #4]
 8005b10:	2202      	movs	r2, #2
 8005b12:	f883 203d 	strb.w	r2, [r3, #61]	@ 0x3d
 8005b16:	687b      	ldr	r3, [r7, #4]
 8005b18:	681b      	ldr	r3, [r3, #0]
 8005b1a:	689b      	ldr	r3, [r3, #8]
 8005b1c:	687a      	ldr	r2, [r7, #4]
 8005b1e:	6812      	ldr	r2, [r2, #0]
 8005b20:	f423 33a0 	bic.w	r3, r3, #81920	@ 0x14000
 8005b24:	f023 0307 	bic.w	r3, r3, #7
 8005b28:	6093      	str	r3, [r2, #8]
 8005b2a:	687b      	ldr	r3, [r7, #4]
 8005b2c:	681a      	ldr	r2, [r3, #0]
 8005b2e:	687b      	ldr	r3, [r7, #4]
 8005b30:	3304      	adds	r3, #4
 8005b32:	4619      	mov	r1, r3
 8005b34:	4610      	mov	r0, r2
 8005b36:	f000 fd0f 	bl	8006558 <TIM_Base_SetConfig>
 8005b3a:	687b      	ldr	r3, [r7, #4]
 8005b3c:	681b      	ldr	r3, [r3, #0]
 8005b3e:	689b      	ldr	r3, [r3, #8]
 8005b40:	617b      	str	r3, [r7, #20]
 8005b42:	687b      	ldr	r3, [r7, #4]
 8005b44:	681b      	ldr	r3, [r3, #0]
 8005b46:	699b      	ldr	r3, [r3, #24]
 8005b48:	613b      	str	r3, [r7, #16]
 8005b4a:	687b      	ldr	r3, [r7, #4]
 8005b4c:	681b      	ldr	r3, [r3, #0]
 8005b4e:	6a1b      	ldr	r3, [r3, #32]
 8005b50:	60fb      	str	r3, [r7, #12]
 8005b52:	683b      	ldr	r3, [r7, #0]
 8005b54:	681b      	ldr	r3, [r3, #0]
 8005b56:	697a      	ldr	r2, [r7, #20]
 8005b58:	4313      	orrs	r3, r2
 8005b5a:	617b      	str	r3, [r7, #20]
 8005b5c:	693b      	ldr	r3, [r7, #16]
 8005b5e:	f423 7340 	bic.w	r3, r3, #768	@ 0x300
 8005b62:	f023 0303 	bic.w	r3, r3, #3
 8005b66:	613b      	str	r3, [r7, #16]
 8005b68:	683b      	ldr	r3, [r7, #0]
 8005b6a:	689a      	ldr	r2, [r3, #8]
 8005b6c:	683b      	ldr	r3, [r7, #0]
 8005b6e:	699b      	ldr	r3, [r3, #24]
 8005b70:	021b      	lsls	r3, r3, #8
 8005b72:	4313      	orrs	r3, r2
 8005b74:	693a      	ldr	r2, [r7, #16]
 8005b76:	4313      	orrs	r3, r2
 8005b78:	613b      	str	r3, [r7, #16]
 8005b7a:	693b      	ldr	r3, [r7, #16]
 8005b7c:	f423 6340 	bic.w	r3, r3, #3072	@ 0xc00
 8005b80:	f023 030c 	bic.w	r3, r3, #12
 8005b84:	613b      	str	r3, [r7, #16]
 8005b86:	693b      	ldr	r3, [r7, #16]
 8005b88:	f423 4370 	bic.w	r3, r3, #61440	@ 0xf000
 8005b8c:	f023 03f0 	bic.w	r3, r3, #240	@ 0xf0
 8005b90:	613b      	str	r3, [r7, #16]
 8005b92:	683b      	ldr	r3, [r7, #0]
 8005b94:	68da      	ldr	r2, [r3, #12]
 8005b96:	683b      	ldr	r3, [r7, #0]
 8005b98:	69db      	ldr	r3, [r3, #28]
 8005b9a:	021b      	lsls	r3, r3, #8
 8005b9c:	4313      	orrs	r3, r2
 8005b9e:	693a      	ldr	r2, [r7, #16]
 8005ba0:	4313      	orrs	r3, r2
 8005ba2:	613b      	str	r3, [r7, #16]
 8005ba4:	683b      	ldr	r3, [r7, #0]
 8005ba6:	691b      	ldr	r3, [r3, #16]
 8005ba8:	011a      	lsls	r2, r3, #4
 8005baa:	683b      	ldr	r3, [r7, #0]
 8005bac:	6a1b      	ldr	r3, [r3, #32]
 8005bae:	031b      	lsls	r3, r3, #12
 8005bb0:	4313      	orrs	r3, r2
 8005bb2:	693a      	ldr	r2, [r7, #16]
 8005bb4:	4313      	orrs	r3, r2
 8005bb6:	613b      	str	r3, [r7, #16]
 8005bb8:	68fb      	ldr	r3, [r7, #12]
 8005bba:	f023 0322 	bic.w	r3, r3, #34	@ 0x22
 8005bbe:	60fb      	str	r3, [r7, #12]
 8005bc0:	68fb      	ldr	r3, [r7, #12]
 8005bc2:	f023 0388 	bic.w	r3, r3, #136	@ 0x88
 8005bc6:	60fb      	str	r3, [r7, #12]
 8005bc8:	683b      	ldr	r3, [r7, #0]
 8005bca:	685a      	ldr	r2, [r3, #4]
 8005bcc:	683b      	ldr	r3, [r7, #0]
 8005bce:	695b      	ldr	r3, [r3, #20]
 8005bd0:	011b      	lsls	r3, r3, #4
 8005bd2:	4313      	orrs	r3, r2
 8005bd4:	68fa      	ldr	r2, [r7, #12]
 8005bd6:	4313      	orrs	r3, r2
 8005bd8:	60fb      	str	r3, [r7, #12]
 8005bda:	687b      	ldr	r3, [r7, #4]
 8005bdc:	681b      	ldr	r3, [r3, #0]
 8005bde:	697a      	ldr	r2, [r7, #20]
 8005be0:	609a      	str	r2, [r3, #8]
 8005be2:	687b      	ldr	r3, [r7, #4]
 8005be4:	681b      	ldr	r3, [r3, #0]
 8005be6:	693a      	ldr	r2, [r7, #16]
 8005be8:	619a      	str	r2, [r3, #24]
 8005bea:	687b      	ldr	r3, [r7, #4]
 8005bec:	681b      	ldr	r3, [r3, #0]
 8005bee:	68fa      	ldr	r2, [r7, #12]
 8005bf0:	621a      	str	r2, [r3, #32]
 8005bf2:	687b      	ldr	r3, [r7, #4]
 8005bf4:	2201      	movs	r2, #1
 8005bf6:	f883 2048 	strb.w	r2, [r3, #72]	@ 0x48
 8005bfa:	687b      	ldr	r3, [r7, #4]
 8005bfc:	2201      	movs	r2, #1
 8005bfe:	f883 203e 	strb.w	r2, [r3, #62]	@ 0x3e
 8005c02:	687b      	ldr	r3, [r7, #4]
 8005c04:	2201      	movs	r2, #1
 8005c06:	f883 203f 	strb.w	r2, [r3, #63]	@ 0x3f
 8005c0a:	687b      	ldr	r3, [r7, #4]
 8005c0c:	2201      	movs	r2, #1
 8005c0e:	f883 2044 	strb.w	r2, [r3, #68]	@ 0x44
 8005c12:	687b      	ldr	r3, [r7, #4]
 8005c14:	2201      	movs	r2, #1
 8005c16:	f883 2045 	strb.w	r2, [r3, #69]	@ 0x45
 8005c1a:	687b      	ldr	r3, [r7, #4]
 8005c1c:	2201      	movs	r2, #1
 8005c1e:	f883 203d 	strb.w	r2, [r3, #61]	@ 0x3d
 8005c22:	2300      	movs	r3, #0
 8005c24:	4618      	mov	r0, r3
 8005c26:	3718      	adds	r7, #24
 8005c28:	46bd      	mov	sp, r7
 8005c2a:	bd80      	pop	{r7, pc}

08005c2c <HAL_TIM_Encoder_Start_IT>:
 8005c2c:	b580      	push	{r7, lr}
 8005c2e:	b084      	sub	sp, #16
 8005c30:	af00      	add	r7, sp, #0
 8005c32:	6078      	str	r0, [r7, #4]
 8005c34:	6039      	str	r1, [r7, #0]
 8005c36:	687b      	ldr	r3, [r7, #4]
 8005c38:	f893 303e 	ldrb.w	r3, [r3, #62]	@ 0x3e
 8005c3c:	73fb      	strb	r3, [r7, #15]
 8005c3e:	687b      	ldr	r3, [r7, #4]
 8005c40:	f893 303f 	ldrb.w	r3, [r3, #63]	@ 0x3f
 8005c44:	73bb      	strb	r3, [r7, #14]
 8005c46:	687b      	ldr	r3, [r7, #4]
 8005c48:	f893 3044 	ldrb.w	r3, [r3, #68]	@ 0x44
 8005c4c:	737b      	strb	r3, [r7, #13]
 8005c4e:	687b      	ldr	r3, [r7, #4]
 8005c50:	f893 3045 	ldrb.w	r3, [r3, #69]	@ 0x45
 8005c54:	733b      	strb	r3, [r7, #12]
 8005c56:	683b      	ldr	r3, [r7, #0]
 8005c58:	2b00      	cmp	r3, #0
 8005c5a:	d110      	bne.n	8005c7e <HAL_TIM_Encoder_Start_IT+0x52>
 8005c5c:	7bfb      	ldrb	r3, [r7, #15]
 8005c5e:	2b01      	cmp	r3, #1
 8005c60:	d102      	bne.n	8005c68 <HAL_TIM_Encoder_Start_IT+0x3c>
 8005c62:	7b7b      	ldrb	r3, [r7, #13]
 8005c64:	2b01      	cmp	r3, #1
 8005c66:	d001      	beq.n	8005c6c <HAL_TIM_Encoder_Start_IT+0x40>
 8005c68:	2301      	movs	r3, #1
 8005c6a:	e089      	b.n	8005d80 <HAL_TIM_Encoder_Start_IT+0x154>
 8005c6c:	687b      	ldr	r3, [r7, #4]
 8005c6e:	2202      	movs	r2, #2
 8005c70:	f883 203e 	strb.w	r2, [r3, #62]	@ 0x3e
 8005c74:	687b      	ldr	r3, [r7, #4]
 8005c76:	2202      	movs	r2, #2
 8005c78:	f883 2044 	strb.w	r2, [r3, #68]	@ 0x44
 8005c7c:	e031      	b.n	8005ce2 <HAL_TIM_Encoder_Start_IT+0xb6>
 8005c7e:	683b      	ldr	r3, [r7, #0]
 8005c80:	2b04      	cmp	r3, #4
 8005c82:	d110      	bne.n	8005ca6 <HAL_TIM_Encoder_Start_IT+0x7a>
 8005c84:	7bbb      	ldrb	r3, [r7, #14]
 8005c86:	2b01      	cmp	r3, #1
 8005c88:	d102      	bne.n	8005c90 <HAL_TIM_Encoder_Start_IT+0x64>
 8005c8a:	7b3b      	ldrb	r3, [r7, #12]
 8005c8c:	2b01      	cmp	r3, #1
 8005c8e:	d001      	beq.n	8005c94 <HAL_TIM_Encoder_Start_IT+0x68>
 8005c90:	2301      	movs	r3, #1
 8005c92:	e075      	b.n	8005d80 <HAL_TIM_Encoder_Start_IT+0x154>
 8005c94:	687b      	ldr	r3, [r7, #4]
 8005c96:	2202      	movs	r2, #2
 8005c98:	f883 203f 	strb.w	r2, [r3, #63]	@ 0x3f
 8005c9c:	687b      	ldr	r3, [r7, #4]
 8005c9e:	2202      	movs	r2, #2
 8005ca0:	f883 2045 	strb.w	r2, [r3, #69]	@ 0x45
 8005ca4:	e01d      	b.n	8005ce2 <HAL_TIM_Encoder_Start_IT+0xb6>
 8005ca6:	7bfb      	ldrb	r3, [r7, #15]
 8005ca8:	2b01      	cmp	r3, #1
 8005caa:	d108      	bne.n	8005cbe <HAL_TIM_Encoder_Start_IT+0x92>
 8005cac:	7bbb      	ldrb	r3, [r7, #14]
 8005cae:	2b01      	cmp	r3, #1
 8005cb0:	d105      	bne.n	8005cbe <HAL_TIM_Encoder_Start_IT+0x92>
 8005cb2:	7b7b      	ldrb	r3, [r7, #13]
 8005cb4:	2b01      	cmp	r3, #1
 8005cb6:	d102      	bne.n	8005cbe <HAL_TIM_Encoder_Start_IT+0x92>
 8005cb8:	7b3b      	ldrb	r3, [r7, #12]
 8005cba:	2b01      	cmp	r3, #1
 8005cbc:	d001      	beq.n	8005cc2 <HAL_TIM_Encoder_Start_IT+0x96>
 8005cbe:	2301      	movs	r3, #1
 8005cc0:	e05e      	b.n	8005d80 <HAL_TIM_Encoder_Start_IT+0x154>
 8005cc2:	687b      	ldr	r3, [r7, #4]
 8005cc4:	2202      	movs	r2, #2
 8005cc6:	f883 203e 	strb.w	r2, [r3, #62]	@ 0x3e
 8005cca:	687b      	ldr	r3, [r7, #4]
 8005ccc:	2202      	movs	r2, #2
 8005cce:	f883 203f 	strb.w	r2, [r3, #63]	@ 0x3f
 8005cd2:	687b      	ldr	r3, [r7, #4]
 8005cd4:	2202      	movs	r2, #2
 8005cd6:	f883 2044 	strb.w	r2, [r3, #68]	@ 0x44
 8005cda:	687b      	ldr	r3, [r7, #4]
 8005cdc:	2202      	movs	r2, #2
 8005cde:	f883 2045 	strb.w	r2, [r3, #69]	@ 0x45
 8005ce2:	683b      	ldr	r3, [r7, #0]
 8005ce4:	2b00      	cmp	r3, #0
 8005ce6:	d003      	beq.n	8005cf0 <HAL_TIM_Encoder_Start_IT+0xc4>
 8005ce8:	683b      	ldr	r3, [r7, #0]
 8005cea:	2b04      	cmp	r3, #4
 8005cec:	d010      	beq.n	8005d10 <HAL_TIM_Encoder_Start_IT+0xe4>
 8005cee:	e01f      	b.n	8005d30 <HAL_TIM_Encoder_Start_IT+0x104>
 8005cf0:	687b      	ldr	r3, [r7, #4]
 8005cf2:	681b      	ldr	r3, [r3, #0]
 8005cf4:	2201      	movs	r2, #1
 8005cf6:	2100      	movs	r1, #0
 8005cf8:	4618      	mov	r0, r3
 8005cfa:	f001 f95b 	bl	8006fb4 <TIM_CCxChannelCmd>
 8005cfe:	687b      	ldr	r3, [r7, #4]
 8005d00:	681b      	ldr	r3, [r3, #0]
 8005d02:	68da      	ldr	r2, [r3, #12]
 8005d04:	687b      	ldr	r3, [r7, #4]
 8005d06:	681b      	ldr	r3, [r3, #0]
 8005d08:	f042 0202 	orr.w	r2, r2, #2
 8005d0c:	60da      	str	r2, [r3, #12]
 8005d0e:	e02e      	b.n	8005d6e <HAL_TIM_Encoder_Start_IT+0x142>
 8005d10:	687b      	ldr	r3, [r7, #4]
 8005d12:	681b      	ldr	r3, [r3, #0]
 8005d14:	2201      	movs	r2, #1
 8005d16:	2104      	movs	r1, #4
 8005d18:	4618      	mov	r0, r3
 8005d1a:	f001 f94b 	bl	8006fb4 <TIM_CCxChannelCmd>
 8005d1e:	687b      	ldr	r3, [r7, #4]
 8005d20:	681b      	ldr	r3, [r3, #0]
 8005d22:	68da      	ldr	r2, [r3, #12]
 8005d24:	687b      	ldr	r3, [r7, #4]
 8005d26:	681b      	ldr	r3, [r3, #0]
 8005d28:	f042 0204 	orr.w	r2, r2, #4
 8005d2c:	60da      	str	r2, [r3, #12]
 8005d2e:	e01e      	b.n	8005d6e <HAL_TIM_Encoder_Start_IT+0x142>
 8005d30:	687b      	ldr	r3, [r7, #4]
 8005d32:	681b      	ldr	r3, [r3, #0]
 8005d34:	2201      	movs	r2, #1
 8005d36:	2100      	movs	r1, #0
 8005d38:	4618      	mov	r0, r3
 8005d3a:	f001 f93b 	bl	8006fb4 <TIM_CCxChannelCmd>
 8005d3e:	687b      	ldr	r3, [r7, #4]
 8005d40:	681b      	ldr	r3, [r3, #0]
 8005d42:	2201      	movs	r2, #1
 8005d44:	2104      	movs	r1, #4
 8005d46:	4618      	mov	r0, r3
 8005d48:	f001 f934 	bl	8006fb4 <TIM_CCxChannelCmd>
 8005d4c:	687b      	ldr	r3, [r7, #4]
 8005d4e:	681b      	ldr	r3, [r3, #0]
 8005d50:	68da      	ldr	r2, [r3, #12]
 8005d52:	687b      	ldr	r3, [r7, #4]
 8005d54:	681b      	ldr	r3, [r3, #0]
 8005d56:	f042 0202 	orr.w	r2, r2, #2
 8005d5a:	60da      	str	r2, [r3, #12]
 8005d5c:	687b      	ldr	r3, [r7, #4]
 8005d5e:	681b      	ldr	r3, [r3, #0]
 8005d60:	68da      	ldr	r2, [r3, #12]
 8005d62:	687b      	ldr	r3, [r7, #4]
 8005d64:	681b      	ldr	r3, [r3, #0]
 8005d66:	f042 0204 	orr.w	r2, r2, #4
 8005d6a:	60da      	str	r2, [r3, #12]
 8005d6c:	bf00      	nop
 8005d6e:	687b      	ldr	r3, [r7, #4]
 8005d70:	681b      	ldr	r3, [r3, #0]
 8005d72:	681a      	ldr	r2, [r3, #0]
 8005d74:	687b      	ldr	r3, [r7, #4]
 8005d76:	681b      	ldr	r3, [r3, #0]
 8005d78:	f042 0201 	orr.w	r2, r2, #1
 8005d7c:	601a      	str	r2, [r3, #0]
 8005d7e:	2300      	movs	r3, #0
 8005d80:	4618      	mov	r0, r3
 8005d82:	3710      	adds	r7, #16
 8005d84:	46bd      	mov	sp, r7
 8005d86:	bd80      	pop	{r7, pc}

08005d88 <HAL_TIM_IRQHandler>:
 8005d88:	b580      	push	{r7, lr}
 8005d8a:	b084      	sub	sp, #16
 8005d8c:	af00      	add	r7, sp, #0
 8005d8e:	6078      	str	r0, [r7, #4]
 8005d90:	687b      	ldr	r3, [r7, #4]
 8005d92:	681b      	ldr	r3, [r3, #0]
 8005d94:	68db      	ldr	r3, [r3, #12]
 8005d96:	60fb      	str	r3, [r7, #12]
 8005d98:	687b      	ldr	r3, [r7, #4]
 8005d9a:	681b      	ldr	r3, [r3, #0]
 8005d9c:	691b      	ldr	r3, [r3, #16]
 8005d9e:	60bb      	str	r3, [r7, #8]
 8005da0:	68bb      	ldr	r3, [r7, #8]
 8005da2:	f003 0302 	and.w	r3, r3, #2
 8005da6:	2b00      	cmp	r3, #0
 8005da8:	d020      	beq.n	8005dec <HAL_TIM_IRQHandler+0x64>
 8005daa:	68fb      	ldr	r3, [r7, #12]
 8005dac:	f003 0302 	and.w	r3, r3, #2
 8005db0:	2b00      	cmp	r3, #0
 8005db2:	d01b      	beq.n	8005dec <HAL_TIM_IRQHandler+0x64>
 8005db4:	687b      	ldr	r3, [r7, #4]
 8005db6:	681b      	ldr	r3, [r3, #0]
 8005db8:	f06f 0202 	mvn.w	r2, #2
 8005dbc:	611a      	str	r2, [r3, #16]
 8005dbe:	687b      	ldr	r3, [r7, #4]
 8005dc0:	2201      	movs	r2, #1
 8005dc2:	771a      	strb	r2, [r3, #28]
 8005dc4:	687b      	ldr	r3, [r7, #4]
 8005dc6:	681b      	ldr	r3, [r3, #0]
 8005dc8:	699b      	ldr	r3, [r3, #24]
 8005dca:	f003 0303 	and.w	r3, r3, #3
 8005dce:	2b00      	cmp	r3, #0
 8005dd0:	d003      	beq.n	8005dda <HAL_TIM_IRQHandler+0x52>
 8005dd2:	6878      	ldr	r0, [r7, #4]
 8005dd4:	f7fb facc 	bl	8001370 <HAL_TIM_IC_CaptureCallback>
 8005dd8:	e005      	b.n	8005de6 <HAL_TIM_IRQHandler+0x5e>
 8005dda:	6878      	ldr	r0, [r7, #4]
 8005ddc:	f000 fb9e 	bl	800651c <HAL_TIM_OC_DelayElapsedCallback>
 8005de0:	6878      	ldr	r0, [r7, #4]
 8005de2:	f000 fba5 	bl	8006530 <HAL_TIM_PWM_PulseFinishedCallback>
 8005de6:	687b      	ldr	r3, [r7, #4]
 8005de8:	2200      	movs	r2, #0
 8005dea:	771a      	strb	r2, [r3, #28]
 8005dec:	68bb      	ldr	r3, [r7, #8]
 8005dee:	f003 0304 	and.w	r3, r3, #4
 8005df2:	2b00      	cmp	r3, #0
 8005df4:	d020      	beq.n	8005e38 <HAL_TIM_IRQHandler+0xb0>
 8005df6:	68fb      	ldr	r3, [r7, #12]
 8005df8:	f003 0304 	and.w	r3, r3, #4
 8005dfc:	2b00      	cmp	r3, #0
 8005dfe:	d01b      	beq.n	8005e38 <HAL_TIM_IRQHandler+0xb0>
 8005e00:	687b      	ldr	r3, [r7, #4]
 8005e02:	681b      	ldr	r3, [r3, #0]
 8005e04:	f06f 0204 	mvn.w	r2, #4
 8005e08:	611a      	str	r2, [r3, #16]
 8005e0a:	687b      	ldr	r3, [r7, #4]
 8005e0c:	2202      	movs	r2, #2
 8005e0e:	771a      	strb	r2, [r3, #28]
 8005e10:	687b      	ldr	r3, [r7, #4]
 8005e12:	681b      	ldr	r3, [r3, #0]
 8005e14:	699b      	ldr	r3, [r3, #24]
 8005e16:	f403 7340 	and.w	r3, r3, #768	@ 0x300
 8005e1a:	2b00      	cmp	r3, #0
 8005e1c:	d003      	beq.n	8005e26 <HAL_TIM_IRQHandler+0x9e>
 8005e1e:	6878      	ldr	r0, [r7, #4]
 8005e20:	f7fb faa6 	bl	8001370 <HAL_TIM_IC_CaptureCallback>
 8005e24:	e005      	b.n	8005e32 <HAL_TIM_IRQHandler+0xaa>
 8005e26:	6878      	ldr	r0, [r7, #4]
 8005e28:	f000 fb78 	bl	800651c <HAL_TIM_OC_DelayElapsedCallback>
 8005e2c:	6878      	ldr	r0, [r7, #4]
 8005e2e:	f000 fb7f 	bl	8006530 <HAL_TIM_PWM_PulseFinishedCallback>
 8005e32:	687b      	ldr	r3, [r7, #4]
 8005e34:	2200      	movs	r2, #0
 8005e36:	771a      	strb	r2, [r3, #28]
 8005e38:	68bb      	ldr	r3, [r7, #8]
 8005e3a:	f003 0308 	and.w	r3, r3, #8
 8005e3e:	2b00      	cmp	r3, #0
 8005e40:	d020      	beq.n	8005e84 <HAL_TIM_IRQHandler+0xfc>
 8005e42:	68fb      	ldr	r3, [r7, #12]
 8005e44:	f003 0308 	and.w	r3, r3, #8
 8005e48:	2b00      	cmp	r3, #0
 8005e4a:	d01b      	beq.n	8005e84 <HAL_TIM_IRQHandler+0xfc>
 8005e4c:	687b      	ldr	r3, [r7, #4]
 8005e4e:	681b      	ldr	r3, [r3, #0]
 8005e50:	f06f 0208 	mvn.w	r2, #8
 8005e54:	611a      	str	r2, [r3, #16]
 8005e56:	687b      	ldr	r3, [r7, #4]
 8005e58:	2204      	movs	r2, #4
 8005e5a:	771a      	strb	r2, [r3, #28]
 8005e5c:	687b      	ldr	r3, [r7, #4]
 8005e5e:	681b      	ldr	r3, [r3, #0]
 8005e60:	69db      	ldr	r3, [r3, #28]
 8005e62:	f003 0303 	and.w	r3, r3, #3
 8005e66:	2b00      	cmp	r3, #0
 8005e68:	d003      	beq.n	8005e72 <HAL_TIM_IRQHandler+0xea>
 8005e6a:	6878      	ldr	r0, [r7, #4]
 8005e6c:	f7fb fa80 	bl	8001370 <HAL_TIM_IC_CaptureCallback>
 8005e70:	e005      	b.n	8005e7e <HAL_TIM_IRQHandler+0xf6>
 8005e72:	6878      	ldr	r0, [r7, #4]
 8005e74:	f000 fb52 	bl	800651c <HAL_TIM_OC_DelayElapsedCallback>
 8005e78:	6878      	ldr	r0, [r7, #4]
 8005e7a:	f000 fb59 	bl	8006530 <HAL_TIM_PWM_PulseFinishedCallback>
 8005e7e:	687b      	ldr	r3, [r7, #4]
 8005e80:	2200      	movs	r2, #0
 8005e82:	771a      	strb	r2, [r3, #28]
 8005e84:	68bb      	ldr	r3, [r7, #8]
 8005e86:	f003 0310 	and.w	r3, r3, #16
 8005e8a:	2b00      	cmp	r3, #0
 8005e8c:	d020      	beq.n	8005ed0 <HAL_TIM_IRQHandler+0x148>
 8005e8e:	68fb      	ldr	r3, [r7, #12]
 8005e90:	f003 0310 	and.w	r3, r3, #16
 8005e94:	2b00      	cmp	r3, #0
 8005e96:	d01b      	beq.n	8005ed0 <HAL_TIM_IRQHandler+0x148>
 8005e98:	687b      	ldr	r3, [r7, #4]
 8005e9a:	681b      	ldr	r3, [r3, #0]
 8005e9c:	f06f 0210 	mvn.w	r2, #16
 8005ea0:	611a      	str	r2, [r3, #16]
 8005ea2:	687b      	ldr	r3, [r7, #4]
 8005ea4:	2208      	movs	r2, #8
 8005ea6:	771a      	strb	r2, [r3, #28]
 8005ea8:	687b      	ldr	r3, [r7, #4]
 8005eaa:	681b      	ldr	r3, [r3, #0]
 8005eac:	69db      	ldr	r3, [r3, #28]
 8005eae:	f403 7340 	and.w	r3, r3, #768	@ 0x300
 8005eb2:	2b00      	cmp	r3, #0
 8005eb4:	d003      	beq.n	8005ebe <HAL_TIM_IRQHandler+0x136>
 8005eb6:	6878      	ldr	r0, [r7, #4]
 8005eb8:	f7fb fa5a 	bl	8001370 <HAL_TIM_IC_CaptureCallback>
 8005ebc:	e005      	b.n	8005eca <HAL_TIM_IRQHandler+0x142>
 8005ebe:	6878      	ldr	r0, [r7, #4]
 8005ec0:	f000 fb2c 	bl	800651c <HAL_TIM_OC_DelayElapsedCallback>
 8005ec4:	6878      	ldr	r0, [r7, #4]
 8005ec6:	f000 fb33 	bl	8006530 <HAL_TIM_PWM_PulseFinishedCallback>
 8005eca:	687b      	ldr	r3, [r7, #4]
 8005ecc:	2200      	movs	r2, #0
 8005ece:	771a      	strb	r2, [r3, #28]
 8005ed0:	68bb      	ldr	r3, [r7, #8]
 8005ed2:	f003 0301 	and.w	r3, r3, #1
 8005ed6:	2b00      	cmp	r3, #0
 8005ed8:	d00c      	beq.n	8005ef4 <HAL_TIM_IRQHandler+0x16c>
 8005eda:	68fb      	ldr	r3, [r7, #12]
 8005edc:	f003 0301 	and.w	r3, r3, #1
 8005ee0:	2b00      	cmp	r3, #0
 8005ee2:	d007      	beq.n	8005ef4 <HAL_TIM_IRQHandler+0x16c>
 8005ee4:	687b      	ldr	r3, [r7, #4]
 8005ee6:	681b      	ldr	r3, [r3, #0]
 8005ee8:	f06f 0201 	mvn.w	r2, #1
 8005eec:	611a      	str	r2, [r3, #16]
 8005eee:	6878      	ldr	r0, [r7, #4]
 8005ef0:	f000 fb0a 	bl	8006508 <HAL_TIM_PeriodElapsedCallback>
 8005ef4:	68bb      	ldr	r3, [r7, #8]
 8005ef6:	f003 0380 	and.w	r3, r3, #128	@ 0x80
 8005efa:	2b00      	cmp	r3, #0
 8005efc:	d00c      	beq.n	8005f18 <HAL_TIM_IRQHandler+0x190>
 8005efe:	68fb      	ldr	r3, [r7, #12]
 8005f00:	f003 0380 	and.w	r3, r3, #128	@ 0x80
 8005f04:	2b00      	cmp	r3, #0
 8005f06:	d007      	beq.n	8005f18 <HAL_TIM_IRQHandler+0x190>
 8005f08:	687b      	ldr	r3, [r7, #4]
 8005f0a:	681b      	ldr	r3, [r3, #0]
 8005f0c:	f06f 0280 	mvn.w	r2, #128	@ 0x80
 8005f10:	611a      	str	r2, [r3, #16]
 8005f12:	6878      	ldr	r0, [r7, #4]
 8005f14:	f001 f984 	bl	8007220 <HAL_TIMEx_BreakCallback>
 8005f18:	68bb      	ldr	r3, [r7, #8]
 8005f1a:	f403 7380 	and.w	r3, r3, #256	@ 0x100
 8005f1e:	2b00      	cmp	r3, #0
 8005f20:	d00c      	beq.n	8005f3c <HAL_TIM_IRQHandler+0x1b4>
 8005f22:	68fb      	ldr	r3, [r7, #12]
 8005f24:	f003 0380 	and.w	r3, r3, #128	@ 0x80
 8005f28:	2b00      	cmp	r3, #0
 8005f2a:	d007      	beq.n	8005f3c <HAL_TIM_IRQHandler+0x1b4>
 8005f2c:	687b      	ldr	r3, [r7, #4]
 8005f2e:	681b      	ldr	r3, [r3, #0]
 8005f30:	f46f 7280 	mvn.w	r2, #256	@ 0x100
 8005f34:	611a      	str	r2, [r3, #16]
 8005f36:	6878      	ldr	r0, [r7, #4]
 8005f38:	f001 f97c 	bl	8007234 <HAL_TIMEx_Break2Callback>
 8005f3c:	68bb      	ldr	r3, [r7, #8]
 8005f3e:	f003 0340 	and.w	r3, r3, #64	@ 0x40
 8005f42:	2b00      	cmp	r3, #0
 8005f44:	d00c      	beq.n	8005f60 <HAL_TIM_IRQHandler+0x1d8>
 8005f46:	68fb      	ldr	r3, [r7, #12]
 8005f48:	f003 0340 	and.w	r3, r3, #64	@ 0x40
 8005f4c:	2b00      	cmp	r3, #0
 8005f4e:	d007      	beq.n	8005f60 <HAL_TIM_IRQHandler+0x1d8>
 8005f50:	687b      	ldr	r3, [r7, #4]
 8005f52:	681b      	ldr	r3, [r3, #0]
 8005f54:	f06f 0240 	mvn.w	r2, #64	@ 0x40
 8005f58:	611a      	str	r2, [r3, #16]
 8005f5a:	6878      	ldr	r0, [r7, #4]
 8005f5c:	f000 faf2 	bl	8006544 <HAL_TIM_TriggerCallback>
 8005f60:	68bb      	ldr	r3, [r7, #8]
 8005f62:	f003 0320 	and.w	r3, r3, #32
 8005f66:	2b00      	cmp	r3, #0
 8005f68:	d00c      	beq.n	8005f84 <HAL_TIM_IRQHandler+0x1fc>
 8005f6a:	68fb      	ldr	r3, [r7, #12]
 8005f6c:	f003 0320 	and.w	r3, r3, #32
 8005f70:	2b00      	cmp	r3, #0
 8005f72:	d007      	beq.n	8005f84 <HAL_TIM_IRQHandler+0x1fc>
 8005f74:	687b      	ldr	r3, [r7, #4]
 8005f76:	681b      	ldr	r3, [r3, #0]
 8005f78:	f06f 0220 	mvn.w	r2, #32
 8005f7c:	611a      	str	r2, [r3, #16]
 8005f7e:	6878      	ldr	r0, [r7, #4]
 8005f80:	f001 f944 	bl	800720c <HAL_TIMEx_CommutCallback>
 8005f84:	bf00      	nop
 8005f86:	3710      	adds	r7, #16
 8005f88:	46bd      	mov	sp, r7
 8005f8a:	bd80      	pop	{r7, pc}

08005f8c <HAL_TIM_IC_ConfigChannel>:
 8005f8c:	b580      	push	{r7, lr}
 8005f8e:	b086      	sub	sp, #24
 8005f90:	af00      	add	r7, sp, #0
 8005f92:	60f8      	str	r0, [r7, #12]
 8005f94:	60b9      	str	r1, [r7, #8]
 8005f96:	607a      	str	r2, [r7, #4]
 8005f98:	2300      	movs	r3, #0
 8005f9a:	75fb      	strb	r3, [r7, #23]
 8005f9c:	68fb      	ldr	r3, [r7, #12]
 8005f9e:	f893 303c 	ldrb.w	r3, [r3, #60]	@ 0x3c
 8005fa2:	2b01      	cmp	r3, #1
 8005fa4:	d101      	bne.n	8005faa <HAL_TIM_IC_ConfigChannel+0x1e>
 8005fa6:	2302      	movs	r3, #2
 8005fa8:	e088      	b.n	80060bc <HAL_TIM_IC_ConfigChannel+0x130>
 8005faa:	68fb      	ldr	r3, [r7, #12]
 8005fac:	2201      	movs	r2, #1
 8005fae:	f883 203c 	strb.w	r2, [r3, #60]	@ 0x3c
 8005fb2:	687b      	ldr	r3, [r7, #4]
 8005fb4:	2b00      	cmp	r3, #0
 8005fb6:	d11b      	bne.n	8005ff0 <HAL_TIM_IC_ConfigChannel+0x64>
 8005fb8:	68fb      	ldr	r3, [r7, #12]
 8005fba:	6818      	ldr	r0, [r3, #0]
 8005fbc:	68bb      	ldr	r3, [r7, #8]
 8005fbe:	6819      	ldr	r1, [r3, #0]
 8005fc0:	68bb      	ldr	r3, [r7, #8]
 8005fc2:	685a      	ldr	r2, [r3, #4]
 8005fc4:	68bb      	ldr	r3, [r7, #8]
 8005fc6:	68db      	ldr	r3, [r3, #12]
 8005fc8:	f000 fe36 	bl	8006c38 <TIM_TI1_SetConfig>
 8005fcc:	68fb      	ldr	r3, [r7, #12]
 8005fce:	681b      	ldr	r3, [r3, #0]
 8005fd0:	699a      	ldr	r2, [r3, #24]
 8005fd2:	68fb      	ldr	r3, [r7, #12]
 8005fd4:	681b      	ldr	r3, [r3, #0]
 8005fd6:	f022 020c 	bic.w	r2, r2, #12
 8005fda:	619a      	str	r2, [r3, #24]
 8005fdc:	68fb      	ldr	r3, [r7, #12]
 8005fde:	681b      	ldr	r3, [r3, #0]
 8005fe0:	6999      	ldr	r1, [r3, #24]
 8005fe2:	68bb      	ldr	r3, [r7, #8]
 8005fe4:	689a      	ldr	r2, [r3, #8]
 8005fe6:	68fb      	ldr	r3, [r7, #12]
 8005fe8:	681b      	ldr	r3, [r3, #0]
 8005fea:	430a      	orrs	r2, r1
 8005fec:	619a      	str	r2, [r3, #24]
 8005fee:	e060      	b.n	80060b2 <HAL_TIM_IC_ConfigChannel+0x126>
 8005ff0:	687b      	ldr	r3, [r7, #4]
 8005ff2:	2b04      	cmp	r3, #4
 8005ff4:	d11c      	bne.n	8006030 <HAL_TIM_IC_ConfigChannel+0xa4>
 8005ff6:	68fb      	ldr	r3, [r7, #12]
 8005ff8:	6818      	ldr	r0, [r3, #0]
 8005ffa:	68bb      	ldr	r3, [r7, #8]
 8005ffc:	6819      	ldr	r1, [r3, #0]
 8005ffe:	68bb      	ldr	r3, [r7, #8]
 8006000:	685a      	ldr	r2, [r3, #4]
 8006002:	68bb      	ldr	r3, [r7, #8]
 8006004:	68db      	ldr	r3, [r3, #12]
 8006006:	f000 feb4 	bl	8006d72 <TIM_TI2_SetConfig>
 800600a:	68fb      	ldr	r3, [r7, #12]
 800600c:	681b      	ldr	r3, [r3, #0]
 800600e:	699a      	ldr	r2, [r3, #24]
 8006010:	68fb      	ldr	r3, [r7, #12]
 8006012:	681b      	ldr	r3, [r3, #0]
 8006014:	f422 6240 	bic.w	r2, r2, #3072	@ 0xc00
 8006018:	619a      	str	r2, [r3, #24]
 800601a:	68fb      	ldr	r3, [r7, #12]
 800601c:	681b      	ldr	r3, [r3, #0]
 800601e:	6999      	ldr	r1, [r3, #24]
 8006020:	68bb      	ldr	r3, [r7, #8]
 8006022:	689b      	ldr	r3, [r3, #8]
 8006024:	021a      	lsls	r2, r3, #8
 8006026:	68fb      	ldr	r3, [r7, #12]
 8006028:	681b      	ldr	r3, [r3, #0]
 800602a:	430a      	orrs	r2, r1
 800602c:	619a      	str	r2, [r3, #24]
 800602e:	e040      	b.n	80060b2 <HAL_TIM_IC_ConfigChannel+0x126>
 8006030:	687b      	ldr	r3, [r7, #4]
 8006032:	2b08      	cmp	r3, #8
 8006034:	d11b      	bne.n	800606e <HAL_TIM_IC_ConfigChannel+0xe2>
 8006036:	68fb      	ldr	r3, [r7, #12]
 8006038:	6818      	ldr	r0, [r3, #0]
 800603a:	68bb      	ldr	r3, [r7, #8]
 800603c:	6819      	ldr	r1, [r3, #0]
 800603e:	68bb      	ldr	r3, [r7, #8]
 8006040:	685a      	ldr	r2, [r3, #4]
 8006042:	68bb      	ldr	r3, [r7, #8]
 8006044:	68db      	ldr	r3, [r3, #12]
 8006046:	f000 ff01 	bl	8006e4c <TIM_TI3_SetConfig>
 800604a:	68fb      	ldr	r3, [r7, #12]
 800604c:	681b      	ldr	r3, [r3, #0]
 800604e:	69da      	ldr	r2, [r3, #28]
 8006050:	68fb      	ldr	r3, [r7, #12]
 8006052:	681b      	ldr	r3, [r3, #0]
 8006054:	f022 020c 	bic.w	r2, r2, #12
 8006058:	61da      	str	r2, [r3, #28]
 800605a:	68fb      	ldr	r3, [r7, #12]
 800605c:	681b      	ldr	r3, [r3, #0]
 800605e:	69d9      	ldr	r1, [r3, #28]
 8006060:	68bb      	ldr	r3, [r7, #8]
 8006062:	689a      	ldr	r2, [r3, #8]
 8006064:	68fb      	ldr	r3, [r7, #12]
 8006066:	681b      	ldr	r3, [r3, #0]
 8006068:	430a      	orrs	r2, r1
 800606a:	61da      	str	r2, [r3, #28]
 800606c:	e021      	b.n	80060b2 <HAL_TIM_IC_ConfigChannel+0x126>
 800606e:	687b      	ldr	r3, [r7, #4]
 8006070:	2b0c      	cmp	r3, #12
 8006072:	d11c      	bne.n	80060ae <HAL_TIM_IC_ConfigChannel+0x122>
 8006074:	68fb      	ldr	r3, [r7, #12]
 8006076:	6818      	ldr	r0, [r3, #0]
 8006078:	68bb      	ldr	r3, [r7, #8]
 800607a:	6819      	ldr	r1, [r3, #0]
 800607c:	68bb      	ldr	r3, [r7, #8]
 800607e:	685a      	ldr	r2, [r3, #4]
 8006080:	68bb      	ldr	r3, [r7, #8]
 8006082:	68db      	ldr	r3, [r3, #12]
 8006084:	f000 ff1e 	bl	8006ec4 <TIM_TI4_SetConfig>
 8006088:	68fb      	ldr	r3, [r7, #12]
 800608a:	681b      	ldr	r3, [r3, #0]
 800608c:	69da      	ldr	r2, [r3, #28]
 800608e:	68fb      	ldr	r3, [r7, #12]
 8006090:	681b      	ldr	r3, [r3, #0]
 8006092:	f422 6240 	bic.w	r2, r2, #3072	@ 0xc00
 8006096:	61da      	str	r2, [r3, #28]
 8006098:	68fb      	ldr	r3, [r7, #12]
 800609a:	681b      	ldr	r3, [r3, #0]
 800609c:	69d9      	ldr	r1, [r3, #28]
 800609e:	68bb      	ldr	r3, [r7, #8]
 80060a0:	689b      	ldr	r3, [r3, #8]
 80060a2:	021a      	lsls	r2, r3, #8
 80060a4:	68fb      	ldr	r3, [r7, #12]
 80060a6:	681b      	ldr	r3, [r3, #0]
 80060a8:	430a      	orrs	r2, r1
 80060aa:	61da      	str	r2, [r3, #28]
 80060ac:	e001      	b.n	80060b2 <HAL_TIM_IC_ConfigChannel+0x126>
 80060ae:	2301      	movs	r3, #1
 80060b0:	75fb      	strb	r3, [r7, #23]
 80060b2:	68fb      	ldr	r3, [r7, #12]
 80060b4:	2200      	movs	r2, #0
 80060b6:	f883 203c 	strb.w	r2, [r3, #60]	@ 0x3c
 80060ba:	7dfb      	ldrb	r3, [r7, #23]
 80060bc:	4618      	mov	r0, r3
 80060be:	3718      	adds	r7, #24
 80060c0:	46bd      	mov	sp, r7
 80060c2:	bd80      	pop	{r7, pc}

080060c4 <HAL_TIM_PWM_ConfigChannel>:
 80060c4:	b580      	push	{r7, lr}
 80060c6:	b086      	sub	sp, #24
 80060c8:	af00      	add	r7, sp, #0
 80060ca:	60f8      	str	r0, [r7, #12]
 80060cc:	60b9      	str	r1, [r7, #8]
 80060ce:	607a      	str	r2, [r7, #4]
 80060d0:	2300      	movs	r3, #0
 80060d2:	75fb      	strb	r3, [r7, #23]
 80060d4:	68fb      	ldr	r3, [r7, #12]
 80060d6:	f893 303c 	ldrb.w	r3, [r3, #60]	@ 0x3c
 80060da:	2b01      	cmp	r3, #1
 80060dc:	d101      	bne.n	80060e2 <HAL_TIM_PWM_ConfigChannel+0x1e>
 80060de:	2302      	movs	r3, #2
 80060e0:	e0ff      	b.n	80062e2 <HAL_TIM_PWM_ConfigChannel+0x21e>
 80060e2:	68fb      	ldr	r3, [r7, #12]
 80060e4:	2201      	movs	r2, #1
 80060e6:	f883 203c 	strb.w	r2, [r3, #60]	@ 0x3c
 80060ea:	687b      	ldr	r3, [r7, #4]
 80060ec:	2b14      	cmp	r3, #20
 80060ee:	f200 80f0 	bhi.w	80062d2 <HAL_TIM_PWM_ConfigChannel+0x20e>
 80060f2:	a201      	add	r2, pc, #4	@ (adr r2, 80060f8 <HAL_TIM_PWM_ConfigChannel+0x34>)
 80060f4:	f852 f023 	ldr.w	pc, [r2, r3, lsl #2]
 80060f8:	0800614d 	.word	0x0800614d
 80060fc:	080062d3 	.word	0x080062d3
 8006100:	080062d3 	.word	0x080062d3
 8006104:	080062d3 	.word	0x080062d3
 8006108:	0800618d 	.word	0x0800618d
 800610c:	080062d3 	.word	0x080062d3
 8006110:	080062d3 	.word	0x080062d3
 8006114:	080062d3 	.word	0x080062d3
 8006118:	080061cf 	.word	0x080061cf
 800611c:	080062d3 	.word	0x080062d3
 8006120:	080062d3 	.word	0x080062d3
 8006124:	080062d3 	.word	0x080062d3
 8006128:	0800620f 	.word	0x0800620f
 800612c:	080062d3 	.word	0x080062d3
 8006130:	080062d3 	.word	0x080062d3
 8006134:	080062d3 	.word	0x080062d3
 8006138:	08006251 	.word	0x08006251
 800613c:	080062d3 	.word	0x080062d3
 8006140:	080062d3 	.word	0x080062d3
 8006144:	080062d3 	.word	0x080062d3
 8006148:	08006291 	.word	0x08006291
 800614c:	68fb      	ldr	r3, [r7, #12]
 800614e:	681b      	ldr	r3, [r3, #0]
 8006150:	68b9      	ldr	r1, [r7, #8]
 8006152:	4618      	mov	r0, r3
 8006154:	f000 fa9a 	bl	800668c <TIM_OC1_SetConfig>
 8006158:	68fb      	ldr	r3, [r7, #12]
 800615a:	681b      	ldr	r3, [r3, #0]
 800615c:	699a      	ldr	r2, [r3, #24]
 800615e:	68fb      	ldr	r3, [r7, #12]
 8006160:	681b      	ldr	r3, [r3, #0]
 8006162:	f042 0208 	orr.w	r2, r2, #8
 8006166:	619a      	str	r2, [r3, #24]
 8006168:	68fb      	ldr	r3, [r7, #12]
 800616a:	681b      	ldr	r3, [r3, #0]
 800616c:	699a      	ldr	r2, [r3, #24]
 800616e:	68fb      	ldr	r3, [r7, #12]
 8006170:	681b      	ldr	r3, [r3, #0]
 8006172:	f022 0204 	bic.w	r2, r2, #4
 8006176:	619a      	str	r2, [r3, #24]
 8006178:	68fb      	ldr	r3, [r7, #12]
 800617a:	681b      	ldr	r3, [r3, #0]
 800617c:	6999      	ldr	r1, [r3, #24]
 800617e:	68bb      	ldr	r3, [r7, #8]
 8006180:	691a      	ldr	r2, [r3, #16]
 8006182:	68fb      	ldr	r3, [r7, #12]
 8006184:	681b      	ldr	r3, [r3, #0]
 8006186:	430a      	orrs	r2, r1
 8006188:	619a      	str	r2, [r3, #24]
 800618a:	e0a5      	b.n	80062d8 <HAL_TIM_PWM_ConfigChannel+0x214>
 800618c:	68fb      	ldr	r3, [r7, #12]
 800618e:	681b      	ldr	r3, [r3, #0]
 8006190:	68b9      	ldr	r1, [r7, #8]
 8006192:	4618      	mov	r0, r3
 8006194:	f000 fb0a 	bl	80067ac <TIM_OC2_SetConfig>
 8006198:	68fb      	ldr	r3, [r7, #12]
 800619a:	681b      	ldr	r3, [r3, #0]
 800619c:	699a      	ldr	r2, [r3, #24]
 800619e:	68fb      	ldr	r3, [r7, #12]
 80061a0:	681b      	ldr	r3, [r3, #0]
 80061a2:	f442 6200 	orr.w	r2, r2, #2048	@ 0x800
 80061a6:	619a      	str	r2, [r3, #24]
 80061a8:	68fb      	ldr	r3, [r7, #12]
 80061aa:	681b      	ldr	r3, [r3, #0]
 80061ac:	699a      	ldr	r2, [r3, #24]
 80061ae:	68fb      	ldr	r3, [r7, #12]
 80061b0:	681b      	ldr	r3, [r3, #0]
 80061b2:	f422 6280 	bic.w	r2, r2, #1024	@ 0x400
 80061b6:	619a      	str	r2, [r3, #24]
 80061b8:	68fb      	ldr	r3, [r7, #12]
 80061ba:	681b      	ldr	r3, [r3, #0]
 80061bc:	6999      	ldr	r1, [r3, #24]
 80061be:	68bb      	ldr	r3, [r7, #8]
 80061c0:	691b      	ldr	r3, [r3, #16]
 80061c2:	021a      	lsls	r2, r3, #8
 80061c4:	68fb      	ldr	r3, [r7, #12]
 80061c6:	681b      	ldr	r3, [r3, #0]
 80061c8:	430a      	orrs	r2, r1
 80061ca:	619a      	str	r2, [r3, #24]
 80061cc:	e084      	b.n	80062d8 <HAL_TIM_PWM_ConfigChannel+0x214>
 80061ce:	68fb      	ldr	r3, [r7, #12]
 80061d0:	681b      	ldr	r3, [r3, #0]
 80061d2:	68b9      	ldr	r1, [r7, #8]
 80061d4:	4618      	mov	r0, r3
 80061d6:	f000 fb73 	bl	80068c0 <TIM_OC3_SetConfig>
 80061da:	68fb      	ldr	r3, [r7, #12]
 80061dc:	681b      	ldr	r3, [r3, #0]
 80061de:	69da      	ldr	r2, [r3, #28]
 80061e0:	68fb      	ldr	r3, [r7, #12]
 80061e2:	681b      	ldr	r3, [r3, #0]
 80061e4:	f042 0208 	orr.w	r2, r2, #8
 80061e8:	61da      	str	r2, [r3, #28]
 80061ea:	68fb      	ldr	r3, [r7, #12]
 80061ec:	681b      	ldr	r3, [r3, #0]
 80061ee:	69da      	ldr	r2, [r3, #28]
 80061f0:	68fb      	ldr	r3, [r7, #12]
 80061f2:	681b      	ldr	r3, [r3, #0]
 80061f4:	f022 0204 	bic.w	r2, r2, #4
 80061f8:	61da      	str	r2, [r3, #28]
 80061fa:	68fb      	ldr	r3, [r7, #12]
 80061fc:	681b      	ldr	r3, [r3, #0]
 80061fe:	69d9      	ldr	r1, [r3, #28]
 8006200:	68bb      	ldr	r3, [r7, #8]
 8006202:	691a      	ldr	r2, [r3, #16]
 8006204:	68fb      	ldr	r3, [r7, #12]
 8006206:	681b      	ldr	r3, [r3, #0]
 8006208:	430a      	orrs	r2, r1
 800620a:	61da      	str	r2, [r3, #28]
 800620c:	e064      	b.n	80062d8 <HAL_TIM_PWM_ConfigChannel+0x214>
 800620e:	68fb      	ldr	r3, [r7, #12]
 8006210:	681b      	ldr	r3, [r3, #0]
 8006212:	68b9      	ldr	r1, [r7, #8]
 8006214:	4618      	mov	r0, r3
 8006216:	f000 fbdb 	bl	80069d0 <TIM_OC4_SetConfig>
 800621a:	68fb      	ldr	r3, [r7, #12]
 800621c:	681b      	ldr	r3, [r3, #0]
 800621e:	69da      	ldr	r2, [r3, #28]
 8006220:	68fb      	ldr	r3, [r7, #12]
 8006222:	681b      	ldr	r3, [r3, #0]
 8006224:	f442 6200 	orr.w	r2, r2, #2048	@ 0x800
 8006228:	61da      	str	r2, [r3, #28]
 800622a:	68fb      	ldr	r3, [r7, #12]
 800622c:	681b      	ldr	r3, [r3, #0]
 800622e:	69da      	ldr	r2, [r3, #28]
 8006230:	68fb      	ldr	r3, [r7, #12]
 8006232:	681b      	ldr	r3, [r3, #0]
 8006234:	f422 6280 	bic.w	r2, r2, #1024	@ 0x400
 8006238:	61da      	str	r2, [r3, #28]
 800623a:	68fb      	ldr	r3, [r7, #12]
 800623c:	681b      	ldr	r3, [r3, #0]
 800623e:	69d9      	ldr	r1, [r3, #28]
 8006240:	68bb      	ldr	r3, [r7, #8]
 8006242:	691b      	ldr	r3, [r3, #16]
 8006244:	021a      	lsls	r2, r3, #8
 8006246:	68fb      	ldr	r3, [r7, #12]
 8006248:	681b      	ldr	r3, [r3, #0]
 800624a:	430a      	orrs	r2, r1
 800624c:	61da      	str	r2, [r3, #28]
 800624e:	e043      	b.n	80062d8 <HAL_TIM_PWM_ConfigChannel+0x214>
 8006250:	68fb      	ldr	r3, [r7, #12]
 8006252:	681b      	ldr	r3, [r3, #0]
 8006254:	68b9      	ldr	r1, [r7, #8]
 8006256:	4618      	mov	r0, r3
 8006258:	f000 fc24 	bl	8006aa4 <TIM_OC5_SetConfig>
 800625c:	68fb      	ldr	r3, [r7, #12]
 800625e:	681b      	ldr	r3, [r3, #0]
 8006260:	6d5a      	ldr	r2, [r3, #84]	@ 0x54
 8006262:	68fb      	ldr	r3, [r7, #12]
 8006264:	681b      	ldr	r3, [r3, #0]
 8006266:	f042 0208 	orr.w	r2, r2, #8
 800626a:	655a      	str	r2, [r3, #84]	@ 0x54
 800626c:	68fb      	ldr	r3, [r7, #12]
 800626e:	681b      	ldr	r3, [r3, #0]
 8006270:	6d5a      	ldr	r2, [r3, #84]	@ 0x54
 8006272:	68fb      	ldr	r3, [r7, #12]
 8006274:	681b      	ldr	r3, [r3, #0]
 8006276:	f022 0204 	bic.w	r2, r2, #4
 800627a:	655a      	str	r2, [r3, #84]	@ 0x54
 800627c:	68fb      	ldr	r3, [r7, #12]
 800627e:	681b      	ldr	r3, [r3, #0]
 8006280:	6d59      	ldr	r1, [r3, #84]	@ 0x54
 8006282:	68bb      	ldr	r3, [r7, #8]
 8006284:	691a      	ldr	r2, [r3, #16]
 8006286:	68fb      	ldr	r3, [r7, #12]
 8006288:	681b      	ldr	r3, [r3, #0]
 800628a:	430a      	orrs	r2, r1
 800628c:	655a      	str	r2, [r3, #84]	@ 0x54
 800628e:	e023      	b.n	80062d8 <HAL_TIM_PWM_ConfigChannel+0x214>
 8006290:	68fb      	ldr	r3, [r7, #12]
 8006292:	681b      	ldr	r3, [r3, #0]
 8006294:	68b9      	ldr	r1, [r7, #8]
 8006296:	4618      	mov	r0, r3
 8006298:	f000 fc68 	bl	8006b6c <TIM_OC6_SetConfig>
 800629c:	68fb      	ldr	r3, [r7, #12]
 800629e:	681b      	ldr	r3, [r3, #0]
 80062a0:	6d5a      	ldr	r2, [r3, #84]	@ 0x54
 80062a2:	68fb      	ldr	r3, [r7, #12]
 80062a4:	681b      	ldr	r3, [r3, #0]
 80062a6:	f442 6200 	orr.w	r2, r2, #2048	@ 0x800
 80062aa:	655a      	str	r2, [r3, #84]	@ 0x54
 80062ac:	68fb      	ldr	r3, [r7, #12]
 80062ae:	681b      	ldr	r3, [r3, #0]
 80062b0:	6d5a      	ldr	r2, [r3, #84]	@ 0x54
 80062b2:	68fb      	ldr	r3, [r7, #12]
 80062b4:	681b      	ldr	r3, [r3, #0]
 80062b6:	f422 6280 	bic.w	r2, r2, #1024	@ 0x400
 80062ba:	655a      	str	r2, [r3, #84]	@ 0x54
 80062bc:	68fb      	ldr	r3, [r7, #12]
 80062be:	681b      	ldr	r3, [r3, #0]
 80062c0:	6d59      	ldr	r1, [r3, #84]	@ 0x54
 80062c2:	68bb      	ldr	r3, [r7, #8]
 80062c4:	691b      	ldr	r3, [r3, #16]
 80062c6:	021a      	lsls	r2, r3, #8
 80062c8:	68fb      	ldr	r3, [r7, #12]
 80062ca:	681b      	ldr	r3, [r3, #0]
 80062cc:	430a      	orrs	r2, r1
 80062ce:	655a      	str	r2, [r3, #84]	@ 0x54
 80062d0:	e002      	b.n	80062d8 <HAL_TIM_PWM_ConfigChannel+0x214>
 80062d2:	2301      	movs	r3, #1
 80062d4:	75fb      	strb	r3, [r7, #23]
 80062d6:	bf00      	nop
 80062d8:	68fb      	ldr	r3, [r7, #12]
 80062da:	2200      	movs	r2, #0
 80062dc:	f883 203c 	strb.w	r2, [r3, #60]	@ 0x3c
 80062e0:	7dfb      	ldrb	r3, [r7, #23]
 80062e2:	4618      	mov	r0, r3
 80062e4:	3718      	adds	r7, #24
 80062e6:	46bd      	mov	sp, r7
 80062e8:	bd80      	pop	{r7, pc}
 80062ea:	bf00      	nop

080062ec <HAL_TIM_ConfigClockSource>:
 80062ec:	b580      	push	{r7, lr}
 80062ee:	b084      	sub	sp, #16
 80062f0:	af00      	add	r7, sp, #0
 80062f2:	6078      	str	r0, [r7, #4]
 80062f4:	6039      	str	r1, [r7, #0]
 80062f6:	2300      	movs	r3, #0
 80062f8:	73fb      	strb	r3, [r7, #15]
 80062fa:	687b      	ldr	r3, [r7, #4]
 80062fc:	f893 303c 	ldrb.w	r3, [r3, #60]	@ 0x3c
 8006300:	2b01      	cmp	r3, #1
 8006302:	d101      	bne.n	8006308 <HAL_TIM_ConfigClockSource+0x1c>
 8006304:	2302      	movs	r3, #2
 8006306:	e0b6      	b.n	8006476 <HAL_TIM_ConfigClockSource+0x18a>
 8006308:	687b      	ldr	r3, [r7, #4]
 800630a:	2201      	movs	r2, #1
 800630c:	f883 203c 	strb.w	r2, [r3, #60]	@ 0x3c
 8006310:	687b      	ldr	r3, [r7, #4]
 8006312:	2202      	movs	r2, #2
 8006314:	f883 203d 	strb.w	r2, [r3, #61]	@ 0x3d
 8006318:	687b      	ldr	r3, [r7, #4]
 800631a:	681b      	ldr	r3, [r3, #0]
 800631c:	689b      	ldr	r3, [r3, #8]
 800631e:	60bb      	str	r3, [r7, #8]
 8006320:	68bb      	ldr	r3, [r7, #8]
 8006322:	f423 3380 	bic.w	r3, r3, #65536	@ 0x10000
 8006326:	f023 0377 	bic.w	r3, r3, #119	@ 0x77
 800632a:	60bb      	str	r3, [r7, #8]
 800632c:	68bb      	ldr	r3, [r7, #8]
 800632e:	f423 437f 	bic.w	r3, r3, #65280	@ 0xff00
 8006332:	60bb      	str	r3, [r7, #8]
 8006334:	687b      	ldr	r3, [r7, #4]
 8006336:	681b      	ldr	r3, [r3, #0]
 8006338:	68ba      	ldr	r2, [r7, #8]
 800633a:	609a      	str	r2, [r3, #8]
 800633c:	683b      	ldr	r3, [r7, #0]
 800633e:	681b      	ldr	r3, [r3, #0]
 8006340:	f5b3 5f00 	cmp.w	r3, #8192	@ 0x2000
 8006344:	d03e      	beq.n	80063c4 <HAL_TIM_ConfigClockSource+0xd8>
 8006346:	f5b3 5f00 	cmp.w	r3, #8192	@ 0x2000
 800634a:	f200 8087 	bhi.w	800645c <HAL_TIM_ConfigClockSource+0x170>
 800634e:	f5b3 5f80 	cmp.w	r3, #4096	@ 0x1000
 8006352:	f000 8086 	beq.w	8006462 <HAL_TIM_ConfigClockSource+0x176>
 8006356:	f5b3 5f80 	cmp.w	r3, #4096	@ 0x1000
 800635a:	d87f      	bhi.n	800645c <HAL_TIM_ConfigClockSource+0x170>
 800635c:	2b70      	cmp	r3, #112	@ 0x70
 800635e:	d01a      	beq.n	8006396 <HAL_TIM_ConfigClockSource+0xaa>
 8006360:	2b70      	cmp	r3, #112	@ 0x70
 8006362:	d87b      	bhi.n	800645c <HAL_TIM_ConfigClockSource+0x170>
 8006364:	2b60      	cmp	r3, #96	@ 0x60
 8006366:	d050      	beq.n	800640a <HAL_TIM_ConfigClockSource+0x11e>
 8006368:	2b60      	cmp	r3, #96	@ 0x60
 800636a:	d877      	bhi.n	800645c <HAL_TIM_ConfigClockSource+0x170>
 800636c:	2b50      	cmp	r3, #80	@ 0x50
 800636e:	d03c      	beq.n	80063ea <HAL_TIM_ConfigClockSource+0xfe>
 8006370:	2b50      	cmp	r3, #80	@ 0x50
 8006372:	d873      	bhi.n	800645c <HAL_TIM_ConfigClockSource+0x170>
 8006374:	2b40      	cmp	r3, #64	@ 0x40
 8006376:	d058      	beq.n	800642a <HAL_TIM_ConfigClockSource+0x13e>
 8006378:	2b40      	cmp	r3, #64	@ 0x40
 800637a:	d86f      	bhi.n	800645c <HAL_TIM_ConfigClockSource+0x170>
 800637c:	2b30      	cmp	r3, #48	@ 0x30
 800637e:	d064      	beq.n	800644a <HAL_TIM_ConfigClockSource+0x15e>
 8006380:	2b30      	cmp	r3, #48	@ 0x30
 8006382:	d86b      	bhi.n	800645c <HAL_TIM_ConfigClockSource+0x170>
 8006384:	2b20      	cmp	r3, #32
 8006386:	d060      	beq.n	800644a <HAL_TIM_ConfigClockSource+0x15e>
 8006388:	2b20      	cmp	r3, #32
 800638a:	d867      	bhi.n	800645c <HAL_TIM_ConfigClockSource+0x170>
 800638c:	2b00      	cmp	r3, #0
 800638e:	d05c      	beq.n	800644a <HAL_TIM_ConfigClockSource+0x15e>
 8006390:	2b10      	cmp	r3, #16
 8006392:	d05a      	beq.n	800644a <HAL_TIM_ConfigClockSource+0x15e>
 8006394:	e062      	b.n	800645c <HAL_TIM_ConfigClockSource+0x170>
 8006396:	687b      	ldr	r3, [r7, #4]
 8006398:	6818      	ldr	r0, [r3, #0]
 800639a:	683b      	ldr	r3, [r7, #0]
 800639c:	6899      	ldr	r1, [r3, #8]
 800639e:	683b      	ldr	r3, [r7, #0]
 80063a0:	685a      	ldr	r2, [r3, #4]
 80063a2:	683b      	ldr	r3, [r7, #0]
 80063a4:	68db      	ldr	r3, [r3, #12]
 80063a6:	f000 fde5 	bl	8006f74 <TIM_ETR_SetConfig>
 80063aa:	687b      	ldr	r3, [r7, #4]
 80063ac:	681b      	ldr	r3, [r3, #0]
 80063ae:	689b      	ldr	r3, [r3, #8]
 80063b0:	60bb      	str	r3, [r7, #8]
 80063b2:	68bb      	ldr	r3, [r7, #8]
 80063b4:	f043 0377 	orr.w	r3, r3, #119	@ 0x77
 80063b8:	60bb      	str	r3, [r7, #8]
 80063ba:	687b      	ldr	r3, [r7, #4]
 80063bc:	681b      	ldr	r3, [r3, #0]
 80063be:	68ba      	ldr	r2, [r7, #8]
 80063c0:	609a      	str	r2, [r3, #8]
 80063c2:	e04f      	b.n	8006464 <HAL_TIM_ConfigClockSource+0x178>
 80063c4:	687b      	ldr	r3, [r7, #4]
 80063c6:	6818      	ldr	r0, [r3, #0]
 80063c8:	683b      	ldr	r3, [r7, #0]
 80063ca:	6899      	ldr	r1, [r3, #8]
 80063cc:	683b      	ldr	r3, [r7, #0]
 80063ce:	685a      	ldr	r2, [r3, #4]
 80063d0:	683b      	ldr	r3, [r7, #0]
 80063d2:	68db      	ldr	r3, [r3, #12]
 80063d4:	f000 fdce 	bl	8006f74 <TIM_ETR_SetConfig>
 80063d8:	687b      	ldr	r3, [r7, #4]
 80063da:	681b      	ldr	r3, [r3, #0]
 80063dc:	689a      	ldr	r2, [r3, #8]
 80063de:	687b      	ldr	r3, [r7, #4]
 80063e0:	681b      	ldr	r3, [r3, #0]
 80063e2:	f442 4280 	orr.w	r2, r2, #16384	@ 0x4000
 80063e6:	609a      	str	r2, [r3, #8]
 80063e8:	e03c      	b.n	8006464 <HAL_TIM_ConfigClockSource+0x178>
 80063ea:	687b      	ldr	r3, [r7, #4]
 80063ec:	6818      	ldr	r0, [r3, #0]
 80063ee:	683b      	ldr	r3, [r7, #0]
 80063f0:	6859      	ldr	r1, [r3, #4]
 80063f2:	683b      	ldr	r3, [r7, #0]
 80063f4:	68db      	ldr	r3, [r3, #12]
 80063f6:	461a      	mov	r2, r3
 80063f8:	f000 fc8c 	bl	8006d14 <TIM_TI1_ConfigInputStage>
 80063fc:	687b      	ldr	r3, [r7, #4]
 80063fe:	681b      	ldr	r3, [r3, #0]
 8006400:	2150      	movs	r1, #80	@ 0x50
 8006402:	4618      	mov	r0, r3
 8006404:	f000 fd9b 	bl	8006f3e <TIM_ITRx_SetConfig>
 8006408:	e02c      	b.n	8006464 <HAL_TIM_ConfigClockSource+0x178>
 800640a:	687b      	ldr	r3, [r7, #4]
 800640c:	6818      	ldr	r0, [r3, #0]
 800640e:	683b      	ldr	r3, [r7, #0]
 8006410:	6859      	ldr	r1, [r3, #4]
 8006412:	683b      	ldr	r3, [r7, #0]
 8006414:	68db      	ldr	r3, [r3, #12]
 8006416:	461a      	mov	r2, r3
 8006418:	f000 fce8 	bl	8006dec <TIM_TI2_ConfigInputStage>
 800641c:	687b      	ldr	r3, [r7, #4]
 800641e:	681b      	ldr	r3, [r3, #0]
 8006420:	2160      	movs	r1, #96	@ 0x60
 8006422:	4618      	mov	r0, r3
 8006424:	f000 fd8b 	bl	8006f3e <TIM_ITRx_SetConfig>
 8006428:	e01c      	b.n	8006464 <HAL_TIM_ConfigClockSource+0x178>
 800642a:	687b      	ldr	r3, [r7, #4]
 800642c:	6818      	ldr	r0, [r3, #0]
 800642e:	683b      	ldr	r3, [r7, #0]
 8006430:	6859      	ldr	r1, [r3, #4]
 8006432:	683b      	ldr	r3, [r7, #0]
 8006434:	68db      	ldr	r3, [r3, #12]
 8006436:	461a      	mov	r2, r3
 8006438:	f000 fc6c 	bl	8006d14 <TIM_TI1_ConfigInputStage>
 800643c:	687b      	ldr	r3, [r7, #4]
 800643e:	681b      	ldr	r3, [r3, #0]
 8006440:	2140      	movs	r1, #64	@ 0x40
 8006442:	4618      	mov	r0, r3
 8006444:	f000 fd7b 	bl	8006f3e <TIM_ITRx_SetConfig>
 8006448:	e00c      	b.n	8006464 <HAL_TIM_ConfigClockSource+0x178>
 800644a:	687b      	ldr	r3, [r7, #4]
 800644c:	681a      	ldr	r2, [r3, #0]
 800644e:	683b      	ldr	r3, [r7, #0]
 8006450:	681b      	ldr	r3, [r3, #0]
 8006452:	4619      	mov	r1, r3
 8006454:	4610      	mov	r0, r2
 8006456:	f000 fd72 	bl	8006f3e <TIM_ITRx_SetConfig>
 800645a:	e003      	b.n	8006464 <HAL_TIM_ConfigClockSource+0x178>
 800645c:	2301      	movs	r3, #1
 800645e:	73fb      	strb	r3, [r7, #15]
 8006460:	e000      	b.n	8006464 <HAL_TIM_ConfigClockSource+0x178>
 8006462:	bf00      	nop
 8006464:	687b      	ldr	r3, [r7, #4]
 8006466:	2201      	movs	r2, #1
 8006468:	f883 203d 	strb.w	r2, [r3, #61]	@ 0x3d
 800646c:	687b      	ldr	r3, [r7, #4]
 800646e:	2200      	movs	r2, #0
 8006470:	f883 203c 	strb.w	r2, [r3, #60]	@ 0x3c
 8006474:	7bfb      	ldrb	r3, [r7, #15]
 8006476:	4618      	mov	r0, r3
 8006478:	3710      	adds	r7, #16
 800647a:	46bd      	mov	sp, r7
 800647c:	bd80      	pop	{r7, pc}
	...

08006480 <HAL_TIM_ReadCapturedValue>:
 8006480:	b480      	push	{r7}
 8006482:	b085      	sub	sp, #20
 8006484:	af00      	add	r7, sp, #0
 8006486:	6078      	str	r0, [r7, #4]
 8006488:	6039      	str	r1, [r7, #0]
 800648a:	2300      	movs	r3, #0
 800648c:	60fb      	str	r3, [r7, #12]
 800648e:	683b      	ldr	r3, [r7, #0]
 8006490:	2b0c      	cmp	r3, #12
 8006492:	d831      	bhi.n	80064f8 <HAL_TIM_ReadCapturedValue+0x78>
 8006494:	a201      	add	r2, pc, #4	@ (adr r2, 800649c <HAL_TIM_ReadCapturedValue+0x1c>)
 8006496:	f852 f023 	ldr.w	pc, [r2, r3, lsl #2]
 800649a:	bf00      	nop
 800649c:	080064d1 	.word	0x080064d1
 80064a0:	080064f9 	.word	0x080064f9
 80064a4:	080064f9 	.word	0x080064f9
 80064a8:	080064f9 	.word	0x080064f9
 80064ac:	080064db 	.word	0x080064db
 80064b0:	080064f9 	.word	0x080064f9
 80064b4:	080064f9 	.word	0x080064f9
 80064b8:	080064f9 	.word	0x080064f9
 80064bc:	080064e5 	.word	0x080064e5
 80064c0:	080064f9 	.word	0x080064f9
 80064c4:	080064f9 	.word	0x080064f9
 80064c8:	080064f9 	.word	0x080064f9
 80064cc:	080064ef 	.word	0x080064ef
 80064d0:	687b      	ldr	r3, [r7, #4]
 80064d2:	681b      	ldr	r3, [r3, #0]
 80064d4:	6b5b      	ldr	r3, [r3, #52]	@ 0x34
 80064d6:	60fb      	str	r3, [r7, #12]
 80064d8:	e00f      	b.n	80064fa <HAL_TIM_ReadCapturedValue+0x7a>
 80064da:	687b      	ldr	r3, [r7, #4]
 80064dc:	681b      	ldr	r3, [r3, #0]
 80064de:	6b9b      	ldr	r3, [r3, #56]	@ 0x38
 80064e0:	60fb      	str	r3, [r7, #12]
 80064e2:	e00a      	b.n	80064fa <HAL_TIM_ReadCapturedValue+0x7a>
 80064e4:	687b      	ldr	r3, [r7, #4]
 80064e6:	681b      	ldr	r3, [r3, #0]
 80064e8:	6bdb      	ldr	r3, [r3, #60]	@ 0x3c
 80064ea:	60fb      	str	r3, [r7, #12]
 80064ec:	e005      	b.n	80064fa <HAL_TIM_ReadCapturedValue+0x7a>
 80064ee:	687b      	ldr	r3, [r7, #4]
 80064f0:	681b      	ldr	r3, [r3, #0]
 80064f2:	6c1b      	ldr	r3, [r3, #64]	@ 0x40
 80064f4:	60fb      	str	r3, [r7, #12]
 80064f6:	e000      	b.n	80064fa <HAL_TIM_ReadCapturedValue+0x7a>
 80064f8:	bf00      	nop
 80064fa:	68fb      	ldr	r3, [r7, #12]
 80064fc:	4618      	mov	r0, r3
 80064fe:	3714      	adds	r7, #20
 8006500:	46bd      	mov	sp, r7
 8006502:	f85d 7b04 	ldr.w	r7, [sp], #4
 8006506:	4770      	bx	lr

08006508 <HAL_TIM_PeriodElapsedCallback>:
 8006508:	b480      	push	{r7}
 800650a:	b083      	sub	sp, #12
 800650c:	af00      	add	r7, sp, #0
 800650e:	6078      	str	r0, [r7, #4]
 8006510:	bf00      	nop
 8006512:	370c      	adds	r7, #12
 8006514:	46bd      	mov	sp, r7
 8006516:	f85d 7b04 	ldr.w	r7, [sp], #4
 800651a:	4770      	bx	lr

0800651c <HAL_TIM_OC_DelayElapsedCallback>:
 800651c:	b480      	push	{r7}
 800651e:	b083      	sub	sp, #12
 8006520:	af00      	add	r7, sp, #0
 8006522:	6078      	str	r0, [r7, #4]
 8006524:	bf00      	nop
 8006526:	370c      	adds	r7, #12
 8006528:	46bd      	mov	sp, r7
 800652a:	f85d 7b04 	ldr.w	r7, [sp], #4
 800652e:	4770      	bx	lr

08006530 <HAL_TIM_PWM_PulseFinishedCallback>:
 8006530:	b480      	push	{r7}
 8006532:	b083      	sub	sp, #12
 8006534:	af00      	add	r7, sp, #0
 8006536:	6078      	str	r0, [r7, #4]
 8006538:	bf00      	nop
 800653a:	370c      	adds	r7, #12
 800653c:	46bd      	mov	sp, r7
 800653e:	f85d 7b04 	ldr.w	r7, [sp], #4
 8006542:	4770      	bx	lr

08006544 <HAL_TIM_TriggerCallback>:
 8006544:	b480      	push	{r7}
 8006546:	b083      	sub	sp, #12
 8006548:	af00      	add	r7, sp, #0
 800654a:	6078      	str	r0, [r7, #4]
 800654c:	bf00      	nop
 800654e:	370c      	adds	r7, #12
 8006550:	46bd      	mov	sp, r7
 8006552:	f85d 7b04 	ldr.w	r7, [sp], #4
 8006556:	4770      	bx	lr

08006558 <TIM_Base_SetConfig>:
 8006558:	b480      	push	{r7}
 800655a:	b085      	sub	sp, #20
 800655c:	af00      	add	r7, sp, #0
 800655e:	6078      	str	r0, [r7, #4]
 8006560:	6039      	str	r1, [r7, #0]
 8006562:	687b      	ldr	r3, [r7, #4]
 8006564:	681b      	ldr	r3, [r3, #0]
 8006566:	60fb      	str	r3, [r7, #12]
 8006568:	687b      	ldr	r3, [r7, #4]
 800656a:	4a40      	ldr	r2, [pc, #256]	@ (800666c <TIM_Base_SetConfig+0x114>)
 800656c:	4293      	cmp	r3, r2
 800656e:	d013      	beq.n	8006598 <TIM_Base_SetConfig+0x40>
 8006570:	687b      	ldr	r3, [r7, #4]
 8006572:	f1b3 4f80 	cmp.w	r3, #1073741824	@ 0x40000000
 8006576:	d00f      	beq.n	8006598 <TIM_Base_SetConfig+0x40>
 8006578:	687b      	ldr	r3, [r7, #4]
 800657a:	4a3d      	ldr	r2, [pc, #244]	@ (8006670 <TIM_Base_SetConfig+0x118>)
 800657c:	4293      	cmp	r3, r2
 800657e:	d00b      	beq.n	8006598 <TIM_Base_SetConfig+0x40>
 8006580:	687b      	ldr	r3, [r7, #4]
 8006582:	4a3c      	ldr	r2, [pc, #240]	@ (8006674 <TIM_Base_SetConfig+0x11c>)
 8006584:	4293      	cmp	r3, r2
 8006586:	d007      	beq.n	8006598 <TIM_Base_SetConfig+0x40>
 8006588:	687b      	ldr	r3, [r7, #4]
 800658a:	4a3b      	ldr	r2, [pc, #236]	@ (8006678 <TIM_Base_SetConfig+0x120>)
 800658c:	4293      	cmp	r3, r2
 800658e:	d003      	beq.n	8006598 <TIM_Base_SetConfig+0x40>
 8006590:	687b      	ldr	r3, [r7, #4]
 8006592:	4a3a      	ldr	r2, [pc, #232]	@ (800667c <TIM_Base_SetConfig+0x124>)
 8006594:	4293      	cmp	r3, r2
 8006596:	d108      	bne.n	80065aa <TIM_Base_SetConfig+0x52>
 8006598:	68fb      	ldr	r3, [r7, #12]
 800659a:	f023 0370 	bic.w	r3, r3, #112	@ 0x70
 800659e:	60fb      	str	r3, [r7, #12]
 80065a0:	683b      	ldr	r3, [r7, #0]
 80065a2:	685b      	ldr	r3, [r3, #4]
 80065a4:	68fa      	ldr	r2, [r7, #12]
 80065a6:	4313      	orrs	r3, r2
 80065a8:	60fb      	str	r3, [r7, #12]
 80065aa:	687b      	ldr	r3, [r7, #4]
 80065ac:	4a2f      	ldr	r2, [pc, #188]	@ (800666c <TIM_Base_SetConfig+0x114>)
 80065ae:	4293      	cmp	r3, r2
 80065b0:	d01f      	beq.n	80065f2 <TIM_Base_SetConfig+0x9a>
 80065b2:	687b      	ldr	r3, [r7, #4]
 80065b4:	f1b3 4f80 	cmp.w	r3, #1073741824	@ 0x40000000
 80065b8:	d01b      	beq.n	80065f2 <TIM_Base_SetConfig+0x9a>
 80065ba:	687b      	ldr	r3, [r7, #4]
 80065bc:	4a2c      	ldr	r2, [pc, #176]	@ (8006670 <TIM_Base_SetConfig+0x118>)
 80065be:	4293      	cmp	r3, r2
 80065c0:	d017      	beq.n	80065f2 <TIM_Base_SetConfig+0x9a>
 80065c2:	687b      	ldr	r3, [r7, #4]
 80065c4:	4a2b      	ldr	r2, [pc, #172]	@ (8006674 <TIM_Base_SetConfig+0x11c>)
 80065c6:	4293      	cmp	r3, r2
 80065c8:	d013      	beq.n	80065f2 <TIM_Base_SetConfig+0x9a>
 80065ca:	687b      	ldr	r3, [r7, #4]
 80065cc:	4a2a      	ldr	r2, [pc, #168]	@ (8006678 <TIM_Base_SetConfig+0x120>)
 80065ce:	4293      	cmp	r3, r2
 80065d0:	d00f      	beq.n	80065f2 <TIM_Base_SetConfig+0x9a>
 80065d2:	687b      	ldr	r3, [r7, #4]
 80065d4:	4a29      	ldr	r2, [pc, #164]	@ (800667c <TIM_Base_SetConfig+0x124>)
 80065d6:	4293      	cmp	r3, r2
 80065d8:	d00b      	beq.n	80065f2 <TIM_Base_SetConfig+0x9a>
 80065da:	687b      	ldr	r3, [r7, #4]
 80065dc:	4a28      	ldr	r2, [pc, #160]	@ (8006680 <TIM_Base_SetConfig+0x128>)
 80065de:	4293      	cmp	r3, r2
 80065e0:	d007      	beq.n	80065f2 <TIM_Base_SetConfig+0x9a>
 80065e2:	687b      	ldr	r3, [r7, #4]
 80065e4:	4a27      	ldr	r2, [pc, #156]	@ (8006684 <TIM_Base_SetConfig+0x12c>)
 80065e6:	4293      	cmp	r3, r2
 80065e8:	d003      	beq.n	80065f2 <TIM_Base_SetConfig+0x9a>
 80065ea:	687b      	ldr	r3, [r7, #4]
 80065ec:	4a26      	ldr	r2, [pc, #152]	@ (8006688 <TIM_Base_SetConfig+0x130>)
 80065ee:	4293      	cmp	r3, r2
 80065f0:	d108      	bne.n	8006604 <TIM_Base_SetConfig+0xac>
 80065f2:	68fb      	ldr	r3, [r7, #12]
 80065f4:	f423 7340 	bic.w	r3, r3, #768	@ 0x300
 80065f8:	60fb      	str	r3, [r7, #12]
 80065fa:	683b      	ldr	r3, [r7, #0]
 80065fc:	68db      	ldr	r3, [r3, #12]
 80065fe:	68fa      	ldr	r2, [r7, #12]
 8006600:	4313      	orrs	r3, r2
 8006602:	60fb      	str	r3, [r7, #12]
 8006604:	68fb      	ldr	r3, [r7, #12]
 8006606:	f023 0280 	bic.w	r2, r3, #128	@ 0x80
 800660a:	683b      	ldr	r3, [r7, #0]
 800660c:	695b      	ldr	r3, [r3, #20]
 800660e:	4313      	orrs	r3, r2
 8006610:	60fb      	str	r3, [r7, #12]
 8006612:	687b      	ldr	r3, [r7, #4]
 8006614:	68fa      	ldr	r2, [r7, #12]
 8006616:	601a      	str	r2, [r3, #0]
 8006618:	683b      	ldr	r3, [r7, #0]
 800661a:	689a      	ldr	r2, [r3, #8]
 800661c:	687b      	ldr	r3, [r7, #4]
 800661e:	62da      	str	r2, [r3, #44]	@ 0x2c
 8006620:	683b      	ldr	r3, [r7, #0]
 8006622:	681a      	ldr	r2, [r3, #0]
 8006624:	687b      	ldr	r3, [r7, #4]
 8006626:	629a      	str	r2, [r3, #40]	@ 0x28
 8006628:	687b      	ldr	r3, [r7, #4]
 800662a:	4a10      	ldr	r2, [pc, #64]	@ (800666c <TIM_Base_SetConfig+0x114>)
 800662c:	4293      	cmp	r3, r2
 800662e:	d00f      	beq.n	8006650 <TIM_Base_SetConfig+0xf8>
 8006630:	687b      	ldr	r3, [r7, #4]
 8006632:	4a12      	ldr	r2, [pc, #72]	@ (800667c <TIM_Base_SetConfig+0x124>)
 8006634:	4293      	cmp	r3, r2
 8006636:	d00b      	beq.n	8006650 <TIM_Base_SetConfig+0xf8>
 8006638:	687b      	ldr	r3, [r7, #4]
 800663a:	4a11      	ldr	r2, [pc, #68]	@ (8006680 <TIM_Base_SetConfig+0x128>)
 800663c:	4293      	cmp	r3, r2
 800663e:	d007      	beq.n	8006650 <TIM_Base_SetConfig+0xf8>
 8006640:	687b      	ldr	r3, [r7, #4]
 8006642:	4a10      	ldr	r2, [pc, #64]	@ (8006684 <TIM_Base_SetConfig+0x12c>)
 8006644:	4293      	cmp	r3, r2
 8006646:	d003      	beq.n	8006650 <TIM_Base_SetConfig+0xf8>
 8006648:	687b      	ldr	r3, [r7, #4]
 800664a:	4a0f      	ldr	r2, [pc, #60]	@ (8006688 <TIM_Base_SetConfig+0x130>)
 800664c:	4293      	cmp	r3, r2
 800664e:	d103      	bne.n	8006658 <TIM_Base_SetConfig+0x100>
 8006650:	683b      	ldr	r3, [r7, #0]
 8006652:	691a      	ldr	r2, [r3, #16]
 8006654:	687b      	ldr	r3, [r7, #4]
 8006656:	631a      	str	r2, [r3, #48]	@ 0x30
 8006658:	687b      	ldr	r3, [r7, #4]
 800665a:	2201      	movs	r2, #1
 800665c:	615a      	str	r2, [r3, #20]
 800665e:	bf00      	nop
 8006660:	3714      	adds	r7, #20
 8006662:	46bd      	mov	sp, r7
 8006664:	f85d 7b04 	ldr.w	r7, [sp], #4
 8006668:	4770      	bx	lr
 800666a:	bf00      	nop
 800666c:	40012c00 	.word	0x40012c00
 8006670:	40000400 	.word	0x40000400
 8006674:	40000800 	.word	0x40000800
 8006678:	40000c00 	.word	0x40000c00
 800667c:	40013400 	.word	0x40013400
 8006680:	40014000 	.word	0x40014000
 8006684:	40014400 	.word	0x40014400
 8006688:	40014800 	.word	0x40014800

0800668c <TIM_OC1_SetConfig>:
 800668c:	b480      	push	{r7}
 800668e:	b087      	sub	sp, #28
 8006690:	af00      	add	r7, sp, #0
 8006692:	6078      	str	r0, [r7, #4]
 8006694:	6039      	str	r1, [r7, #0]
 8006696:	687b      	ldr	r3, [r7, #4]
 8006698:	6a1b      	ldr	r3, [r3, #32]
 800669a:	617b      	str	r3, [r7, #20]
 800669c:	687b      	ldr	r3, [r7, #4]
 800669e:	6a1b      	ldr	r3, [r3, #32]
 80066a0:	f023 0201 	bic.w	r2, r3, #1
 80066a4:	687b      	ldr	r3, [r7, #4]
 80066a6:	621a      	str	r2, [r3, #32]
 80066a8:	687b      	ldr	r3, [r7, #4]
 80066aa:	685b      	ldr	r3, [r3, #4]
 80066ac:	613b      	str	r3, [r7, #16]
 80066ae:	687b      	ldr	r3, [r7, #4]
 80066b0:	699b      	ldr	r3, [r3, #24]
 80066b2:	60fb      	str	r3, [r7, #12]
 80066b4:	68fb      	ldr	r3, [r7, #12]
 80066b6:	f423 3380 	bic.w	r3, r3, #65536	@ 0x10000
 80066ba:	f023 0370 	bic.w	r3, r3, #112	@ 0x70
 80066be:	60fb      	str	r3, [r7, #12]
 80066c0:	68fb      	ldr	r3, [r7, #12]
 80066c2:	f023 0303 	bic.w	r3, r3, #3
 80066c6:	60fb      	str	r3, [r7, #12]
 80066c8:	683b      	ldr	r3, [r7, #0]
 80066ca:	681b      	ldr	r3, [r3, #0]
 80066cc:	68fa      	ldr	r2, [r7, #12]
 80066ce:	4313      	orrs	r3, r2
 80066d0:	60fb      	str	r3, [r7, #12]
 80066d2:	697b      	ldr	r3, [r7, #20]
 80066d4:	f023 0302 	bic.w	r3, r3, #2
 80066d8:	617b      	str	r3, [r7, #20]
 80066da:	683b      	ldr	r3, [r7, #0]
 80066dc:	689b      	ldr	r3, [r3, #8]
 80066de:	697a      	ldr	r2, [r7, #20]
 80066e0:	4313      	orrs	r3, r2
 80066e2:	617b      	str	r3, [r7, #20]
 80066e4:	687b      	ldr	r3, [r7, #4]
 80066e6:	4a2c      	ldr	r2, [pc, #176]	@ (8006798 <TIM_OC1_SetConfig+0x10c>)
 80066e8:	4293      	cmp	r3, r2
 80066ea:	d00f      	beq.n	800670c <TIM_OC1_SetConfig+0x80>
 80066ec:	687b      	ldr	r3, [r7, #4]
 80066ee:	4a2b      	ldr	r2, [pc, #172]	@ (800679c <TIM_OC1_SetConfig+0x110>)
 80066f0:	4293      	cmp	r3, r2
 80066f2:	d00b      	beq.n	800670c <TIM_OC1_SetConfig+0x80>
 80066f4:	687b      	ldr	r3, [r7, #4]
 80066f6:	4a2a      	ldr	r2, [pc, #168]	@ (80067a0 <TIM_OC1_SetConfig+0x114>)
 80066f8:	4293      	cmp	r3, r2
 80066fa:	d007      	beq.n	800670c <TIM_OC1_SetConfig+0x80>
 80066fc:	687b      	ldr	r3, [r7, #4]
 80066fe:	4a29      	ldr	r2, [pc, #164]	@ (80067a4 <TIM_OC1_SetConfig+0x118>)
 8006700:	4293      	cmp	r3, r2
 8006702:	d003      	beq.n	800670c <TIM_OC1_SetConfig+0x80>
 8006704:	687b      	ldr	r3, [r7, #4]
 8006706:	4a28      	ldr	r2, [pc, #160]	@ (80067a8 <TIM_OC1_SetConfig+0x11c>)
 8006708:	4293      	cmp	r3, r2
 800670a:	d10c      	bne.n	8006726 <TIM_OC1_SetConfig+0x9a>
 800670c:	697b      	ldr	r3, [r7, #20]
 800670e:	f023 0308 	bic.w	r3, r3, #8
 8006712:	617b      	str	r3, [r7, #20]
 8006714:	683b      	ldr	r3, [r7, #0]
 8006716:	68db      	ldr	r3, [r3, #12]
 8006718:	697a      	ldr	r2, [r7, #20]
 800671a:	4313      	orrs	r3, r2
 800671c:	617b      	str	r3, [r7, #20]
 800671e:	697b      	ldr	r3, [r7, #20]
 8006720:	f023 0304 	bic.w	r3, r3, #4
 8006724:	617b      	str	r3, [r7, #20]
 8006726:	687b      	ldr	r3, [r7, #4]
 8006728:	4a1b      	ldr	r2, [pc, #108]	@ (8006798 <TIM_OC1_SetConfig+0x10c>)
 800672a:	4293      	cmp	r3, r2
 800672c:	d00f      	beq.n	800674e <TIM_OC1_SetConfig+0xc2>
 800672e:	687b      	ldr	r3, [r7, #4]
 8006730:	4a1a      	ldr	r2, [pc, #104]	@ (800679c <TIM_OC1_SetConfig+0x110>)
 8006732:	4293      	cmp	r3, r2
 8006734:	d00b      	beq.n	800674e <TIM_OC1_SetConfig+0xc2>
 8006736:	687b      	ldr	r3, [r7, #4]
 8006738:	4a19      	ldr	r2, [pc, #100]	@ (80067a0 <TIM_OC1_SetConfig+0x114>)
 800673a:	4293      	cmp	r3, r2
 800673c:	d007      	beq.n	800674e <TIM_OC1_SetConfig+0xc2>
 800673e:	687b      	ldr	r3, [r7, #4]
 8006740:	4a18      	ldr	r2, [pc, #96]	@ (80067a4 <TIM_OC1_SetConfig+0x118>)
 8006742:	4293      	cmp	r3, r2
 8006744:	d003      	beq.n	800674e <TIM_OC1_SetConfig+0xc2>
 8006746:	687b      	ldr	r3, [r7, #4]
 8006748:	4a17      	ldr	r2, [pc, #92]	@ (80067a8 <TIM_OC1_SetConfig+0x11c>)
 800674a:	4293      	cmp	r3, r2
 800674c:	d111      	bne.n	8006772 <TIM_OC1_SetConfig+0xe6>
 800674e:	693b      	ldr	r3, [r7, #16]
 8006750:	f423 7380 	bic.w	r3, r3, #256	@ 0x100
 8006754:	613b      	str	r3, [r7, #16]
 8006756:	693b      	ldr	r3, [r7, #16]
 8006758:	f423 7300 	bic.w	r3, r3, #512	@ 0x200
 800675c:	613b      	str	r3, [r7, #16]
 800675e:	683b      	ldr	r3, [r7, #0]
 8006760:	695b      	ldr	r3, [r3, #20]
 8006762:	693a      	ldr	r2, [r7, #16]
 8006764:	4313      	orrs	r3, r2
 8006766:	613b      	str	r3, [r7, #16]
 8006768:	683b      	ldr	r3, [r7, #0]
 800676a:	699b      	ldr	r3, [r3, #24]
 800676c:	693a      	ldr	r2, [r7, #16]
 800676e:	4313      	orrs	r3, r2
 8006770:	613b      	str	r3, [r7, #16]
 8006772:	687b      	ldr	r3, [r7, #4]
 8006774:	693a      	ldr	r2, [r7, #16]
 8006776:	605a      	str	r2, [r3, #4]
 8006778:	687b      	ldr	r3, [r7, #4]
 800677a:	68fa      	ldr	r2, [r7, #12]
 800677c:	619a      	str	r2, [r3, #24]
 800677e:	683b      	ldr	r3, [r7, #0]
 8006780:	685a      	ldr	r2, [r3, #4]
 8006782:	687b      	ldr	r3, [r7, #4]
 8006784:	635a      	str	r2, [r3, #52]	@ 0x34
 8006786:	687b      	ldr	r3, [r7, #4]
 8006788:	697a      	ldr	r2, [r7, #20]
 800678a:	621a      	str	r2, [r3, #32]
 800678c:	bf00      	nop
 800678e:	371c      	adds	r7, #28
 8006790:	46bd      	mov	sp, r7
 8006792:	f85d 7b04 	ldr.w	r7, [sp], #4
 8006796:	4770      	bx	lr
 8006798:	40012c00 	.word	0x40012c00
 800679c:	40013400 	.word	0x40013400
 80067a0:	40014000 	.word	0x40014000
 80067a4:	40014400 	.word	0x40014400
 80067a8:	40014800 	.word	0x40014800

080067ac <TIM_OC2_SetConfig>:
 80067ac:	b480      	push	{r7}
 80067ae:	b087      	sub	sp, #28
 80067b0:	af00      	add	r7, sp, #0
 80067b2:	6078      	str	r0, [r7, #4]
 80067b4:	6039      	str	r1, [r7, #0]
 80067b6:	687b      	ldr	r3, [r7, #4]
 80067b8:	6a1b      	ldr	r3, [r3, #32]
 80067ba:	617b      	str	r3, [r7, #20]
 80067bc:	687b      	ldr	r3, [r7, #4]
 80067be:	6a1b      	ldr	r3, [r3, #32]
 80067c0:	f023 0210 	bic.w	r2, r3, #16
 80067c4:	687b      	ldr	r3, [r7, #4]
 80067c6:	621a      	str	r2, [r3, #32]
 80067c8:	687b      	ldr	r3, [r7, #4]
 80067ca:	685b      	ldr	r3, [r3, #4]
 80067cc:	613b      	str	r3, [r7, #16]
 80067ce:	687b      	ldr	r3, [r7, #4]
 80067d0:	699b      	ldr	r3, [r3, #24]
 80067d2:	60fb      	str	r3, [r7, #12]
 80067d4:	68fb      	ldr	r3, [r7, #12]
 80067d6:	f023 7380 	bic.w	r3, r3, #16777216	@ 0x1000000
 80067da:	f423 43e0 	bic.w	r3, r3, #28672	@ 0x7000
 80067de:	60fb      	str	r3, [r7, #12]
 80067e0:	68fb      	ldr	r3, [r7, #12]
 80067e2:	f423 7340 	bic.w	r3, r3, #768	@ 0x300
 80067e6:	60fb      	str	r3, [r7, #12]
 80067e8:	683b      	ldr	r3, [r7, #0]
 80067ea:	681b      	ldr	r3, [r3, #0]
 80067ec:	021b      	lsls	r3, r3, #8
 80067ee:	68fa      	ldr	r2, [r7, #12]
 80067f0:	4313      	orrs	r3, r2
 80067f2:	60fb      	str	r3, [r7, #12]
 80067f4:	697b      	ldr	r3, [r7, #20]
 80067f6:	f023 0320 	bic.w	r3, r3, #32
 80067fa:	617b      	str	r3, [r7, #20]
 80067fc:	683b      	ldr	r3, [r7, #0]
 80067fe:	689b      	ldr	r3, [r3, #8]
 8006800:	011b      	lsls	r3, r3, #4
 8006802:	697a      	ldr	r2, [r7, #20]
 8006804:	4313      	orrs	r3, r2
 8006806:	617b      	str	r3, [r7, #20]
 8006808:	687b      	ldr	r3, [r7, #4]
 800680a:	4a28      	ldr	r2, [pc, #160]	@ (80068ac <TIM_OC2_SetConfig+0x100>)
 800680c:	4293      	cmp	r3, r2
 800680e:	d003      	beq.n	8006818 <TIM_OC2_SetConfig+0x6c>
 8006810:	687b      	ldr	r3, [r7, #4]
 8006812:	4a27      	ldr	r2, [pc, #156]	@ (80068b0 <TIM_OC2_SetConfig+0x104>)
 8006814:	4293      	cmp	r3, r2
 8006816:	d10d      	bne.n	8006834 <TIM_OC2_SetConfig+0x88>
 8006818:	697b      	ldr	r3, [r7, #20]
 800681a:	f023 0380 	bic.w	r3, r3, #128	@ 0x80
 800681e:	617b      	str	r3, [r7, #20]
 8006820:	683b      	ldr	r3, [r7, #0]
 8006822:	68db      	ldr	r3, [r3, #12]
 8006824:	011b      	lsls	r3, r3, #4
 8006826:	697a      	ldr	r2, [r7, #20]
 8006828:	4313      	orrs	r3, r2
 800682a:	617b      	str	r3, [r7, #20]
 800682c:	697b      	ldr	r3, [r7, #20]
 800682e:	f023 0340 	bic.w	r3, r3, #64	@ 0x40
 8006832:	617b      	str	r3, [r7, #20]
 8006834:	687b      	ldr	r3, [r7, #4]
 8006836:	4a1d      	ldr	r2, [pc, #116]	@ (80068ac <TIM_OC2_SetConfig+0x100>)
 8006838:	4293      	cmp	r3, r2
 800683a:	d00f      	beq.n	800685c <TIM_OC2_SetConfig+0xb0>
 800683c:	687b      	ldr	r3, [r7, #4]
 800683e:	4a1c      	ldr	r2, [pc, #112]	@ (80068b0 <TIM_OC2_SetConfig+0x104>)
 8006840:	4293      	cmp	r3, r2
 8006842:	d00b      	beq.n	800685c <TIM_OC2_SetConfig+0xb0>
 8006844:	687b      	ldr	r3, [r7, #4]
 8006846:	4a1b      	ldr	r2, [pc, #108]	@ (80068b4 <TIM_OC2_SetConfig+0x108>)
 8006848:	4293      	cmp	r3, r2
 800684a:	d007      	beq.n	800685c <TIM_OC2_SetConfig+0xb0>
 800684c:	687b      	ldr	r3, [r7, #4]
 800684e:	4a1a      	ldr	r2, [pc, #104]	@ (80068b8 <TIM_OC2_SetConfig+0x10c>)
 8006850:	4293      	cmp	r3, r2
 8006852:	d003      	beq.n	800685c <TIM_OC2_SetConfig+0xb0>
 8006854:	687b      	ldr	r3, [r7, #4]
 8006856:	4a19      	ldr	r2, [pc, #100]	@ (80068bc <TIM_OC2_SetConfig+0x110>)
 8006858:	4293      	cmp	r3, r2
 800685a:	d113      	bne.n	8006884 <TIM_OC2_SetConfig+0xd8>
 800685c:	693b      	ldr	r3, [r7, #16]
 800685e:	f423 6380 	bic.w	r3, r3, #1024	@ 0x400
 8006862:	613b      	str	r3, [r7, #16]
 8006864:	693b      	ldr	r3, [r7, #16]
 8006866:	f423 6300 	bic.w	r3, r3, #2048	@ 0x800
 800686a:	613b      	str	r3, [r7, #16]
 800686c:	683b      	ldr	r3, [r7, #0]
 800686e:	695b      	ldr	r3, [r3, #20]
 8006870:	009b      	lsls	r3, r3, #2
 8006872:	693a      	ldr	r2, [r7, #16]
 8006874:	4313      	orrs	r3, r2
 8006876:	613b      	str	r3, [r7, #16]
 8006878:	683b      	ldr	r3, [r7, #0]
 800687a:	699b      	ldr	r3, [r3, #24]
 800687c:	009b      	lsls	r3, r3, #2
 800687e:	693a      	ldr	r2, [r7, #16]
 8006880:	4313      	orrs	r3, r2
 8006882:	613b      	str	r3, [r7, #16]
 8006884:	687b      	ldr	r3, [r7, #4]
 8006886:	693a      	ldr	r2, [r7, #16]
 8006888:	605a      	str	r2, [r3, #4]
 800688a:	687b      	ldr	r3, [r7, #4]
 800688c:	68fa      	ldr	r2, [r7, #12]
 800688e:	619a      	str	r2, [r3, #24]
 8006890:	683b      	ldr	r3, [r7, #0]
 8006892:	685a      	ldr	r2, [r3, #4]
 8006894:	687b      	ldr	r3, [r7, #4]
 8006896:	639a      	str	r2, [r3, #56]	@ 0x38
 8006898:	687b      	ldr	r3, [r7, #4]
 800689a:	697a      	ldr	r2, [r7, #20]
 800689c:	621a      	str	r2, [r3, #32]
 800689e:	bf00      	nop
 80068a0:	371c      	adds	r7, #28
 80068a2:	46bd      	mov	sp, r7
 80068a4:	f85d 7b04 	ldr.w	r7, [sp], #4
 80068a8:	4770      	bx	lr
 80068aa:	bf00      	nop
 80068ac:	40012c00 	.word	0x40012c00
 80068b0:	40013400 	.word	0x40013400
 80068b4:	40014000 	.word	0x40014000
 80068b8:	40014400 	.word	0x40014400
 80068bc:	40014800 	.word	0x40014800

080068c0 <TIM_OC3_SetConfig>:
 80068c0:	b480      	push	{r7}
 80068c2:	b087      	sub	sp, #28
 80068c4:	af00      	add	r7, sp, #0
 80068c6:	6078      	str	r0, [r7, #4]
 80068c8:	6039      	str	r1, [r7, #0]
 80068ca:	687b      	ldr	r3, [r7, #4]
 80068cc:	6a1b      	ldr	r3, [r3, #32]
 80068ce:	617b      	str	r3, [r7, #20]
 80068d0:	687b      	ldr	r3, [r7, #4]
 80068d2:	6a1b      	ldr	r3, [r3, #32]
 80068d4:	f423 7280 	bic.w	r2, r3, #256	@ 0x100
 80068d8:	687b      	ldr	r3, [r7, #4]
 80068da:	621a      	str	r2, [r3, #32]
 80068dc:	687b      	ldr	r3, [r7, #4]
 80068de:	685b      	ldr	r3, [r3, #4]
 80068e0:	613b      	str	r3, [r7, #16]
 80068e2:	687b      	ldr	r3, [r7, #4]
 80068e4:	69db      	ldr	r3, [r3, #28]
 80068e6:	60fb      	str	r3, [r7, #12]
 80068e8:	68fb      	ldr	r3, [r7, #12]
 80068ea:	f423 3380 	bic.w	r3, r3, #65536	@ 0x10000
 80068ee:	f023 0370 	bic.w	r3, r3, #112	@ 0x70
 80068f2:	60fb      	str	r3, [r7, #12]
 80068f4:	68fb      	ldr	r3, [r7, #12]
 80068f6:	f023 0303 	bic.w	r3, r3, #3
 80068fa:	60fb      	str	r3, [r7, #12]
 80068fc:	683b      	ldr	r3, [r7, #0]
 80068fe:	681b      	ldr	r3, [r3, #0]
 8006900:	68fa      	ldr	r2, [r7, #12]
 8006902:	4313      	orrs	r3, r2
 8006904:	60fb      	str	r3, [r7, #12]
 8006906:	697b      	ldr	r3, [r7, #20]
 8006908:	f423 7300 	bic.w	r3, r3, #512	@ 0x200
 800690c:	617b      	str	r3, [r7, #20]
 800690e:	683b      	ldr	r3, [r7, #0]
 8006910:	689b      	ldr	r3, [r3, #8]
 8006912:	021b      	lsls	r3, r3, #8
 8006914:	697a      	ldr	r2, [r7, #20]
 8006916:	4313      	orrs	r3, r2
 8006918:	617b      	str	r3, [r7, #20]
 800691a:	687b      	ldr	r3, [r7, #4]
 800691c:	4a27      	ldr	r2, [pc, #156]	@ (80069bc <TIM_OC3_SetConfig+0xfc>)
 800691e:	4293      	cmp	r3, r2
 8006920:	d003      	beq.n	800692a <TIM_OC3_SetConfig+0x6a>
 8006922:	687b      	ldr	r3, [r7, #4]
 8006924:	4a26      	ldr	r2, [pc, #152]	@ (80069c0 <TIM_OC3_SetConfig+0x100>)
 8006926:	4293      	cmp	r3, r2
 8006928:	d10d      	bne.n	8006946 <TIM_OC3_SetConfig+0x86>
 800692a:	697b      	ldr	r3, [r7, #20]
 800692c:	f423 6300 	bic.w	r3, r3, #2048	@ 0x800
 8006930:	617b      	str	r3, [r7, #20]
 8006932:	683b      	ldr	r3, [r7, #0]
 8006934:	68db      	ldr	r3, [r3, #12]
 8006936:	021b      	lsls	r3, r3, #8
 8006938:	697a      	ldr	r2, [r7, #20]
 800693a:	4313      	orrs	r3, r2
 800693c:	617b      	str	r3, [r7, #20]
 800693e:	697b      	ldr	r3, [r7, #20]
 8006940:	f423 6380 	bic.w	r3, r3, #1024	@ 0x400
 8006944:	617b      	str	r3, [r7, #20]
 8006946:	687b      	ldr	r3, [r7, #4]
 8006948:	4a1c      	ldr	r2, [pc, #112]	@ (80069bc <TIM_OC3_SetConfig+0xfc>)
 800694a:	4293      	cmp	r3, r2
 800694c:	d00f      	beq.n	800696e <TIM_OC3_SetConfig+0xae>
 800694e:	687b      	ldr	r3, [r7, #4]
 8006950:	4a1b      	ldr	r2, [pc, #108]	@ (80069c0 <TIM_OC3_SetConfig+0x100>)
 8006952:	4293      	cmp	r3, r2
 8006954:	d00b      	beq.n	800696e <TIM_OC3_SetConfig+0xae>
 8006956:	687b      	ldr	r3, [r7, #4]
 8006958:	4a1a      	ldr	r2, [pc, #104]	@ (80069c4 <TIM_OC3_SetConfig+0x104>)
 800695a:	4293      	cmp	r3, r2
 800695c:	d007      	beq.n	800696e <TIM_OC3_SetConfig+0xae>
 800695e:	687b      	ldr	r3, [r7, #4]
 8006960:	4a19      	ldr	r2, [pc, #100]	@ (80069c8 <TIM_OC3_SetConfig+0x108>)
 8006962:	4293      	cmp	r3, r2
 8006964:	d003      	beq.n	800696e <TIM_OC3_SetConfig+0xae>
 8006966:	687b      	ldr	r3, [r7, #4]
 8006968:	4a18      	ldr	r2, [pc, #96]	@ (80069cc <TIM_OC3_SetConfig+0x10c>)
 800696a:	4293      	cmp	r3, r2
 800696c:	d113      	bne.n	8006996 <TIM_OC3_SetConfig+0xd6>
 800696e:	693b      	ldr	r3, [r7, #16]
 8006970:	f423 5380 	bic.w	r3, r3, #4096	@ 0x1000
 8006974:	613b      	str	r3, [r7, #16]
 8006976:	693b      	ldr	r3, [r7, #16]
 8006978:	f423 5300 	bic.w	r3, r3, #8192	@ 0x2000
 800697c:	613b      	str	r3, [r7, #16]
 800697e:	683b      	ldr	r3, [r7, #0]
 8006980:	695b      	ldr	r3, [r3, #20]
 8006982:	011b      	lsls	r3, r3, #4
 8006984:	693a      	ldr	r2, [r7, #16]
 8006986:	4313      	orrs	r3, r2
 8006988:	613b      	str	r3, [r7, #16]
 800698a:	683b      	ldr	r3, [r7, #0]
 800698c:	699b      	ldr	r3, [r3, #24]
 800698e:	011b      	lsls	r3, r3, #4
 8006990:	693a      	ldr	r2, [r7, #16]
 8006992:	4313      	orrs	r3, r2
 8006994:	613b      	str	r3, [r7, #16]
 8006996:	687b      	ldr	r3, [r7, #4]
 8006998:	693a      	ldr	r2, [r7, #16]
 800699a:	605a      	str	r2, [r3, #4]
 800699c:	687b      	ldr	r3, [r7, #4]
 800699e:	68fa      	ldr	r2, [r7, #12]
 80069a0:	61da      	str	r2, [r3, #28]
 80069a2:	683b      	ldr	r3, [r7, #0]
 80069a4:	685a      	ldr	r2, [r3, #4]
 80069a6:	687b      	ldr	r3, [r7, #4]
 80069a8:	63da      	str	r2, [r3, #60]	@ 0x3c
 80069aa:	687b      	ldr	r3, [r7, #4]
 80069ac:	697a      	ldr	r2, [r7, #20]
 80069ae:	621a      	str	r2, [r3, #32]
 80069b0:	bf00      	nop
 80069b2:	371c      	adds	r7, #28
 80069b4:	46bd      	mov	sp, r7
 80069b6:	f85d 7b04 	ldr.w	r7, [sp], #4
 80069ba:	4770      	bx	lr
 80069bc:	40012c00 	.word	0x40012c00
 80069c0:	40013400 	.word	0x40013400
 80069c4:	40014000 	.word	0x40014000
 80069c8:	40014400 	.word	0x40014400
 80069cc:	40014800 	.word	0x40014800

080069d0 <TIM_OC4_SetConfig>:
 80069d0:	b480      	push	{r7}
 80069d2:	b087      	sub	sp, #28
 80069d4:	af00      	add	r7, sp, #0
 80069d6:	6078      	str	r0, [r7, #4]
 80069d8:	6039      	str	r1, [r7, #0]
 80069da:	687b      	ldr	r3, [r7, #4]
 80069dc:	6a1b      	ldr	r3, [r3, #32]
 80069de:	613b      	str	r3, [r7, #16]
 80069e0:	687b      	ldr	r3, [r7, #4]
 80069e2:	6a1b      	ldr	r3, [r3, #32]
 80069e4:	f423 5280 	bic.w	r2, r3, #4096	@ 0x1000
 80069e8:	687b      	ldr	r3, [r7, #4]
 80069ea:	621a      	str	r2, [r3, #32]
 80069ec:	687b      	ldr	r3, [r7, #4]
 80069ee:	685b      	ldr	r3, [r3, #4]
 80069f0:	617b      	str	r3, [r7, #20]
 80069f2:	687b      	ldr	r3, [r7, #4]
 80069f4:	69db      	ldr	r3, [r3, #28]
 80069f6:	60fb      	str	r3, [r7, #12]
 80069f8:	68fb      	ldr	r3, [r7, #12]
 80069fa:	f023 7380 	bic.w	r3, r3, #16777216	@ 0x1000000
 80069fe:	f423 43e0 	bic.w	r3, r3, #28672	@ 0x7000
 8006a02:	60fb      	str	r3, [r7, #12]
 8006a04:	68fb      	ldr	r3, [r7, #12]
 8006a06:	f423 7340 	bic.w	r3, r3, #768	@ 0x300
 8006a0a:	60fb      	str	r3, [r7, #12]
 8006a0c:	683b      	ldr	r3, [r7, #0]
 8006a0e:	681b      	ldr	r3, [r3, #0]
 8006a10:	021b      	lsls	r3, r3, #8
 8006a12:	68fa      	ldr	r2, [r7, #12]
 8006a14:	4313      	orrs	r3, r2
 8006a16:	60fb      	str	r3, [r7, #12]
 8006a18:	693b      	ldr	r3, [r7, #16]
 8006a1a:	f423 5300 	bic.w	r3, r3, #8192	@ 0x2000
 8006a1e:	613b      	str	r3, [r7, #16]
 8006a20:	683b      	ldr	r3, [r7, #0]
 8006a22:	689b      	ldr	r3, [r3, #8]
 8006a24:	031b      	lsls	r3, r3, #12
 8006a26:	693a      	ldr	r2, [r7, #16]
 8006a28:	4313      	orrs	r3, r2
 8006a2a:	613b      	str	r3, [r7, #16]
 8006a2c:	687b      	ldr	r3, [r7, #4]
 8006a2e:	4a18      	ldr	r2, [pc, #96]	@ (8006a90 <TIM_OC4_SetConfig+0xc0>)
 8006a30:	4293      	cmp	r3, r2
 8006a32:	d00f      	beq.n	8006a54 <TIM_OC4_SetConfig+0x84>
 8006a34:	687b      	ldr	r3, [r7, #4]
 8006a36:	4a17      	ldr	r2, [pc, #92]	@ (8006a94 <TIM_OC4_SetConfig+0xc4>)
 8006a38:	4293      	cmp	r3, r2
 8006a3a:	d00b      	beq.n	8006a54 <TIM_OC4_SetConfig+0x84>
 8006a3c:	687b      	ldr	r3, [r7, #4]
 8006a3e:	4a16      	ldr	r2, [pc, #88]	@ (8006a98 <TIM_OC4_SetConfig+0xc8>)
 8006a40:	4293      	cmp	r3, r2
 8006a42:	d007      	beq.n	8006a54 <TIM_OC4_SetConfig+0x84>
 8006a44:	687b      	ldr	r3, [r7, #4]
 8006a46:	4a15      	ldr	r2, [pc, #84]	@ (8006a9c <TIM_OC4_SetConfig+0xcc>)
 8006a48:	4293      	cmp	r3, r2
 8006a4a:	d003      	beq.n	8006a54 <TIM_OC4_SetConfig+0x84>
 8006a4c:	687b      	ldr	r3, [r7, #4]
 8006a4e:	4a14      	ldr	r2, [pc, #80]	@ (8006aa0 <TIM_OC4_SetConfig+0xd0>)
 8006a50:	4293      	cmp	r3, r2
 8006a52:	d109      	bne.n	8006a68 <TIM_OC4_SetConfig+0x98>
 8006a54:	697b      	ldr	r3, [r7, #20]
 8006a56:	f423 4380 	bic.w	r3, r3, #16384	@ 0x4000
 8006a5a:	617b      	str	r3, [r7, #20]
 8006a5c:	683b      	ldr	r3, [r7, #0]
 8006a5e:	695b      	ldr	r3, [r3, #20]
 8006a60:	019b      	lsls	r3, r3, #6
 8006a62:	697a      	ldr	r2, [r7, #20]
 8006a64:	4313      	orrs	r3, r2
 8006a66:	617b      	str	r3, [r7, #20]
 8006a68:	687b      	ldr	r3, [r7, #4]
 8006a6a:	697a      	ldr	r2, [r7, #20]
 8006a6c:	605a      	str	r2, [r3, #4]
 8006a6e:	687b      	ldr	r3, [r7, #4]
 8006a70:	68fa      	ldr	r2, [r7, #12]
 8006a72:	61da      	str	r2, [r3, #28]
 8006a74:	683b      	ldr	r3, [r7, #0]
 8006a76:	685a      	ldr	r2, [r3, #4]
 8006a78:	687b      	ldr	r3, [r7, #4]
 8006a7a:	641a      	str	r2, [r3, #64]	@ 0x40
 8006a7c:	687b      	ldr	r3, [r7, #4]
 8006a7e:	693a      	ldr	r2, [r7, #16]
 8006a80:	621a      	str	r2, [r3, #32]
 8006a82:	bf00      	nop
 8006a84:	371c      	adds	r7, #28
 8006a86:	46bd      	mov	sp, r7
 8006a88:	f85d 7b04 	ldr.w	r7, [sp], #4
 8006a8c:	4770      	bx	lr
 8006a8e:	bf00      	nop
 8006a90:	40012c00 	.word	0x40012c00
 8006a94:	40013400 	.word	0x40013400
 8006a98:	40014000 	.word	0x40014000
 8006a9c:	40014400 	.word	0x40014400
 8006aa0:	40014800 	.word	0x40014800

08006aa4 <TIM_OC5_SetConfig>:
 8006aa4:	b480      	push	{r7}
 8006aa6:	b087      	sub	sp, #28
 8006aa8:	af00      	add	r7, sp, #0
 8006aaa:	6078      	str	r0, [r7, #4]
 8006aac:	6039      	str	r1, [r7, #0]
 8006aae:	687b      	ldr	r3, [r7, #4]
 8006ab0:	6a1b      	ldr	r3, [r3, #32]
 8006ab2:	613b      	str	r3, [r7, #16]
 8006ab4:	687b      	ldr	r3, [r7, #4]
 8006ab6:	6a1b      	ldr	r3, [r3, #32]
 8006ab8:	f423 3280 	bic.w	r2, r3, #65536	@ 0x10000
 8006abc:	687b      	ldr	r3, [r7, #4]
 8006abe:	621a      	str	r2, [r3, #32]
 8006ac0:	687b      	ldr	r3, [r7, #4]
 8006ac2:	685b      	ldr	r3, [r3, #4]
 8006ac4:	617b      	str	r3, [r7, #20]
 8006ac6:	687b      	ldr	r3, [r7, #4]
 8006ac8:	6d5b      	ldr	r3, [r3, #84]	@ 0x54
 8006aca:	60fb      	str	r3, [r7, #12]
 8006acc:	68fb      	ldr	r3, [r7, #12]
 8006ace:	f423 3380 	bic.w	r3, r3, #65536	@ 0x10000
 8006ad2:	f023 0370 	bic.w	r3, r3, #112	@ 0x70
 8006ad6:	60fb      	str	r3, [r7, #12]
 8006ad8:	683b      	ldr	r3, [r7, #0]
 8006ada:	681b      	ldr	r3, [r3, #0]
 8006adc:	68fa      	ldr	r2, [r7, #12]
 8006ade:	4313      	orrs	r3, r2
 8006ae0:	60fb      	str	r3, [r7, #12]
 8006ae2:	693b      	ldr	r3, [r7, #16]
 8006ae4:	f423 3300 	bic.w	r3, r3, #131072	@ 0x20000
 8006ae8:	613b      	str	r3, [r7, #16]
 8006aea:	683b      	ldr	r3, [r7, #0]
 8006aec:	689b      	ldr	r3, [r3, #8]
 8006aee:	041b      	lsls	r3, r3, #16
 8006af0:	693a      	ldr	r2, [r7, #16]
 8006af2:	4313      	orrs	r3, r2
 8006af4:	613b      	str	r3, [r7, #16]
 8006af6:	687b      	ldr	r3, [r7, #4]
 8006af8:	4a17      	ldr	r2, [pc, #92]	@ (8006b58 <TIM_OC5_SetConfig+0xb4>)
 8006afa:	4293      	cmp	r3, r2
 8006afc:	d00f      	beq.n	8006b1e <TIM_OC5_SetConfig+0x7a>
 8006afe:	687b      	ldr	r3, [r7, #4]
 8006b00:	4a16      	ldr	r2, [pc, #88]	@ (8006b5c <TIM_OC5_SetConfig+0xb8>)
 8006b02:	4293      	cmp	r3, r2
 8006b04:	d00b      	beq.n	8006b1e <TIM_OC5_SetConfig+0x7a>
 8006b06:	687b      	ldr	r3, [r7, #4]
 8006b08:	4a15      	ldr	r2, [pc, #84]	@ (8006b60 <TIM_OC5_SetConfig+0xbc>)
 8006b0a:	4293      	cmp	r3, r2
 8006b0c:	d007      	beq.n	8006b1e <TIM_OC5_SetConfig+0x7a>
 8006b0e:	687b      	ldr	r3, [r7, #4]
 8006b10:	4a14      	ldr	r2, [pc, #80]	@ (8006b64 <TIM_OC5_SetConfig+0xc0>)
 8006b12:	4293      	cmp	r3, r2
 8006b14:	d003      	beq.n	8006b1e <TIM_OC5_SetConfig+0x7a>
 8006b16:	687b      	ldr	r3, [r7, #4]
 8006b18:	4a13      	ldr	r2, [pc, #76]	@ (8006b68 <TIM_OC5_SetConfig+0xc4>)
 8006b1a:	4293      	cmp	r3, r2
 8006b1c:	d109      	bne.n	8006b32 <TIM_OC5_SetConfig+0x8e>
 8006b1e:	697b      	ldr	r3, [r7, #20]
 8006b20:	f423 3380 	bic.w	r3, r3, #65536	@ 0x10000
 8006b24:	617b      	str	r3, [r7, #20]
 8006b26:	683b      	ldr	r3, [r7, #0]
 8006b28:	695b      	ldr	r3, [r3, #20]
 8006b2a:	021b      	lsls	r3, r3, #8
 8006b2c:	697a      	ldr	r2, [r7, #20]
 8006b2e:	4313      	orrs	r3, r2
 8006b30:	617b      	str	r3, [r7, #20]
 8006b32:	687b      	ldr	r3, [r7, #4]
 8006b34:	697a      	ldr	r2, [r7, #20]
 8006b36:	605a      	str	r2, [r3, #4]
 8006b38:	687b      	ldr	r3, [r7, #4]
 8006b3a:	68fa      	ldr	r2, [r7, #12]
 8006b3c:	655a      	str	r2, [r3, #84]	@ 0x54
 8006b3e:	683b      	ldr	r3, [r7, #0]
 8006b40:	685a      	ldr	r2, [r3, #4]
 8006b42:	687b      	ldr	r3, [r7, #4]
 8006b44:	659a      	str	r2, [r3, #88]	@ 0x58
 8006b46:	687b      	ldr	r3, [r7, #4]
 8006b48:	693a      	ldr	r2, [r7, #16]
 8006b4a:	621a      	str	r2, [r3, #32]
 8006b4c:	bf00      	nop
 8006b4e:	371c      	adds	r7, #28
 8006b50:	46bd      	mov	sp, r7
 8006b52:	f85d 7b04 	ldr.w	r7, [sp], #4
 8006b56:	4770      	bx	lr
 8006b58:	40012c00 	.word	0x40012c00
 8006b5c:	40013400 	.word	0x40013400
 8006b60:	40014000 	.word	0x40014000
 8006b64:	40014400 	.word	0x40014400
 8006b68:	40014800 	.word	0x40014800

08006b6c <TIM_OC6_SetConfig>:
 8006b6c:	b480      	push	{r7}
 8006b6e:	b087      	sub	sp, #28
 8006b70:	af00      	add	r7, sp, #0
 8006b72:	6078      	str	r0, [r7, #4]
 8006b74:	6039      	str	r1, [r7, #0]
 8006b76:	687b      	ldr	r3, [r7, #4]
 8006b78:	6a1b      	ldr	r3, [r3, #32]
 8006b7a:	613b      	str	r3, [r7, #16]
 8006b7c:	687b      	ldr	r3, [r7, #4]
 8006b7e:	6a1b      	ldr	r3, [r3, #32]
 8006b80:	f423 1280 	bic.w	r2, r3, #1048576	@ 0x100000
 8006b84:	687b      	ldr	r3, [r7, #4]
 8006b86:	621a      	str	r2, [r3, #32]
 8006b88:	687b      	ldr	r3, [r7, #4]
 8006b8a:	685b      	ldr	r3, [r3, #4]
 8006b8c:	617b      	str	r3, [r7, #20]
 8006b8e:	687b      	ldr	r3, [r7, #4]
 8006b90:	6d5b      	ldr	r3, [r3, #84]	@ 0x54
 8006b92:	60fb      	str	r3, [r7, #12]
 8006b94:	68fb      	ldr	r3, [r7, #12]
 8006b96:	f023 7380 	bic.w	r3, r3, #16777216	@ 0x1000000
 8006b9a:	f423 43e0 	bic.w	r3, r3, #28672	@ 0x7000
 8006b9e:	60fb      	str	r3, [r7, #12]
 8006ba0:	683b      	ldr	r3, [r7, #0]
 8006ba2:	681b      	ldr	r3, [r3, #0]
 8006ba4:	021b      	lsls	r3, r3, #8
 8006ba6:	68fa      	ldr	r2, [r7, #12]
 8006ba8:	4313      	orrs	r3, r2
 8006baa:	60fb      	str	r3, [r7, #12]
 8006bac:	693b      	ldr	r3, [r7, #16]
 8006bae:	f423 1300 	bic.w	r3, r3, #2097152	@ 0x200000
 8006bb2:	613b      	str	r3, [r7, #16]
 8006bb4:	683b      	ldr	r3, [r7, #0]
 8006bb6:	689b      	ldr	r3, [r3, #8]
 8006bb8:	051b      	lsls	r3, r3, #20
 8006bba:	693a      	ldr	r2, [r7, #16]
 8006bbc:	4313      	orrs	r3, r2
 8006bbe:	613b      	str	r3, [r7, #16]
 8006bc0:	687b      	ldr	r3, [r7, #4]
 8006bc2:	4a18      	ldr	r2, [pc, #96]	@ (8006c24 <TIM_OC6_SetConfig+0xb8>)
 8006bc4:	4293      	cmp	r3, r2
 8006bc6:	d00f      	beq.n	8006be8 <TIM_OC6_SetConfig+0x7c>
 8006bc8:	687b      	ldr	r3, [r7, #4]
 8006bca:	4a17      	ldr	r2, [pc, #92]	@ (8006c28 <TIM_OC6_SetConfig+0xbc>)
 8006bcc:	4293      	cmp	r3, r2
 8006bce:	d00b      	beq.n	8006be8 <TIM_OC6_SetConfig+0x7c>
 8006bd0:	687b      	ldr	r3, [r7, #4]
 8006bd2:	4a16      	ldr	r2, [pc, #88]	@ (8006c2c <TIM_OC6_SetConfig+0xc0>)
 8006bd4:	4293      	cmp	r3, r2
 8006bd6:	d007      	beq.n	8006be8 <TIM_OC6_SetConfig+0x7c>
 8006bd8:	687b      	ldr	r3, [r7, #4]
 8006bda:	4a15      	ldr	r2, [pc, #84]	@ (8006c30 <TIM_OC6_SetConfig+0xc4>)
 8006bdc:	4293      	cmp	r3, r2
 8006bde:	d003      	beq.n	8006be8 <TIM_OC6_SetConfig+0x7c>
 8006be0:	687b      	ldr	r3, [r7, #4]
 8006be2:	4a14      	ldr	r2, [pc, #80]	@ (8006c34 <TIM_OC6_SetConfig+0xc8>)
 8006be4:	4293      	cmp	r3, r2
 8006be6:	d109      	bne.n	8006bfc <TIM_OC6_SetConfig+0x90>
 8006be8:	697b      	ldr	r3, [r7, #20]
 8006bea:	f423 2380 	bic.w	r3, r3, #262144	@ 0x40000
 8006bee:	617b      	str	r3, [r7, #20]
 8006bf0:	683b      	ldr	r3, [r7, #0]
 8006bf2:	695b      	ldr	r3, [r3, #20]
 8006bf4:	029b      	lsls	r3, r3, #10
 8006bf6:	697a      	ldr	r2, [r7, #20]
 8006bf8:	4313      	orrs	r3, r2
 8006bfa:	617b      	str	r3, [r7, #20]
 8006bfc:	687b      	ldr	r3, [r7, #4]
 8006bfe:	697a      	ldr	r2, [r7, #20]
 8006c00:	605a      	str	r2, [r3, #4]
 8006c02:	687b      	ldr	r3, [r7, #4]
 8006c04:	68fa      	ldr	r2, [r7, #12]
 8006c06:	655a      	str	r2, [r3, #84]	@ 0x54
 8006c08:	683b      	ldr	r3, [r7, #0]
 8006c0a:	685a      	ldr	r2, [r3, #4]
 8006c0c:	687b      	ldr	r3, [r7, #4]
 8006c0e:	65da      	str	r2, [r3, #92]	@ 0x5c
 8006c10:	687b      	ldr	r3, [r7, #4]
 8006c12:	693a      	ldr	r2, [r7, #16]
 8006c14:	621a      	str	r2, [r3, #32]
 8006c16:	bf00      	nop
 8006c18:	371c      	adds	r7, #28
 8006c1a:	46bd      	mov	sp, r7
 8006c1c:	f85d 7b04 	ldr.w	r7, [sp], #4
 8006c20:	4770      	bx	lr
 8006c22:	bf00      	nop
 8006c24:	40012c00 	.word	0x40012c00
 8006c28:	40013400 	.word	0x40013400
 8006c2c:	40014000 	.word	0x40014000
 8006c30:	40014400 	.word	0x40014400
 8006c34:	40014800 	.word	0x40014800

08006c38 <TIM_TI1_SetConfig>:
 8006c38:	b480      	push	{r7}
 8006c3a:	b087      	sub	sp, #28
 8006c3c:	af00      	add	r7, sp, #0
 8006c3e:	60f8      	str	r0, [r7, #12]
 8006c40:	60b9      	str	r1, [r7, #8]
 8006c42:	607a      	str	r2, [r7, #4]
 8006c44:	603b      	str	r3, [r7, #0]
 8006c46:	68fb      	ldr	r3, [r7, #12]
 8006c48:	6a1b      	ldr	r3, [r3, #32]
 8006c4a:	613b      	str	r3, [r7, #16]
 8006c4c:	68fb      	ldr	r3, [r7, #12]
 8006c4e:	6a1b      	ldr	r3, [r3, #32]
 8006c50:	f023 0201 	bic.w	r2, r3, #1
 8006c54:	68fb      	ldr	r3, [r7, #12]
 8006c56:	621a      	str	r2, [r3, #32]
 8006c58:	68fb      	ldr	r3, [r7, #12]
 8006c5a:	699b      	ldr	r3, [r3, #24]
 8006c5c:	617b      	str	r3, [r7, #20]
 8006c5e:	68fb      	ldr	r3, [r7, #12]
 8006c60:	4a26      	ldr	r2, [pc, #152]	@ (8006cfc <TIM_TI1_SetConfig+0xc4>)
 8006c62:	4293      	cmp	r3, r2
 8006c64:	d017      	beq.n	8006c96 <TIM_TI1_SetConfig+0x5e>
 8006c66:	68fb      	ldr	r3, [r7, #12]
 8006c68:	f1b3 4f80 	cmp.w	r3, #1073741824	@ 0x40000000
 8006c6c:	d013      	beq.n	8006c96 <TIM_TI1_SetConfig+0x5e>
 8006c6e:	68fb      	ldr	r3, [r7, #12]
 8006c70:	4a23      	ldr	r2, [pc, #140]	@ (8006d00 <TIM_TI1_SetConfig+0xc8>)
 8006c72:	4293      	cmp	r3, r2
 8006c74:	d00f      	beq.n	8006c96 <TIM_TI1_SetConfig+0x5e>
 8006c76:	68fb      	ldr	r3, [r7, #12]
 8006c78:	4a22      	ldr	r2, [pc, #136]	@ (8006d04 <TIM_TI1_SetConfig+0xcc>)
 8006c7a:	4293      	cmp	r3, r2
 8006c7c:	d00b      	beq.n	8006c96 <TIM_TI1_SetConfig+0x5e>
 8006c7e:	68fb      	ldr	r3, [r7, #12]
 8006c80:	4a21      	ldr	r2, [pc, #132]	@ (8006d08 <TIM_TI1_SetConfig+0xd0>)
 8006c82:	4293      	cmp	r3, r2
 8006c84:	d007      	beq.n	8006c96 <TIM_TI1_SetConfig+0x5e>
 8006c86:	68fb      	ldr	r3, [r7, #12]
 8006c88:	4a20      	ldr	r2, [pc, #128]	@ (8006d0c <TIM_TI1_SetConfig+0xd4>)
 8006c8a:	4293      	cmp	r3, r2
 8006c8c:	d003      	beq.n	8006c96 <TIM_TI1_SetConfig+0x5e>
 8006c8e:	68fb      	ldr	r3, [r7, #12]
 8006c90:	4a1f      	ldr	r2, [pc, #124]	@ (8006d10 <TIM_TI1_SetConfig+0xd8>)
 8006c92:	4293      	cmp	r3, r2
 8006c94:	d101      	bne.n	8006c9a <TIM_TI1_SetConfig+0x62>
 8006c96:	2301      	movs	r3, #1
 8006c98:	e000      	b.n	8006c9c <TIM_TI1_SetConfig+0x64>
 8006c9a:	2300      	movs	r3, #0
 8006c9c:	2b00      	cmp	r3, #0
 8006c9e:	d008      	beq.n	8006cb2 <TIM_TI1_SetConfig+0x7a>
 8006ca0:	697b      	ldr	r3, [r7, #20]
 8006ca2:	f023 0303 	bic.w	r3, r3, #3
 8006ca6:	617b      	str	r3, [r7, #20]
 8006ca8:	697a      	ldr	r2, [r7, #20]
 8006caa:	687b      	ldr	r3, [r7, #4]
 8006cac:	4313      	orrs	r3, r2
 8006cae:	617b      	str	r3, [r7, #20]
 8006cb0:	e003      	b.n	8006cba <TIM_TI1_SetConfig+0x82>
 8006cb2:	697b      	ldr	r3, [r7, #20]
 8006cb4:	f043 0301 	orr.w	r3, r3, #1
 8006cb8:	617b      	str	r3, [r7, #20]
 8006cba:	697b      	ldr	r3, [r7, #20]
 8006cbc:	f023 03f0 	bic.w	r3, r3, #240	@ 0xf0
 8006cc0:	617b      	str	r3, [r7, #20]
 8006cc2:	683b      	ldr	r3, [r7, #0]
 8006cc4:	011b      	lsls	r3, r3, #4
 8006cc6:	b2db      	uxtb	r3, r3
 8006cc8:	697a      	ldr	r2, [r7, #20]
 8006cca:	4313      	orrs	r3, r2
 8006ccc:	617b      	str	r3, [r7, #20]
 8006cce:	693b      	ldr	r3, [r7, #16]
 8006cd0:	f023 030a 	bic.w	r3, r3, #10
 8006cd4:	613b      	str	r3, [r7, #16]
 8006cd6:	68bb      	ldr	r3, [r7, #8]
 8006cd8:	f003 030a 	and.w	r3, r3, #10
 8006cdc:	693a      	ldr	r2, [r7, #16]
 8006cde:	4313      	orrs	r3, r2
 8006ce0:	613b      	str	r3, [r7, #16]
 8006ce2:	68fb      	ldr	r3, [r7, #12]
 8006ce4:	697a      	ldr	r2, [r7, #20]
 8006ce6:	619a      	str	r2, [r3, #24]
 8006ce8:	68fb      	ldr	r3, [r7, #12]
 8006cea:	693a      	ldr	r2, [r7, #16]
 8006cec:	621a      	str	r2, [r3, #32]
 8006cee:	bf00      	nop
 8006cf0:	371c      	adds	r7, #28
 8006cf2:	46bd      	mov	sp, r7
 8006cf4:	f85d 7b04 	ldr.w	r7, [sp], #4
 8006cf8:	4770      	bx	lr
 8006cfa:	bf00      	nop
 8006cfc:	40012c00 	.word	0x40012c00
 8006d00:	40000400 	.word	0x40000400
 8006d04:	40000800 	.word	0x40000800
 8006d08:	40000c00 	.word	0x40000c00
 8006d0c:	40013400 	.word	0x40013400
 8006d10:	40014000 	.word	0x40014000

08006d14 <TIM_TI1_ConfigInputStage>:
 8006d14:	b480      	push	{r7}
 8006d16:	b087      	sub	sp, #28
 8006d18:	af00      	add	r7, sp, #0
 8006d1a:	60f8      	str	r0, [r7, #12]
 8006d1c:	60b9      	str	r1, [r7, #8]
 8006d1e:	607a      	str	r2, [r7, #4]
 8006d20:	68fb      	ldr	r3, [r7, #12]
 8006d22:	6a1b      	ldr	r3, [r3, #32]
 8006d24:	617b      	str	r3, [r7, #20]
 8006d26:	68fb      	ldr	r3, [r7, #12]
 8006d28:	6a1b      	ldr	r3, [r3, #32]
 8006d2a:	f023 0201 	bic.w	r2, r3, #1
 8006d2e:	68fb      	ldr	r3, [r7, #12]
 8006d30:	621a      	str	r2, [r3, #32]
 8006d32:	68fb      	ldr	r3, [r7, #12]
 8006d34:	699b      	ldr	r3, [r3, #24]
 8006d36:	613b      	str	r3, [r7, #16]
 8006d38:	693b      	ldr	r3, [r7, #16]
 8006d3a:	f023 03f0 	bic.w	r3, r3, #240	@ 0xf0
 8006d3e:	613b      	str	r3, [r7, #16]
 8006d40:	687b      	ldr	r3, [r7, #4]
 8006d42:	011b      	lsls	r3, r3, #4
 8006d44:	693a      	ldr	r2, [r7, #16]
 8006d46:	4313      	orrs	r3, r2
 8006d48:	613b      	str	r3, [r7, #16]
 8006d4a:	697b      	ldr	r3, [r7, #20]
 8006d4c:	f023 030a 	bic.w	r3, r3, #10
 8006d50:	617b      	str	r3, [r7, #20]
 8006d52:	697a      	ldr	r2, [r7, #20]
 8006d54:	68bb      	ldr	r3, [r7, #8]
 8006d56:	4313      	orrs	r3, r2
 8006d58:	617b      	str	r3, [r7, #20]
 8006d5a:	68fb      	ldr	r3, [r7, #12]
 8006d5c:	693a      	ldr	r2, [r7, #16]
 8006d5e:	619a      	str	r2, [r3, #24]
 8006d60:	68fb      	ldr	r3, [r7, #12]
 8006d62:	697a      	ldr	r2, [r7, #20]
 8006d64:	621a      	str	r2, [r3, #32]
 8006d66:	bf00      	nop
 8006d68:	371c      	adds	r7, #28
 8006d6a:	46bd      	mov	sp, r7
 8006d6c:	f85d 7b04 	ldr.w	r7, [sp], #4
 8006d70:	4770      	bx	lr

08006d72 <TIM_TI2_SetConfig>:
 8006d72:	b480      	push	{r7}
 8006d74:	b087      	sub	sp, #28
 8006d76:	af00      	add	r7, sp, #0
 8006d78:	60f8      	str	r0, [r7, #12]
 8006d7a:	60b9      	str	r1, [r7, #8]
 8006d7c:	607a      	str	r2, [r7, #4]
 8006d7e:	603b      	str	r3, [r7, #0]
 8006d80:	68fb      	ldr	r3, [r7, #12]
 8006d82:	6a1b      	ldr	r3, [r3, #32]
 8006d84:	617b      	str	r3, [r7, #20]
 8006d86:	68fb      	ldr	r3, [r7, #12]
 8006d88:	6a1b      	ldr	r3, [r3, #32]
 8006d8a:	f023 0210 	bic.w	r2, r3, #16
 8006d8e:	68fb      	ldr	r3, [r7, #12]
 8006d90:	621a      	str	r2, [r3, #32]
 8006d92:	68fb      	ldr	r3, [r7, #12]
 8006d94:	699b      	ldr	r3, [r3, #24]
 8006d96:	613b      	str	r3, [r7, #16]
 8006d98:	693b      	ldr	r3, [r7, #16]
 8006d9a:	f423 7340 	bic.w	r3, r3, #768	@ 0x300
 8006d9e:	613b      	str	r3, [r7, #16]
 8006da0:	687b      	ldr	r3, [r7, #4]
 8006da2:	021b      	lsls	r3, r3, #8
 8006da4:	693a      	ldr	r2, [r7, #16]
 8006da6:	4313      	orrs	r3, r2
 8006da8:	613b      	str	r3, [r7, #16]
 8006daa:	693b      	ldr	r3, [r7, #16]
 8006dac:	f423 4370 	bic.w	r3, r3, #61440	@ 0xf000
 8006db0:	613b      	str	r3, [r7, #16]
 8006db2:	683b      	ldr	r3, [r7, #0]
 8006db4:	031b      	lsls	r3, r3, #12
 8006db6:	b29b      	uxth	r3, r3
 8006db8:	693a      	ldr	r2, [r7, #16]
 8006dba:	4313      	orrs	r3, r2
 8006dbc:	613b      	str	r3, [r7, #16]
 8006dbe:	697b      	ldr	r3, [r7, #20]
 8006dc0:	f023 03a0 	bic.w	r3, r3, #160	@ 0xa0
 8006dc4:	617b      	str	r3, [r7, #20]
 8006dc6:	68bb      	ldr	r3, [r7, #8]
 8006dc8:	011b      	lsls	r3, r3, #4
 8006dca:	f003 03a0 	and.w	r3, r3, #160	@ 0xa0
 8006dce:	697a      	ldr	r2, [r7, #20]
 8006dd0:	4313      	orrs	r3, r2
 8006dd2:	617b      	str	r3, [r7, #20]
 8006dd4:	68fb      	ldr	r3, [r7, #12]
 8006dd6:	693a      	ldr	r2, [r7, #16]
 8006dd8:	619a      	str	r2, [r3, #24]
 8006dda:	68fb      	ldr	r3, [r7, #12]
 8006ddc:	697a      	ldr	r2, [r7, #20]
 8006dde:	621a      	str	r2, [r3, #32]
 8006de0:	bf00      	nop
 8006de2:	371c      	adds	r7, #28
 8006de4:	46bd      	mov	sp, r7
 8006de6:	f85d 7b04 	ldr.w	r7, [sp], #4
 8006dea:	4770      	bx	lr

08006dec <TIM_TI2_ConfigInputStage>:
 8006dec:	b480      	push	{r7}
 8006dee:	b087      	sub	sp, #28
 8006df0:	af00      	add	r7, sp, #0
 8006df2:	60f8      	str	r0, [r7, #12]
 8006df4:	60b9      	str	r1, [r7, #8]
 8006df6:	607a      	str	r2, [r7, #4]
 8006df8:	68fb      	ldr	r3, [r7, #12]
 8006dfa:	6a1b      	ldr	r3, [r3, #32]
 8006dfc:	617b      	str	r3, [r7, #20]
 8006dfe:	68fb      	ldr	r3, [r7, #12]
 8006e00:	6a1b      	ldr	r3, [r3, #32]
 8006e02:	f023 0210 	bic.w	r2, r3, #16
 8006e06:	68fb      	ldr	r3, [r7, #12]
 8006e08:	621a      	str	r2, [r3, #32]
 8006e0a:	68fb      	ldr	r3, [r7, #12]
 8006e0c:	699b      	ldr	r3, [r3, #24]
 8006e0e:	613b      	str	r3, [r7, #16]
 8006e10:	693b      	ldr	r3, [r7, #16]
 8006e12:	f423 4370 	bic.w	r3, r3, #61440	@ 0xf000
 8006e16:	613b      	str	r3, [r7, #16]
 8006e18:	687b      	ldr	r3, [r7, #4]
 8006e1a:	031b      	lsls	r3, r3, #12
 8006e1c:	693a      	ldr	r2, [r7, #16]
 8006e1e:	4313      	orrs	r3, r2
 8006e20:	613b      	str	r3, [r7, #16]
 8006e22:	697b      	ldr	r3, [r7, #20]
 8006e24:	f023 03a0 	bic.w	r3, r3, #160	@ 0xa0
 8006e28:	617b      	str	r3, [r7, #20]
 8006e2a:	68bb      	ldr	r3, [r7, #8]
 8006e2c:	011b      	lsls	r3, r3, #4
 8006e2e:	697a      	ldr	r2, [r7, #20]
 8006e30:	4313      	orrs	r3, r2
 8006e32:	617b      	str	r3, [r7, #20]
 8006e34:	68fb      	ldr	r3, [r7, #12]
 8006e36:	693a      	ldr	r2, [r7, #16]
 8006e38:	619a      	str	r2, [r3, #24]
 8006e3a:	68fb      	ldr	r3, [r7, #12]
 8006e3c:	697a      	ldr	r2, [r7, #20]
 8006e3e:	621a      	str	r2, [r3, #32]
 8006e40:	bf00      	nop
 8006e42:	371c      	adds	r7, #28
 8006e44:	46bd      	mov	sp, r7
 8006e46:	f85d 7b04 	ldr.w	r7, [sp], #4
 8006e4a:	4770      	bx	lr

08006e4c <TIM_TI3_SetConfig>:
 8006e4c:	b480      	push	{r7}
 8006e4e:	b087      	sub	sp, #28
 8006e50:	af00      	add	r7, sp, #0
 8006e52:	60f8      	str	r0, [r7, #12]
 8006e54:	60b9      	str	r1, [r7, #8]
 8006e56:	607a      	str	r2, [r7, #4]
 8006e58:	603b      	str	r3, [r7, #0]
 8006e5a:	68fb      	ldr	r3, [r7, #12]
 8006e5c:	6a1b      	ldr	r3, [r3, #32]
 8006e5e:	617b      	str	r3, [r7, #20]
 8006e60:	68fb      	ldr	r3, [r7, #12]
 8006e62:	6a1b      	ldr	r3, [r3, #32]
 8006e64:	f423 7280 	bic.w	r2, r3, #256	@ 0x100
 8006e68:	68fb      	ldr	r3, [r7, #12]
 8006e6a:	621a      	str	r2, [r3, #32]
 8006e6c:	68fb      	ldr	r3, [r7, #12]
 8006e6e:	69db      	ldr	r3, [r3, #28]
 8006e70:	613b      	str	r3, [r7, #16]
 8006e72:	693b      	ldr	r3, [r7, #16]
 8006e74:	f023 0303 	bic.w	r3, r3, #3
 8006e78:	613b      	str	r3, [r7, #16]
 8006e7a:	693a      	ldr	r2, [r7, #16]
 8006e7c:	687b      	ldr	r3, [r7, #4]
 8006e7e:	4313      	orrs	r3, r2
 8006e80:	613b      	str	r3, [r7, #16]
 8006e82:	693b      	ldr	r3, [r7, #16]
 8006e84:	f023 03f0 	bic.w	r3, r3, #240	@ 0xf0
 8006e88:	613b      	str	r3, [r7, #16]
 8006e8a:	683b      	ldr	r3, [r7, #0]
 8006e8c:	011b      	lsls	r3, r3, #4
 8006e8e:	b2db      	uxtb	r3, r3
 8006e90:	693a      	ldr	r2, [r7, #16]
 8006e92:	4313      	orrs	r3, r2
 8006e94:	613b      	str	r3, [r7, #16]
 8006e96:	697b      	ldr	r3, [r7, #20]
 8006e98:	f423 6320 	bic.w	r3, r3, #2560	@ 0xa00
 8006e9c:	617b      	str	r3, [r7, #20]
 8006e9e:	68bb      	ldr	r3, [r7, #8]
 8006ea0:	021b      	lsls	r3, r3, #8
 8006ea2:	f403 6320 	and.w	r3, r3, #2560	@ 0xa00
 8006ea6:	697a      	ldr	r2, [r7, #20]
 8006ea8:	4313      	orrs	r3, r2
 8006eaa:	617b      	str	r3, [r7, #20]
 8006eac:	68fb      	ldr	r3, [r7, #12]
 8006eae:	693a      	ldr	r2, [r7, #16]
 8006eb0:	61da      	str	r2, [r3, #28]
 8006eb2:	68fb      	ldr	r3, [r7, #12]
 8006eb4:	697a      	ldr	r2, [r7, #20]
 8006eb6:	621a      	str	r2, [r3, #32]
 8006eb8:	bf00      	nop
 8006eba:	371c      	adds	r7, #28
 8006ebc:	46bd      	mov	sp, r7
 8006ebe:	f85d 7b04 	ldr.w	r7, [sp], #4
 8006ec2:	4770      	bx	lr

08006ec4 <TIM_TI4_SetConfig>:
 8006ec4:	b480      	push	{r7}
 8006ec6:	b087      	sub	sp, #28
 8006ec8:	af00      	add	r7, sp, #0
 8006eca:	60f8      	str	r0, [r7, #12]
 8006ecc:	60b9      	str	r1, [r7, #8]
 8006ece:	607a      	str	r2, [r7, #4]
 8006ed0:	603b      	str	r3, [r7, #0]
 8006ed2:	68fb      	ldr	r3, [r7, #12]
 8006ed4:	6a1b      	ldr	r3, [r3, #32]
 8006ed6:	617b      	str	r3, [r7, #20]
 8006ed8:	68fb      	ldr	r3, [r7, #12]
 8006eda:	6a1b      	ldr	r3, [r3, #32]
 8006edc:	f423 5280 	bic.w	r2, r3, #4096	@ 0x1000
 8006ee0:	68fb      	ldr	r3, [r7, #12]
 8006ee2:	621a      	str	r2, [r3, #32]
 8006ee4:	68fb      	ldr	r3, [r7, #12]
 8006ee6:	69db      	ldr	r3, [r3, #28]
 8006ee8:	613b      	str	r3, [r7, #16]
 8006eea:	693b      	ldr	r3, [r7, #16]
 8006eec:	f423 7340 	bic.w	r3, r3, #768	@ 0x300
 8006ef0:	613b      	str	r3, [r7, #16]
 8006ef2:	687b      	ldr	r3, [r7, #4]
 8006ef4:	021b      	lsls	r3, r3, #8
 8006ef6:	693a      	ldr	r2, [r7, #16]
 8006ef8:	4313      	orrs	r3, r2
 8006efa:	613b      	str	r3, [r7, #16]
 8006efc:	693b      	ldr	r3, [r7, #16]
 8006efe:	f423 4370 	bic.w	r3, r3, #61440	@ 0xf000
 8006f02:	613b      	str	r3, [r7, #16]
 8006f04:	683b      	ldr	r3, [r7, #0]
 8006f06:	031b      	lsls	r3, r3, #12
 8006f08:	b29b      	uxth	r3, r3
 8006f0a:	693a      	ldr	r2, [r7, #16]
 8006f0c:	4313      	orrs	r3, r2
 8006f0e:	613b      	str	r3, [r7, #16]
 8006f10:	697b      	ldr	r3, [r7, #20]
 8006f12:	f423 4320 	bic.w	r3, r3, #40960	@ 0xa000
 8006f16:	617b      	str	r3, [r7, #20]
 8006f18:	68bb      	ldr	r3, [r7, #8]
 8006f1a:	031b      	lsls	r3, r3, #12
 8006f1c:	f403 4320 	and.w	r3, r3, #40960	@ 0xa000
 8006f20:	697a      	ldr	r2, [r7, #20]
 8006f22:	4313      	orrs	r3, r2
 8006f24:	617b      	str	r3, [r7, #20]
 8006f26:	68fb      	ldr	r3, [r7, #12]
 8006f28:	693a      	ldr	r2, [r7, #16]
 8006f2a:	61da      	str	r2, [r3, #28]
 8006f2c:	68fb      	ldr	r3, [r7, #12]
 8006f2e:	697a      	ldr	r2, [r7, #20]
 8006f30:	621a      	str	r2, [r3, #32]
 8006f32:	bf00      	nop
 8006f34:	371c      	adds	r7, #28
 8006f36:	46bd      	mov	sp, r7
 8006f38:	f85d 7b04 	ldr.w	r7, [sp], #4
 8006f3c:	4770      	bx	lr

08006f3e <TIM_ITRx_SetConfig>:
 8006f3e:	b480      	push	{r7}
 8006f40:	b085      	sub	sp, #20
 8006f42:	af00      	add	r7, sp, #0
 8006f44:	6078      	str	r0, [r7, #4]
 8006f46:	6039      	str	r1, [r7, #0]
 8006f48:	687b      	ldr	r3, [r7, #4]
 8006f4a:	689b      	ldr	r3, [r3, #8]
 8006f4c:	60fb      	str	r3, [r7, #12]
 8006f4e:	68fb      	ldr	r3, [r7, #12]
 8006f50:	f023 0370 	bic.w	r3, r3, #112	@ 0x70
 8006f54:	60fb      	str	r3, [r7, #12]
 8006f56:	683a      	ldr	r2, [r7, #0]
 8006f58:	68fb      	ldr	r3, [r7, #12]
 8006f5a:	4313      	orrs	r3, r2
 8006f5c:	f043 0307 	orr.w	r3, r3, #7
 8006f60:	60fb      	str	r3, [r7, #12]
 8006f62:	687b      	ldr	r3, [r7, #4]
 8006f64:	68fa      	ldr	r2, [r7, #12]
 8006f66:	609a      	str	r2, [r3, #8]
 8006f68:	bf00      	nop
 8006f6a:	3714      	adds	r7, #20
 8006f6c:	46bd      	mov	sp, r7
 8006f6e:	f85d 7b04 	ldr.w	r7, [sp], #4
 8006f72:	4770      	bx	lr

08006f74 <TIM_ETR_SetConfig>:
 8006f74:	b480      	push	{r7}
 8006f76:	b087      	sub	sp, #28
 8006f78:	af00      	add	r7, sp, #0
 8006f7a:	60f8      	str	r0, [r7, #12]
 8006f7c:	60b9      	str	r1, [r7, #8]
 8006f7e:	607a      	str	r2, [r7, #4]
 8006f80:	603b      	str	r3, [r7, #0]
 8006f82:	68fb      	ldr	r3, [r7, #12]
 8006f84:	689b      	ldr	r3, [r3, #8]
 8006f86:	617b      	str	r3, [r7, #20]
 8006f88:	697b      	ldr	r3, [r7, #20]
 8006f8a:	f423 437f 	bic.w	r3, r3, #65280	@ 0xff00
 8006f8e:	617b      	str	r3, [r7, #20]
 8006f90:	683b      	ldr	r3, [r7, #0]
 8006f92:	021a      	lsls	r2, r3, #8
 8006f94:	687b      	ldr	r3, [r7, #4]
 8006f96:	431a      	orrs	r2, r3
 8006f98:	68bb      	ldr	r3, [r7, #8]
 8006f9a:	4313      	orrs	r3, r2
 8006f9c:	697a      	ldr	r2, [r7, #20]
 8006f9e:	4313      	orrs	r3, r2
 8006fa0:	617b      	str	r3, [r7, #20]
 8006fa2:	68fb      	ldr	r3, [r7, #12]
 8006fa4:	697a      	ldr	r2, [r7, #20]
 8006fa6:	609a      	str	r2, [r3, #8]
 8006fa8:	bf00      	nop
 8006faa:	371c      	adds	r7, #28
 8006fac:	46bd      	mov	sp, r7
 8006fae:	f85d 7b04 	ldr.w	r7, [sp], #4
 8006fb2:	4770      	bx	lr

08006fb4 <TIM_CCxChannelCmd>:
 8006fb4:	b480      	push	{r7}
 8006fb6:	b087      	sub	sp, #28
 8006fb8:	af00      	add	r7, sp, #0
 8006fba:	60f8      	str	r0, [r7, #12]
 8006fbc:	60b9      	str	r1, [r7, #8]
 8006fbe:	607a      	str	r2, [r7, #4]
 8006fc0:	68bb      	ldr	r3, [r7, #8]
 8006fc2:	f003 031f 	and.w	r3, r3, #31
 8006fc6:	2201      	movs	r2, #1
 8006fc8:	fa02 f303 	lsl.w	r3, r2, r3
 8006fcc:	617b      	str	r3, [r7, #20]
 8006fce:	68fb      	ldr	r3, [r7, #12]
 8006fd0:	6a1a      	ldr	r2, [r3, #32]
 8006fd2:	697b      	ldr	r3, [r7, #20]
 8006fd4:	43db      	mvns	r3, r3
 8006fd6:	401a      	ands	r2, r3
 8006fd8:	68fb      	ldr	r3, [r7, #12]
 8006fda:	621a      	str	r2, [r3, #32]
 8006fdc:	68fb      	ldr	r3, [r7, #12]
 8006fde:	6a1a      	ldr	r2, [r3, #32]
 8006fe0:	68bb      	ldr	r3, [r7, #8]
 8006fe2:	f003 031f 	and.w	r3, r3, #31
 8006fe6:	6879      	ldr	r1, [r7, #4]
 8006fe8:	fa01 f303 	lsl.w	r3, r1, r3
 8006fec:	431a      	orrs	r2, r3
 8006fee:	68fb      	ldr	r3, [r7, #12]
 8006ff0:	621a      	str	r2, [r3, #32]
 8006ff2:	bf00      	nop
 8006ff4:	371c      	adds	r7, #28
 8006ff6:	46bd      	mov	sp, r7
 8006ff8:	f85d 7b04 	ldr.w	r7, [sp], #4
 8006ffc:	4770      	bx	lr
	...

08007000 <HAL_TIMEx_MasterConfigSynchronization>:
 8007000:	b480      	push	{r7}
 8007002:	b085      	sub	sp, #20
 8007004:	af00      	add	r7, sp, #0
 8007006:	6078      	str	r0, [r7, #4]
 8007008:	6039      	str	r1, [r7, #0]
 800700a:	687b      	ldr	r3, [r7, #4]
 800700c:	f893 303c 	ldrb.w	r3, [r3, #60]	@ 0x3c
 8007010:	2b01      	cmp	r3, #1
 8007012:	d101      	bne.n	8007018 <HAL_TIMEx_MasterConfigSynchronization+0x18>
 8007014:	2302      	movs	r3, #2
 8007016:	e068      	b.n	80070ea <HAL_TIMEx_MasterConfigSynchronization+0xea>
 8007018:	687b      	ldr	r3, [r7, #4]
 800701a:	2201      	movs	r2, #1
 800701c:	f883 203c 	strb.w	r2, [r3, #60]	@ 0x3c
 8007020:	687b      	ldr	r3, [r7, #4]
 8007022:	2202      	movs	r2, #2
 8007024:	f883 203d 	strb.w	r2, [r3, #61]	@ 0x3d
 8007028:	687b      	ldr	r3, [r7, #4]
 800702a:	681b      	ldr	r3, [r3, #0]
 800702c:	685b      	ldr	r3, [r3, #4]
 800702e:	60fb      	str	r3, [r7, #12]
 8007030:	687b      	ldr	r3, [r7, #4]
 8007032:	681b      	ldr	r3, [r3, #0]
 8007034:	689b      	ldr	r3, [r3, #8]
 8007036:	60bb      	str	r3, [r7, #8]
 8007038:	687b      	ldr	r3, [r7, #4]
 800703a:	681b      	ldr	r3, [r3, #0]
 800703c:	4a2e      	ldr	r2, [pc, #184]	@ (80070f8 <HAL_TIMEx_MasterConfigSynchronization+0xf8>)
 800703e:	4293      	cmp	r3, r2
 8007040:	d004      	beq.n	800704c <HAL_TIMEx_MasterConfigSynchronization+0x4c>
 8007042:	687b      	ldr	r3, [r7, #4]
 8007044:	681b      	ldr	r3, [r3, #0]
 8007046:	4a2d      	ldr	r2, [pc, #180]	@ (80070fc <HAL_TIMEx_MasterConfigSynchronization+0xfc>)
 8007048:	4293      	cmp	r3, r2
 800704a:	d108      	bne.n	800705e <HAL_TIMEx_MasterConfigSynchronization+0x5e>
 800704c:	68fb      	ldr	r3, [r7, #12]
 800704e:	f423 0370 	bic.w	r3, r3, #15728640	@ 0xf00000
 8007052:	60fb      	str	r3, [r7, #12]
 8007054:	683b      	ldr	r3, [r7, #0]
 8007056:	685b      	ldr	r3, [r3, #4]
 8007058:	68fa      	ldr	r2, [r7, #12]
 800705a:	4313      	orrs	r3, r2
 800705c:	60fb      	str	r3, [r7, #12]
 800705e:	68fb      	ldr	r3, [r7, #12]
 8007060:	f023 0370 	bic.w	r3, r3, #112	@ 0x70
 8007064:	60fb      	str	r3, [r7, #12]
 8007066:	683b      	ldr	r3, [r7, #0]
 8007068:	681b      	ldr	r3, [r3, #0]
 800706a:	68fa      	ldr	r2, [r7, #12]
 800706c:	4313      	orrs	r3, r2
 800706e:	60fb      	str	r3, [r7, #12]
 8007070:	687b      	ldr	r3, [r7, #4]
 8007072:	681b      	ldr	r3, [r3, #0]
 8007074:	68fa      	ldr	r2, [r7, #12]
 8007076:	605a      	str	r2, [r3, #4]
 8007078:	687b      	ldr	r3, [r7, #4]
 800707a:	681b      	ldr	r3, [r3, #0]
 800707c:	4a1e      	ldr	r2, [pc, #120]	@ (80070f8 <HAL_TIMEx_MasterConfigSynchronization+0xf8>)
 800707e:	4293      	cmp	r3, r2
 8007080:	d01d      	beq.n	80070be <HAL_TIMEx_MasterConfigSynchronization+0xbe>
 8007082:	687b      	ldr	r3, [r7, #4]
 8007084:	681b      	ldr	r3, [r3, #0]
 8007086:	f1b3 4f80 	cmp.w	r3, #1073741824	@ 0x40000000
 800708a:	d018      	beq.n	80070be <HAL_TIMEx_MasterConfigSynchronization+0xbe>
 800708c:	687b      	ldr	r3, [r7, #4]
 800708e:	681b      	ldr	r3, [r3, #0]
 8007090:	4a1b      	ldr	r2, [pc, #108]	@ (8007100 <HAL_TIMEx_MasterConfigSynchronization+0x100>)
 8007092:	4293      	cmp	r3, r2
 8007094:	d013      	beq.n	80070be <HAL_TIMEx_MasterConfigSynchronization+0xbe>
 8007096:	687b      	ldr	r3, [r7, #4]
 8007098:	681b      	ldr	r3, [r3, #0]
 800709a:	4a1a      	ldr	r2, [pc, #104]	@ (8007104 <HAL_TIMEx_MasterConfigSynchronization+0x104>)
 800709c:	4293      	cmp	r3, r2
 800709e:	d00e      	beq.n	80070be <HAL_TIMEx_MasterConfigSynchronization+0xbe>
 80070a0:	687b      	ldr	r3, [r7, #4]
 80070a2:	681b      	ldr	r3, [r3, #0]
 80070a4:	4a18      	ldr	r2, [pc, #96]	@ (8007108 <HAL_TIMEx_MasterConfigSynchronization+0x108>)
 80070a6:	4293      	cmp	r3, r2
 80070a8:	d009      	beq.n	80070be <HAL_TIMEx_MasterConfigSynchronization+0xbe>
 80070aa:	687b      	ldr	r3, [r7, #4]
 80070ac:	681b      	ldr	r3, [r3, #0]
 80070ae:	4a13      	ldr	r2, [pc, #76]	@ (80070fc <HAL_TIMEx_MasterConfigSynchronization+0xfc>)
 80070b0:	4293      	cmp	r3, r2
 80070b2:	d004      	beq.n	80070be <HAL_TIMEx_MasterConfigSynchronization+0xbe>
 80070b4:	687b      	ldr	r3, [r7, #4]
 80070b6:	681b      	ldr	r3, [r3, #0]
 80070b8:	4a14      	ldr	r2, [pc, #80]	@ (800710c <HAL_TIMEx_MasterConfigSynchronization+0x10c>)
 80070ba:	4293      	cmp	r3, r2
 80070bc:	d10c      	bne.n	80070d8 <HAL_TIMEx_MasterConfigSynchronization+0xd8>
 80070be:	68bb      	ldr	r3, [r7, #8]
 80070c0:	f023 0380 	bic.w	r3, r3, #128	@ 0x80
 80070c4:	60bb      	str	r3, [r7, #8]
 80070c6:	683b      	ldr	r3, [r7, #0]
 80070c8:	689b      	ldr	r3, [r3, #8]
 80070ca:	68ba      	ldr	r2, [r7, #8]
 80070cc:	4313      	orrs	r3, r2
 80070ce:	60bb      	str	r3, [r7, #8]
 80070d0:	687b      	ldr	r3, [r7, #4]
 80070d2:	681b      	ldr	r3, [r3, #0]
 80070d4:	68ba      	ldr	r2, [r7, #8]
 80070d6:	609a      	str	r2, [r3, #8]
 80070d8:	687b      	ldr	r3, [r7, #4]
 80070da:	2201      	movs	r2, #1
 80070dc:	f883 203d 	strb.w	r2, [r3, #61]	@ 0x3d
 80070e0:	687b      	ldr	r3, [r7, #4]
 80070e2:	2200      	movs	r2, #0
 80070e4:	f883 203c 	strb.w	r2, [r3, #60]	@ 0x3c
 80070e8:	2300      	movs	r3, #0
 80070ea:	4618      	mov	r0, r3
 80070ec:	3714      	adds	r7, #20
 80070ee:	46bd      	mov	sp, r7
 80070f0:	f85d 7b04 	ldr.w	r7, [sp], #4
 80070f4:	4770      	bx	lr
 80070f6:	bf00      	nop
 80070f8:	40012c00 	.word	0x40012c00
 80070fc:	40013400 	.word	0x40013400
 8007100:	40000400 	.word	0x40000400
 8007104:	40000800 	.word	0x40000800
 8007108:	40000c00 	.word	0x40000c00
 800710c:	40014000 	.word	0x40014000

08007110 <HAL_TIMEx_ConfigBreakDeadTime>:
 8007110:	b480      	push	{r7}
 8007112:	b085      	sub	sp, #20
 8007114:	af00      	add	r7, sp, #0
 8007116:	6078      	str	r0, [r7, #4]
 8007118:	6039      	str	r1, [r7, #0]
 800711a:	2300      	movs	r3, #0
 800711c:	60fb      	str	r3, [r7, #12]
 800711e:	687b      	ldr	r3, [r7, #4]
 8007120:	f893 303c 	ldrb.w	r3, [r3, #60]	@ 0x3c
 8007124:	2b01      	cmp	r3, #1
 8007126:	d101      	bne.n	800712c <HAL_TIMEx_ConfigBreakDeadTime+0x1c>
 8007128:	2302      	movs	r3, #2
 800712a:	e065      	b.n	80071f8 <HAL_TIMEx_ConfigBreakDeadTime+0xe8>
 800712c:	687b      	ldr	r3, [r7, #4]
 800712e:	2201      	movs	r2, #1
 8007130:	f883 203c 	strb.w	r2, [r3, #60]	@ 0x3c
 8007134:	68fb      	ldr	r3, [r7, #12]
 8007136:	f023 02ff 	bic.w	r2, r3, #255	@ 0xff
 800713a:	683b      	ldr	r3, [r7, #0]
 800713c:	68db      	ldr	r3, [r3, #12]
 800713e:	4313      	orrs	r3, r2
 8007140:	60fb      	str	r3, [r7, #12]
 8007142:	68fb      	ldr	r3, [r7, #12]
 8007144:	f423 7240 	bic.w	r2, r3, #768	@ 0x300
 8007148:	683b      	ldr	r3, [r7, #0]
 800714a:	689b      	ldr	r3, [r3, #8]
 800714c:	4313      	orrs	r3, r2
 800714e:	60fb      	str	r3, [r7, #12]
 8007150:	68fb      	ldr	r3, [r7, #12]
 8007152:	f423 6280 	bic.w	r2, r3, #1024	@ 0x400
 8007156:	683b      	ldr	r3, [r7, #0]
 8007158:	685b      	ldr	r3, [r3, #4]
 800715a:	4313      	orrs	r3, r2
 800715c:	60fb      	str	r3, [r7, #12]
 800715e:	68fb      	ldr	r3, [r7, #12]
 8007160:	f423 6200 	bic.w	r2, r3, #2048	@ 0x800
 8007164:	683b      	ldr	r3, [r7, #0]
 8007166:	681b      	ldr	r3, [r3, #0]
 8007168:	4313      	orrs	r3, r2
 800716a:	60fb      	str	r3, [r7, #12]
 800716c:	68fb      	ldr	r3, [r7, #12]
 800716e:	f423 5280 	bic.w	r2, r3, #4096	@ 0x1000
 8007172:	683b      	ldr	r3, [r7, #0]
 8007174:	691b      	ldr	r3, [r3, #16]
 8007176:	4313      	orrs	r3, r2
 8007178:	60fb      	str	r3, [r7, #12]
 800717a:	68fb      	ldr	r3, [r7, #12]
 800717c:	f423 5200 	bic.w	r2, r3, #8192	@ 0x2000
 8007180:	683b      	ldr	r3, [r7, #0]
 8007182:	695b      	ldr	r3, [r3, #20]
 8007184:	4313      	orrs	r3, r2
 8007186:	60fb      	str	r3, [r7, #12]
 8007188:	68fb      	ldr	r3, [r7, #12]
 800718a:	f423 4280 	bic.w	r2, r3, #16384	@ 0x4000
 800718e:	683b      	ldr	r3, [r7, #0]
 8007190:	6a9b      	ldr	r3, [r3, #40]	@ 0x28
 8007192:	4313      	orrs	r3, r2
 8007194:	60fb      	str	r3, [r7, #12]
 8007196:	68fb      	ldr	r3, [r7, #12]
 8007198:	f423 2270 	bic.w	r2, r3, #983040	@ 0xf0000
 800719c:	683b      	ldr	r3, [r7, #0]
 800719e:	699b      	ldr	r3, [r3, #24]
 80071a0:	041b      	lsls	r3, r3, #16
 80071a2:	4313      	orrs	r3, r2
 80071a4:	60fb      	str	r3, [r7, #12]
 80071a6:	687b      	ldr	r3, [r7, #4]
 80071a8:	681b      	ldr	r3, [r3, #0]
 80071aa:	4a16      	ldr	r2, [pc, #88]	@ (8007204 <HAL_TIMEx_ConfigBreakDeadTime+0xf4>)
 80071ac:	4293      	cmp	r3, r2
 80071ae:	d004      	beq.n	80071ba <HAL_TIMEx_ConfigBreakDeadTime+0xaa>
 80071b0:	687b      	ldr	r3, [r7, #4]
 80071b2:	681b      	ldr	r3, [r3, #0]
 80071b4:	4a14      	ldr	r2, [pc, #80]	@ (8007208 <HAL_TIMEx_ConfigBreakDeadTime+0xf8>)
 80071b6:	4293      	cmp	r3, r2
 80071b8:	d115      	bne.n	80071e6 <HAL_TIMEx_ConfigBreakDeadTime+0xd6>
 80071ba:	68fb      	ldr	r3, [r7, #12]
 80071bc:	f423 0270 	bic.w	r2, r3, #15728640	@ 0xf00000
 80071c0:	683b      	ldr	r3, [r7, #0]
 80071c2:	6a5b      	ldr	r3, [r3, #36]	@ 0x24
 80071c4:	051b      	lsls	r3, r3, #20
 80071c6:	4313      	orrs	r3, r2
 80071c8:	60fb      	str	r3, [r7, #12]
 80071ca:	68fb      	ldr	r3, [r7, #12]
 80071cc:	f023 7280 	bic.w	r2, r3, #16777216	@ 0x1000000
 80071d0:	683b      	ldr	r3, [r7, #0]
 80071d2:	69db      	ldr	r3, [r3, #28]
 80071d4:	4313      	orrs	r3, r2
 80071d6:	60fb      	str	r3, [r7, #12]
 80071d8:	68fb      	ldr	r3, [r7, #12]
 80071da:	f023 7200 	bic.w	r2, r3, #33554432	@ 0x2000000
 80071de:	683b      	ldr	r3, [r7, #0]
 80071e0:	6a1b      	ldr	r3, [r3, #32]
 80071e2:	4313      	orrs	r3, r2
 80071e4:	60fb      	str	r3, [r7, #12]
 80071e6:	687b      	ldr	r3, [r7, #4]
 80071e8:	681b      	ldr	r3, [r3, #0]
 80071ea:	68fa      	ldr	r2, [r7, #12]
 80071ec:	645a      	str	r2, [r3, #68]	@ 0x44
 80071ee:	687b      	ldr	r3, [r7, #4]
 80071f0:	2200      	movs	r2, #0
 80071f2:	f883 203c 	strb.w	r2, [r3, #60]	@ 0x3c
 80071f6:	2300      	movs	r3, #0
 80071f8:	4618      	mov	r0, r3
 80071fa:	3714      	adds	r7, #20
 80071fc:	46bd      	mov	sp, r7
 80071fe:	f85d 7b04 	ldr.w	r7, [sp], #4
 8007202:	4770      	bx	lr
 8007204:	40012c00 	.word	0x40012c00
 8007208:	40013400 	.word	0x40013400

0800720c <HAL_TIMEx_CommutCallback>:
 800720c:	b480      	push	{r7}
 800720e:	b083      	sub	sp, #12
 8007210:	af00      	add	r7, sp, #0
 8007212:	6078      	str	r0, [r7, #4]
 8007214:	bf00      	nop
 8007216:	370c      	adds	r7, #12
 8007218:	46bd      	mov	sp, r7
 800721a:	f85d 7b04 	ldr.w	r7, [sp], #4
 800721e:	4770      	bx	lr

08007220 <HAL_TIMEx_BreakCallback>:
 8007220:	b480      	push	{r7}
 8007222:	b083      	sub	sp, #12
 8007224:	af00      	add	r7, sp, #0
 8007226:	6078      	str	r0, [r7, #4]
 8007228:	bf00      	nop
 800722a:	370c      	adds	r7, #12
 800722c:	46bd      	mov	sp, r7
 800722e:	f85d 7b04 	ldr.w	r7, [sp], #4
 8007232:	4770      	bx	lr

08007234 <HAL_TIMEx_Break2Callback>:
 8007234:	b480      	push	{r7}
 8007236:	b083      	sub	sp, #12
 8007238:	af00      	add	r7, sp, #0
 800723a:	6078      	str	r0, [r7, #4]
 800723c:	bf00      	nop
 800723e:	370c      	adds	r7, #12
 8007240:	46bd      	mov	sp, r7
 8007242:	f85d 7b04 	ldr.w	r7, [sp], #4
 8007246:	4770      	bx	lr

08007248 <HAL_UART_Init>:
 8007248:	b580      	push	{r7, lr}
 800724a:	b082      	sub	sp, #8
 800724c:	af00      	add	r7, sp, #0
 800724e:	6078      	str	r0, [r7, #4]
 8007250:	687b      	ldr	r3, [r7, #4]
 8007252:	2b00      	cmp	r3, #0
 8007254:	d101      	bne.n	800725a <HAL_UART_Init+0x12>
 8007256:	2301      	movs	r3, #1
 8007258:	e040      	b.n	80072dc <HAL_UART_Init+0x94>
 800725a:	687b      	ldr	r3, [r7, #4]
 800725c:	6fdb      	ldr	r3, [r3, #124]	@ 0x7c
 800725e:	2b00      	cmp	r3, #0
 8007260:	d106      	bne.n	8007270 <HAL_UART_Init+0x28>
 8007262:	687b      	ldr	r3, [r7, #4]
 8007264:	2200      	movs	r2, #0
 8007266:	f883 2078 	strb.w	r2, [r3, #120]	@ 0x78
 800726a:	6878      	ldr	r0, [r7, #4]
 800726c:	f7fa fc94 	bl	8001b98 <HAL_UART_MspInit>
 8007270:	687b      	ldr	r3, [r7, #4]
 8007272:	2224      	movs	r2, #36	@ 0x24
 8007274:	67da      	str	r2, [r3, #124]	@ 0x7c
 8007276:	687b      	ldr	r3, [r7, #4]
 8007278:	681b      	ldr	r3, [r3, #0]
 800727a:	681a      	ldr	r2, [r3, #0]
 800727c:	687b      	ldr	r3, [r7, #4]
 800727e:	681b      	ldr	r3, [r3, #0]
 8007280:	f022 0201 	bic.w	r2, r2, #1
 8007284:	601a      	str	r2, [r3, #0]
 8007286:	687b      	ldr	r3, [r7, #4]
 8007288:	6a5b      	ldr	r3, [r3, #36]	@ 0x24
 800728a:	2b00      	cmp	r3, #0
 800728c:	d002      	beq.n	8007294 <HAL_UART_Init+0x4c>
 800728e:	6878      	ldr	r0, [r7, #4]
 8007290:	f000 fe36 	bl	8007f00 <UART_AdvFeatureConfig>
 8007294:	6878      	ldr	r0, [r7, #4]
 8007296:	f000 fb7b 	bl	8007990 <UART_SetConfig>
 800729a:	4603      	mov	r3, r0
 800729c:	2b01      	cmp	r3, #1
 800729e:	d101      	bne.n	80072a4 <HAL_UART_Init+0x5c>
 80072a0:	2301      	movs	r3, #1
 80072a2:	e01b      	b.n	80072dc <HAL_UART_Init+0x94>
 80072a4:	687b      	ldr	r3, [r7, #4]
 80072a6:	681b      	ldr	r3, [r3, #0]
 80072a8:	685a      	ldr	r2, [r3, #4]
 80072aa:	687b      	ldr	r3, [r7, #4]
 80072ac:	681b      	ldr	r3, [r3, #0]
 80072ae:	f422 4290 	bic.w	r2, r2, #18432	@ 0x4800
 80072b2:	605a      	str	r2, [r3, #4]
 80072b4:	687b      	ldr	r3, [r7, #4]
 80072b6:	681b      	ldr	r3, [r3, #0]
 80072b8:	689a      	ldr	r2, [r3, #8]
 80072ba:	687b      	ldr	r3, [r7, #4]
 80072bc:	681b      	ldr	r3, [r3, #0]
 80072be:	f022 022a 	bic.w	r2, r2, #42	@ 0x2a
 80072c2:	609a      	str	r2, [r3, #8]
 80072c4:	687b      	ldr	r3, [r7, #4]
 80072c6:	681b      	ldr	r3, [r3, #0]
 80072c8:	681a      	ldr	r2, [r3, #0]
 80072ca:	687b      	ldr	r3, [r7, #4]
 80072cc:	681b      	ldr	r3, [r3, #0]
 80072ce:	f042 0201 	orr.w	r2, r2, #1
 80072d2:	601a      	str	r2, [r3, #0]
 80072d4:	6878      	ldr	r0, [r7, #4]
 80072d6:	f000 feb5 	bl	8008044 <UART_CheckIdleState>
 80072da:	4603      	mov	r3, r0
 80072dc:	4618      	mov	r0, r3
 80072de:	3708      	adds	r7, #8
 80072e0:	46bd      	mov	sp, r7
 80072e2:	bd80      	pop	{r7, pc}

080072e4 <HAL_UART_Receive_IT>:
 80072e4:	b580      	push	{r7, lr}
 80072e6:	b08a      	sub	sp, #40	@ 0x28
 80072e8:	af00      	add	r7, sp, #0
 80072ea:	60f8      	str	r0, [r7, #12]
 80072ec:	60b9      	str	r1, [r7, #8]
 80072ee:	4613      	mov	r3, r2
 80072f0:	80fb      	strh	r3, [r7, #6]
 80072f2:	68fb      	ldr	r3, [r7, #12]
 80072f4:	f8d3 3080 	ldr.w	r3, [r3, #128]	@ 0x80
 80072f8:	2b20      	cmp	r3, #32
 80072fa:	d137      	bne.n	800736c <HAL_UART_Receive_IT+0x88>
 80072fc:	68bb      	ldr	r3, [r7, #8]
 80072fe:	2b00      	cmp	r3, #0
 8007300:	d002      	beq.n	8007308 <HAL_UART_Receive_IT+0x24>
 8007302:	88fb      	ldrh	r3, [r7, #6]
 8007304:	2b00      	cmp	r3, #0
 8007306:	d101      	bne.n	800730c <HAL_UART_Receive_IT+0x28>
 8007308:	2301      	movs	r3, #1
 800730a:	e030      	b.n	800736e <HAL_UART_Receive_IT+0x8a>
 800730c:	68fb      	ldr	r3, [r7, #12]
 800730e:	2200      	movs	r2, #0
 8007310:	661a      	str	r2, [r3, #96]	@ 0x60
 8007312:	68fb      	ldr	r3, [r7, #12]
 8007314:	681b      	ldr	r3, [r3, #0]
 8007316:	4a18      	ldr	r2, [pc, #96]	@ (8007378 <HAL_UART_Receive_IT+0x94>)
 8007318:	4293      	cmp	r3, r2
 800731a:	d01f      	beq.n	800735c <HAL_UART_Receive_IT+0x78>
 800731c:	68fb      	ldr	r3, [r7, #12]
 800731e:	681b      	ldr	r3, [r3, #0]
 8007320:	685b      	ldr	r3, [r3, #4]
 8007322:	f403 0300 	and.w	r3, r3, #8388608	@ 0x800000
 8007326:	2b00      	cmp	r3, #0
 8007328:	d018      	beq.n	800735c <HAL_UART_Receive_IT+0x78>
 800732a:	68fb      	ldr	r3, [r7, #12]
 800732c:	681b      	ldr	r3, [r3, #0]
 800732e:	617b      	str	r3, [r7, #20]
 8007330:	697b      	ldr	r3, [r7, #20]
 8007332:	e853 3f00 	ldrex	r3, [r3]
 8007336:	613b      	str	r3, [r7, #16]
 8007338:	693b      	ldr	r3, [r7, #16]
 800733a:	f043 6380 	orr.w	r3, r3, #67108864	@ 0x4000000
 800733e:	627b      	str	r3, [r7, #36]	@ 0x24
 8007340:	68fb      	ldr	r3, [r7, #12]
 8007342:	681b      	ldr	r3, [r3, #0]
 8007344:	461a      	mov	r2, r3
 8007346:	6a7b      	ldr	r3, [r7, #36]	@ 0x24
 8007348:	623b      	str	r3, [r7, #32]
 800734a:	61fa      	str	r2, [r7, #28]
 800734c:	69f9      	ldr	r1, [r7, #28]
 800734e:	6a3a      	ldr	r2, [r7, #32]
 8007350:	e841 2300 	strex	r3, r2, [r1]
 8007354:	61bb      	str	r3, [r7, #24]
 8007356:	69bb      	ldr	r3, [r7, #24]
 8007358:	2b00      	cmp	r3, #0
 800735a:	d1e6      	bne.n	800732a <HAL_UART_Receive_IT+0x46>
 800735c:	88fb      	ldrh	r3, [r7, #6]
 800735e:	461a      	mov	r2, r3
 8007360:	68b9      	ldr	r1, [r7, #8]
 8007362:	68f8      	ldr	r0, [r7, #12]
 8007364:	f000 ff7e 	bl	8008264 <UART_Start_Receive_IT>
 8007368:	4603      	mov	r3, r0
 800736a:	e000      	b.n	800736e <HAL_UART_Receive_IT+0x8a>
 800736c:	2302      	movs	r3, #2
 800736e:	4618      	mov	r0, r3
 8007370:	3728      	adds	r7, #40	@ 0x28
 8007372:	46bd      	mov	sp, r7
 8007374:	bd80      	pop	{r7, pc}
 8007376:	bf00      	nop
 8007378:	40008000 	.word	0x40008000

0800737c <HAL_UART_IRQHandler>:
 800737c:	b580      	push	{r7, lr}
 800737e:	b0ba      	sub	sp, #232	@ 0xe8
 8007380:	af00      	add	r7, sp, #0
 8007382:	6078      	str	r0, [r7, #4]
 8007384:	687b      	ldr	r3, [r7, #4]
 8007386:	681b      	ldr	r3, [r3, #0]
 8007388:	69db      	ldr	r3, [r3, #28]
 800738a:	f8c7 30e4 	str.w	r3, [r7, #228]	@ 0xe4
 800738e:	687b      	ldr	r3, [r7, #4]
 8007390:	681b      	ldr	r3, [r3, #0]
 8007392:	681b      	ldr	r3, [r3, #0]
 8007394:	f8c7 30e0 	str.w	r3, [r7, #224]	@ 0xe0
 8007398:	687b      	ldr	r3, [r7, #4]
 800739a:	681b      	ldr	r3, [r3, #0]
 800739c:	689b      	ldr	r3, [r3, #8]
 800739e:	f8c7 30dc 	str.w	r3, [r7, #220]	@ 0xdc
 80073a2:	f8d7 20e4 	ldr.w	r2, [r7, #228]	@ 0xe4
 80073a6:	f640 030f 	movw	r3, #2063	@ 0x80f
 80073aa:	4013      	ands	r3, r2
 80073ac:	f8c7 30d8 	str.w	r3, [r7, #216]	@ 0xd8
 80073b0:	f8d7 30d8 	ldr.w	r3, [r7, #216]	@ 0xd8
 80073b4:	2b00      	cmp	r3, #0
 80073b6:	d115      	bne.n	80073e4 <HAL_UART_IRQHandler+0x68>
 80073b8:	f8d7 30e4 	ldr.w	r3, [r7, #228]	@ 0xe4
 80073bc:	f003 0320 	and.w	r3, r3, #32
 80073c0:	2b00      	cmp	r3, #0
 80073c2:	d00f      	beq.n	80073e4 <HAL_UART_IRQHandler+0x68>
 80073c4:	f8d7 30e0 	ldr.w	r3, [r7, #224]	@ 0xe0
 80073c8:	f003 0320 	and.w	r3, r3, #32
 80073cc:	2b00      	cmp	r3, #0
 80073ce:	d009      	beq.n	80073e4 <HAL_UART_IRQHandler+0x68>
 80073d0:	687b      	ldr	r3, [r7, #4]
 80073d2:	6e9b      	ldr	r3, [r3, #104]	@ 0x68
 80073d4:	2b00      	cmp	r3, #0
 80073d6:	f000 82ae 	beq.w	8007936 <HAL_UART_IRQHandler+0x5ba>
 80073da:	687b      	ldr	r3, [r7, #4]
 80073dc:	6e9b      	ldr	r3, [r3, #104]	@ 0x68
 80073de:	6878      	ldr	r0, [r7, #4]
 80073e0:	4798      	blx	r3
 80073e2:	e2a8      	b.n	8007936 <HAL_UART_IRQHandler+0x5ba>
 80073e4:	f8d7 30d8 	ldr.w	r3, [r7, #216]	@ 0xd8
 80073e8:	2b00      	cmp	r3, #0
 80073ea:	f000 8117 	beq.w	800761c <HAL_UART_IRQHandler+0x2a0>
 80073ee:	f8d7 30dc 	ldr.w	r3, [r7, #220]	@ 0xdc
 80073f2:	f003 0301 	and.w	r3, r3, #1
 80073f6:	2b00      	cmp	r3, #0
 80073f8:	d106      	bne.n	8007408 <HAL_UART_IRQHandler+0x8c>
 80073fa:	f8d7 20e0 	ldr.w	r2, [r7, #224]	@ 0xe0
 80073fe:	4b85      	ldr	r3, [pc, #532]	@ (8007614 <HAL_UART_IRQHandler+0x298>)
 8007400:	4013      	ands	r3, r2
 8007402:	2b00      	cmp	r3, #0
 8007404:	f000 810a 	beq.w	800761c <HAL_UART_IRQHandler+0x2a0>
 8007408:	f8d7 30e4 	ldr.w	r3, [r7, #228]	@ 0xe4
 800740c:	f003 0301 	and.w	r3, r3, #1
 8007410:	2b00      	cmp	r3, #0
 8007412:	d011      	beq.n	8007438 <HAL_UART_IRQHandler+0xbc>
 8007414:	f8d7 30e0 	ldr.w	r3, [r7, #224]	@ 0xe0
 8007418:	f403 7380 	and.w	r3, r3, #256	@ 0x100
 800741c:	2b00      	cmp	r3, #0
 800741e:	d00b      	beq.n	8007438 <HAL_UART_IRQHandler+0xbc>
 8007420:	687b      	ldr	r3, [r7, #4]
 8007422:	681b      	ldr	r3, [r3, #0]
 8007424:	2201      	movs	r2, #1
 8007426:	621a      	str	r2, [r3, #32]
 8007428:	687b      	ldr	r3, [r7, #4]
 800742a:	f8d3 3084 	ldr.w	r3, [r3, #132]	@ 0x84
 800742e:	f043 0201 	orr.w	r2, r3, #1
 8007432:	687b      	ldr	r3, [r7, #4]
 8007434:	f8c3 2084 	str.w	r2, [r3, #132]	@ 0x84
 8007438:	f8d7 30e4 	ldr.w	r3, [r7, #228]	@ 0xe4
 800743c:	f003 0302 	and.w	r3, r3, #2
 8007440:	2b00      	cmp	r3, #0
 8007442:	d011      	beq.n	8007468 <HAL_UART_IRQHandler+0xec>
 8007444:	f8d7 30dc 	ldr.w	r3, [r7, #220]	@ 0xdc
 8007448:	f003 0301 	and.w	r3, r3, #1
 800744c:	2b00      	cmp	r3, #0
 800744e:	d00b      	beq.n	8007468 <HAL_UART_IRQHandler+0xec>
 8007450:	687b      	ldr	r3, [r7, #4]
 8007452:	681b      	ldr	r3, [r3, #0]
 8007454:	2202      	movs	r2, #2
 8007456:	621a      	str	r2, [r3, #32]
 8007458:	687b      	ldr	r3, [r7, #4]
 800745a:	f8d3 3084 	ldr.w	r3, [r3, #132]	@ 0x84
 800745e:	f043 0204 	orr.w	r2, r3, #4
 8007462:	687b      	ldr	r3, [r7, #4]
 8007464:	f8c3 2084 	str.w	r2, [r3, #132]	@ 0x84
 8007468:	f8d7 30e4 	ldr.w	r3, [r7, #228]	@ 0xe4
 800746c:	f003 0304 	and.w	r3, r3, #4
 8007470:	2b00      	cmp	r3, #0
 8007472:	d011      	beq.n	8007498 <HAL_UART_IRQHandler+0x11c>
 8007474:	f8d7 30dc 	ldr.w	r3, [r7, #220]	@ 0xdc
 8007478:	f003 0301 	and.w	r3, r3, #1
 800747c:	2b00      	cmp	r3, #0
 800747e:	d00b      	beq.n	8007498 <HAL_UART_IRQHandler+0x11c>
 8007480:	687b      	ldr	r3, [r7, #4]
 8007482:	681b      	ldr	r3, [r3, #0]
 8007484:	2204      	movs	r2, #4
 8007486:	621a      	str	r2, [r3, #32]
 8007488:	687b      	ldr	r3, [r7, #4]
 800748a:	f8d3 3084 	ldr.w	r3, [r3, #132]	@ 0x84
 800748e:	f043 0202 	orr.w	r2, r3, #2
 8007492:	687b      	ldr	r3, [r7, #4]
 8007494:	f8c3 2084 	str.w	r2, [r3, #132]	@ 0x84
 8007498:	f8d7 30e4 	ldr.w	r3, [r7, #228]	@ 0xe4
 800749c:	f003 0308 	and.w	r3, r3, #8
 80074a0:	2b00      	cmp	r3, #0
 80074a2:	d017      	beq.n	80074d4 <HAL_UART_IRQHandler+0x158>
 80074a4:	f8d7 30e0 	ldr.w	r3, [r7, #224]	@ 0xe0
 80074a8:	f003 0320 	and.w	r3, r3, #32
 80074ac:	2b00      	cmp	r3, #0
 80074ae:	d105      	bne.n	80074bc <HAL_UART_IRQHandler+0x140>
 80074b0:	f8d7 30dc 	ldr.w	r3, [r7, #220]	@ 0xdc
 80074b4:	f003 0301 	and.w	r3, r3, #1
 80074b8:	2b00      	cmp	r3, #0
 80074ba:	d00b      	beq.n	80074d4 <HAL_UART_IRQHandler+0x158>
 80074bc:	687b      	ldr	r3, [r7, #4]
 80074be:	681b      	ldr	r3, [r3, #0]
 80074c0:	2208      	movs	r2, #8
 80074c2:	621a      	str	r2, [r3, #32]
 80074c4:	687b      	ldr	r3, [r7, #4]
 80074c6:	f8d3 3084 	ldr.w	r3, [r3, #132]	@ 0x84
 80074ca:	f043 0208 	orr.w	r2, r3, #8
 80074ce:	687b      	ldr	r3, [r7, #4]
 80074d0:	f8c3 2084 	str.w	r2, [r3, #132]	@ 0x84
 80074d4:	f8d7 30e4 	ldr.w	r3, [r7, #228]	@ 0xe4
 80074d8:	f403 6300 	and.w	r3, r3, #2048	@ 0x800
 80074dc:	2b00      	cmp	r3, #0
 80074de:	d012      	beq.n	8007506 <HAL_UART_IRQHandler+0x18a>
 80074e0:	f8d7 30e0 	ldr.w	r3, [r7, #224]	@ 0xe0
 80074e4:	f003 6380 	and.w	r3, r3, #67108864	@ 0x4000000
 80074e8:	2b00      	cmp	r3, #0
 80074ea:	d00c      	beq.n	8007506 <HAL_UART_IRQHandler+0x18a>
 80074ec:	687b      	ldr	r3, [r7, #4]
 80074ee:	681b      	ldr	r3, [r3, #0]
 80074f0:	f44f 6200 	mov.w	r2, #2048	@ 0x800
 80074f4:	621a      	str	r2, [r3, #32]
 80074f6:	687b      	ldr	r3, [r7, #4]
 80074f8:	f8d3 3084 	ldr.w	r3, [r3, #132]	@ 0x84
 80074fc:	f043 0220 	orr.w	r2, r3, #32
 8007500:	687b      	ldr	r3, [r7, #4]
 8007502:	f8c3 2084 	str.w	r2, [r3, #132]	@ 0x84
 8007506:	687b      	ldr	r3, [r7, #4]
 8007508:	f8d3 3084 	ldr.w	r3, [r3, #132]	@ 0x84
 800750c:	2b00      	cmp	r3, #0
 800750e:	f000 8214 	beq.w	800793a <HAL_UART_IRQHandler+0x5be>
 8007512:	f8d7 30e4 	ldr.w	r3, [r7, #228]	@ 0xe4
 8007516:	f003 0320 	and.w	r3, r3, #32
 800751a:	2b00      	cmp	r3, #0
 800751c:	d00d      	beq.n	800753a <HAL_UART_IRQHandler+0x1be>
 800751e:	f8d7 30e0 	ldr.w	r3, [r7, #224]	@ 0xe0
 8007522:	f003 0320 	and.w	r3, r3, #32
 8007526:	2b00      	cmp	r3, #0
 8007528:	d007      	beq.n	800753a <HAL_UART_IRQHandler+0x1be>
 800752a:	687b      	ldr	r3, [r7, #4]
 800752c:	6e9b      	ldr	r3, [r3, #104]	@ 0x68
 800752e:	2b00      	cmp	r3, #0
 8007530:	d003      	beq.n	800753a <HAL_UART_IRQHandler+0x1be>
 8007532:	687b      	ldr	r3, [r7, #4]
 8007534:	6e9b      	ldr	r3, [r3, #104]	@ 0x68
 8007536:	6878      	ldr	r0, [r7, #4]
 8007538:	4798      	blx	r3
 800753a:	687b      	ldr	r3, [r7, #4]
 800753c:	f8d3 3084 	ldr.w	r3, [r3, #132]	@ 0x84
 8007540:	f8c7 30d4 	str.w	r3, [r7, #212]	@ 0xd4
 8007544:	687b      	ldr	r3, [r7, #4]
 8007546:	681b      	ldr	r3, [r3, #0]
 8007548:	689b      	ldr	r3, [r3, #8]
 800754a:	f003 0340 	and.w	r3, r3, #64	@ 0x40
 800754e:	2b40      	cmp	r3, #64	@ 0x40
 8007550:	d005      	beq.n	800755e <HAL_UART_IRQHandler+0x1e2>
 8007552:	f8d7 30d4 	ldr.w	r3, [r7, #212]	@ 0xd4
 8007556:	f003 0328 	and.w	r3, r3, #40	@ 0x28
 800755a:	2b00      	cmp	r3, #0
 800755c:	d04f      	beq.n	80075fe <HAL_UART_IRQHandler+0x282>
 800755e:	6878      	ldr	r0, [r7, #4]
 8007560:	f000 ff46 	bl	80083f0 <UART_EndRxTransfer>
 8007564:	687b      	ldr	r3, [r7, #4]
 8007566:	681b      	ldr	r3, [r3, #0]
 8007568:	689b      	ldr	r3, [r3, #8]
 800756a:	f003 0340 	and.w	r3, r3, #64	@ 0x40
 800756e:	2b40      	cmp	r3, #64	@ 0x40
 8007570:	d141      	bne.n	80075f6 <HAL_UART_IRQHandler+0x27a>
 8007572:	687b      	ldr	r3, [r7, #4]
 8007574:	681b      	ldr	r3, [r3, #0]
 8007576:	3308      	adds	r3, #8
 8007578:	f8c7 309c 	str.w	r3, [r7, #156]	@ 0x9c
 800757c:	f8d7 309c 	ldr.w	r3, [r7, #156]	@ 0x9c
 8007580:	e853 3f00 	ldrex	r3, [r3]
 8007584:	f8c7 3098 	str.w	r3, [r7, #152]	@ 0x98
 8007588:	f8d7 3098 	ldr.w	r3, [r7, #152]	@ 0x98
 800758c:	f023 0340 	bic.w	r3, r3, #64	@ 0x40
 8007590:	f8c7 30d0 	str.w	r3, [r7, #208]	@ 0xd0
 8007594:	687b      	ldr	r3, [r7, #4]
 8007596:	681b      	ldr	r3, [r3, #0]
 8007598:	3308      	adds	r3, #8
 800759a:	f8d7 20d0 	ldr.w	r2, [r7, #208]	@ 0xd0
 800759e:	f8c7 20a8 	str.w	r2, [r7, #168]	@ 0xa8
 80075a2:	f8c7 30a4 	str.w	r3, [r7, #164]	@ 0xa4
 80075a6:	f8d7 10a4 	ldr.w	r1, [r7, #164]	@ 0xa4
 80075aa:	f8d7 20a8 	ldr.w	r2, [r7, #168]	@ 0xa8
 80075ae:	e841 2300 	strex	r3, r2, [r1]
 80075b2:	f8c7 30a0 	str.w	r3, [r7, #160]	@ 0xa0
 80075b6:	f8d7 30a0 	ldr.w	r3, [r7, #160]	@ 0xa0
 80075ba:	2b00      	cmp	r3, #0
 80075bc:	d1d9      	bne.n	8007572 <HAL_UART_IRQHandler+0x1f6>
 80075be:	687b      	ldr	r3, [r7, #4]
 80075c0:	6f5b      	ldr	r3, [r3, #116]	@ 0x74
 80075c2:	2b00      	cmp	r3, #0
 80075c4:	d013      	beq.n	80075ee <HAL_UART_IRQHandler+0x272>
 80075c6:	687b      	ldr	r3, [r7, #4]
 80075c8:	6f5b      	ldr	r3, [r3, #116]	@ 0x74
 80075ca:	4a13      	ldr	r2, [pc, #76]	@ (8007618 <HAL_UART_IRQHandler+0x29c>)
 80075cc:	639a      	str	r2, [r3, #56]	@ 0x38
 80075ce:	687b      	ldr	r3, [r7, #4]
 80075d0:	6f5b      	ldr	r3, [r3, #116]	@ 0x74
 80075d2:	4618      	mov	r0, r3
 80075d4:	f7fb ff51 	bl	800347a <HAL_DMA_Abort_IT>
 80075d8:	4603      	mov	r3, r0
 80075da:	2b00      	cmp	r3, #0
 80075dc:	d017      	beq.n	800760e <HAL_UART_IRQHandler+0x292>
 80075de:	687b      	ldr	r3, [r7, #4]
 80075e0:	6f5b      	ldr	r3, [r3, #116]	@ 0x74
 80075e2:	6b9b      	ldr	r3, [r3, #56]	@ 0x38
 80075e4:	687a      	ldr	r2, [r7, #4]
 80075e6:	6f52      	ldr	r2, [r2, #116]	@ 0x74
 80075e8:	4610      	mov	r0, r2
 80075ea:	4798      	blx	r3
 80075ec:	e00f      	b.n	800760e <HAL_UART_IRQHandler+0x292>
 80075ee:	6878      	ldr	r0, [r7, #4]
 80075f0:	f000 f9b8 	bl	8007964 <HAL_UART_ErrorCallback>
 80075f4:	e00b      	b.n	800760e <HAL_UART_IRQHandler+0x292>
 80075f6:	6878      	ldr	r0, [r7, #4]
 80075f8:	f000 f9b4 	bl	8007964 <HAL_UART_ErrorCallback>
 80075fc:	e007      	b.n	800760e <HAL_UART_IRQHandler+0x292>
 80075fe:	6878      	ldr	r0, [r7, #4]
 8007600:	f000 f9b0 	bl	8007964 <HAL_UART_ErrorCallback>
 8007604:	687b      	ldr	r3, [r7, #4]
 8007606:	2200      	movs	r2, #0
 8007608:	f8c3 2084 	str.w	r2, [r3, #132]	@ 0x84
 800760c:	e195      	b.n	800793a <HAL_UART_IRQHandler+0x5be>
 800760e:	bf00      	nop
 8007610:	e193      	b.n	800793a <HAL_UART_IRQHandler+0x5be>
 8007612:	bf00      	nop
 8007614:	04000120 	.word	0x04000120
 8007618:	080084b9 	.word	0x080084b9
 800761c:	687b      	ldr	r3, [r7, #4]
 800761e:	6e1b      	ldr	r3, [r3, #96]	@ 0x60
 8007620:	2b01      	cmp	r3, #1
 8007622:	f040 814e 	bne.w	80078c2 <HAL_UART_IRQHandler+0x546>
 8007626:	f8d7 30e4 	ldr.w	r3, [r7, #228]	@ 0xe4
 800762a:	f003 0310 	and.w	r3, r3, #16
 800762e:	2b00      	cmp	r3, #0
 8007630:	f000 8147 	beq.w	80078c2 <HAL_UART_IRQHandler+0x546>
 8007634:	f8d7 30e0 	ldr.w	r3, [r7, #224]	@ 0xe0
 8007638:	f003 0310 	and.w	r3, r3, #16
 800763c:	2b00      	cmp	r3, #0
 800763e:	f000 8140 	beq.w	80078c2 <HAL_UART_IRQHandler+0x546>
 8007642:	687b      	ldr	r3, [r7, #4]
 8007644:	681b      	ldr	r3, [r3, #0]
 8007646:	2210      	movs	r2, #16
 8007648:	621a      	str	r2, [r3, #32]
 800764a:	687b      	ldr	r3, [r7, #4]
 800764c:	681b      	ldr	r3, [r3, #0]
 800764e:	689b      	ldr	r3, [r3, #8]
 8007650:	f003 0340 	and.w	r3, r3, #64	@ 0x40
 8007654:	2b40      	cmp	r3, #64	@ 0x40
 8007656:	f040 80b8 	bne.w	80077ca <HAL_UART_IRQHandler+0x44e>
 800765a:	687b      	ldr	r3, [r7, #4]
 800765c:	6f5b      	ldr	r3, [r3, #116]	@ 0x74
 800765e:	681b      	ldr	r3, [r3, #0]
 8007660:	685b      	ldr	r3, [r3, #4]
 8007662:	f8a7 30be 	strh.w	r3, [r7, #190]	@ 0xbe
 8007666:	f8b7 30be 	ldrh.w	r3, [r7, #190]	@ 0xbe
 800766a:	2b00      	cmp	r3, #0
 800766c:	f000 8167 	beq.w	800793e <HAL_UART_IRQHandler+0x5c2>
 8007670:	687b      	ldr	r3, [r7, #4]
 8007672:	f8b3 3058 	ldrh.w	r3, [r3, #88]	@ 0x58
 8007676:	f8b7 20be 	ldrh.w	r2, [r7, #190]	@ 0xbe
 800767a:	429a      	cmp	r2, r3
 800767c:	f080 815f 	bcs.w	800793e <HAL_UART_IRQHandler+0x5c2>
 8007680:	687b      	ldr	r3, [r7, #4]
 8007682:	f8b7 20be 	ldrh.w	r2, [r7, #190]	@ 0xbe
 8007686:	f8a3 205a 	strh.w	r2, [r3, #90]	@ 0x5a
 800768a:	687b      	ldr	r3, [r7, #4]
 800768c:	6f5b      	ldr	r3, [r3, #116]	@ 0x74
 800768e:	681b      	ldr	r3, [r3, #0]
 8007690:	681b      	ldr	r3, [r3, #0]
 8007692:	f003 0320 	and.w	r3, r3, #32
 8007696:	2b00      	cmp	r3, #0
 8007698:	f040 8086 	bne.w	80077a8 <HAL_UART_IRQHandler+0x42c>
 800769c:	687b      	ldr	r3, [r7, #4]
 800769e:	681b      	ldr	r3, [r3, #0]
 80076a0:	f8c7 3088 	str.w	r3, [r7, #136]	@ 0x88
 80076a4:	f8d7 3088 	ldr.w	r3, [r7, #136]	@ 0x88
 80076a8:	e853 3f00 	ldrex	r3, [r3]
 80076ac:	f8c7 3084 	str.w	r3, [r7, #132]	@ 0x84
 80076b0:	f8d7 3084 	ldr.w	r3, [r7, #132]	@ 0x84
 80076b4:	f423 7380 	bic.w	r3, r3, #256	@ 0x100
 80076b8:	f8c7 30b8 	str.w	r3, [r7, #184]	@ 0xb8
 80076bc:	687b      	ldr	r3, [r7, #4]
 80076be:	681b      	ldr	r3, [r3, #0]
 80076c0:	461a      	mov	r2, r3
 80076c2:	f8d7 30b8 	ldr.w	r3, [r7, #184]	@ 0xb8
 80076c6:	f8c7 3094 	str.w	r3, [r7, #148]	@ 0x94
 80076ca:	f8c7 2090 	str.w	r2, [r7, #144]	@ 0x90
 80076ce:	f8d7 1090 	ldr.w	r1, [r7, #144]	@ 0x90
 80076d2:	f8d7 2094 	ldr.w	r2, [r7, #148]	@ 0x94
 80076d6:	e841 2300 	strex	r3, r2, [r1]
 80076da:	f8c7 308c 	str.w	r3, [r7, #140]	@ 0x8c
 80076de:	f8d7 308c 	ldr.w	r3, [r7, #140]	@ 0x8c
 80076e2:	2b00      	cmp	r3, #0
 80076e4:	d1da      	bne.n	800769c <HAL_UART_IRQHandler+0x320>
 80076e6:	687b      	ldr	r3, [r7, #4]
 80076e8:	681b      	ldr	r3, [r3, #0]
 80076ea:	3308      	adds	r3, #8
 80076ec:	677b      	str	r3, [r7, #116]	@ 0x74
 80076ee:	6f7b      	ldr	r3, [r7, #116]	@ 0x74
 80076f0:	e853 3f00 	ldrex	r3, [r3]
 80076f4:	673b      	str	r3, [r7, #112]	@ 0x70
 80076f6:	6f3b      	ldr	r3, [r7, #112]	@ 0x70
 80076f8:	f023 0301 	bic.w	r3, r3, #1
 80076fc:	f8c7 30b4 	str.w	r3, [r7, #180]	@ 0xb4
 8007700:	687b      	ldr	r3, [r7, #4]
 8007702:	681b      	ldr	r3, [r3, #0]
 8007704:	3308      	adds	r3, #8
 8007706:	f8d7 20b4 	ldr.w	r2, [r7, #180]	@ 0xb4
 800770a:	f8c7 2080 	str.w	r2, [r7, #128]	@ 0x80
 800770e:	67fb      	str	r3, [r7, #124]	@ 0x7c
 8007710:	6ff9      	ldr	r1, [r7, #124]	@ 0x7c
 8007712:	f8d7 2080 	ldr.w	r2, [r7, #128]	@ 0x80
 8007716:	e841 2300 	strex	r3, r2, [r1]
 800771a:	67bb      	str	r3, [r7, #120]	@ 0x78
 800771c:	6fbb      	ldr	r3, [r7, #120]	@ 0x78
 800771e:	2b00      	cmp	r3, #0
 8007720:	d1e1      	bne.n	80076e6 <HAL_UART_IRQHandler+0x36a>
 8007722:	687b      	ldr	r3, [r7, #4]
 8007724:	681b      	ldr	r3, [r3, #0]
 8007726:	3308      	adds	r3, #8
 8007728:	663b      	str	r3, [r7, #96]	@ 0x60
 800772a:	6e3b      	ldr	r3, [r7, #96]	@ 0x60
 800772c:	e853 3f00 	ldrex	r3, [r3]
 8007730:	65fb      	str	r3, [r7, #92]	@ 0x5c
 8007732:	6dfb      	ldr	r3, [r7, #92]	@ 0x5c
 8007734:	f023 0340 	bic.w	r3, r3, #64	@ 0x40
 8007738:	f8c7 30b0 	str.w	r3, [r7, #176]	@ 0xb0
 800773c:	687b      	ldr	r3, [r7, #4]
 800773e:	681b      	ldr	r3, [r3, #0]
 8007740:	3308      	adds	r3, #8
 8007742:	f8d7 20b0 	ldr.w	r2, [r7, #176]	@ 0xb0
 8007746:	66fa      	str	r2, [r7, #108]	@ 0x6c
 8007748:	66bb      	str	r3, [r7, #104]	@ 0x68
 800774a:	6eb9      	ldr	r1, [r7, #104]	@ 0x68
 800774c:	6efa      	ldr	r2, [r7, #108]	@ 0x6c
 800774e:	e841 2300 	strex	r3, r2, [r1]
 8007752:	667b      	str	r3, [r7, #100]	@ 0x64
 8007754:	6e7b      	ldr	r3, [r7, #100]	@ 0x64
 8007756:	2b00      	cmp	r3, #0
 8007758:	d1e3      	bne.n	8007722 <HAL_UART_IRQHandler+0x3a6>
 800775a:	687b      	ldr	r3, [r7, #4]
 800775c:	2220      	movs	r2, #32
 800775e:	f8c3 2080 	str.w	r2, [r3, #128]	@ 0x80
 8007762:	687b      	ldr	r3, [r7, #4]
 8007764:	2200      	movs	r2, #0
 8007766:	661a      	str	r2, [r3, #96]	@ 0x60
 8007768:	687b      	ldr	r3, [r7, #4]
 800776a:	681b      	ldr	r3, [r3, #0]
 800776c:	64fb      	str	r3, [r7, #76]	@ 0x4c
 800776e:	6cfb      	ldr	r3, [r7, #76]	@ 0x4c
 8007770:	e853 3f00 	ldrex	r3, [r3]
 8007774:	64bb      	str	r3, [r7, #72]	@ 0x48
 8007776:	6cbb      	ldr	r3, [r7, #72]	@ 0x48
 8007778:	f023 0310 	bic.w	r3, r3, #16
 800777c:	f8c7 30ac 	str.w	r3, [r7, #172]	@ 0xac
 8007780:	687b      	ldr	r3, [r7, #4]
 8007782:	681b      	ldr	r3, [r3, #0]
 8007784:	461a      	mov	r2, r3
 8007786:	f8d7 30ac 	ldr.w	r3, [r7, #172]	@ 0xac
 800778a:	65bb      	str	r3, [r7, #88]	@ 0x58
 800778c:	657a      	str	r2, [r7, #84]	@ 0x54
 800778e:	6d79      	ldr	r1, [r7, #84]	@ 0x54
 8007790:	6dba      	ldr	r2, [r7, #88]	@ 0x58
 8007792:	e841 2300 	strex	r3, r2, [r1]
 8007796:	653b      	str	r3, [r7, #80]	@ 0x50
 8007798:	6d3b      	ldr	r3, [r7, #80]	@ 0x50
 800779a:	2b00      	cmp	r3, #0
 800779c:	d1e4      	bne.n	8007768 <HAL_UART_IRQHandler+0x3ec>
 800779e:	687b      	ldr	r3, [r7, #4]
 80077a0:	6f5b      	ldr	r3, [r3, #116]	@ 0x74
 80077a2:	4618      	mov	r0, r3
 80077a4:	f7fb fe2b 	bl	80033fe <HAL_DMA_Abort>
 80077a8:	687b      	ldr	r3, [r7, #4]
 80077aa:	2202      	movs	r2, #2
 80077ac:	665a      	str	r2, [r3, #100]	@ 0x64
 80077ae:	687b      	ldr	r3, [r7, #4]
 80077b0:	f8b3 2058 	ldrh.w	r2, [r3, #88]	@ 0x58
 80077b4:	687b      	ldr	r3, [r7, #4]
 80077b6:	f8b3 305a 	ldrh.w	r3, [r3, #90]	@ 0x5a
 80077ba:	b29b      	uxth	r3, r3
 80077bc:	1ad3      	subs	r3, r2, r3
 80077be:	b29b      	uxth	r3, r3
 80077c0:	4619      	mov	r1, r3
 80077c2:	6878      	ldr	r0, [r7, #4]
 80077c4:	f000 f8d8 	bl	8007978 <HAL_UARTEx_RxEventCallback>
 80077c8:	e0b9      	b.n	800793e <HAL_UART_IRQHandler+0x5c2>
 80077ca:	687b      	ldr	r3, [r7, #4]
 80077cc:	f8b3 2058 	ldrh.w	r2, [r3, #88]	@ 0x58
 80077d0:	687b      	ldr	r3, [r7, #4]
 80077d2:	f8b3 305a 	ldrh.w	r3, [r3, #90]	@ 0x5a
 80077d6:	b29b      	uxth	r3, r3
 80077d8:	1ad3      	subs	r3, r2, r3
 80077da:	f8a7 30ce 	strh.w	r3, [r7, #206]	@ 0xce
 80077de:	687b      	ldr	r3, [r7, #4]
 80077e0:	f8b3 305a 	ldrh.w	r3, [r3, #90]	@ 0x5a
 80077e4:	b29b      	uxth	r3, r3
 80077e6:	2b00      	cmp	r3, #0
 80077e8:	f000 80ab 	beq.w	8007942 <HAL_UART_IRQHandler+0x5c6>
 80077ec:	f8b7 30ce 	ldrh.w	r3, [r7, #206]	@ 0xce
 80077f0:	2b00      	cmp	r3, #0
 80077f2:	f000 80a6 	beq.w	8007942 <HAL_UART_IRQHandler+0x5c6>
 80077f6:	687b      	ldr	r3, [r7, #4]
 80077f8:	681b      	ldr	r3, [r3, #0]
 80077fa:	63bb      	str	r3, [r7, #56]	@ 0x38
 80077fc:	6bbb      	ldr	r3, [r7, #56]	@ 0x38
 80077fe:	e853 3f00 	ldrex	r3, [r3]
 8007802:	637b      	str	r3, [r7, #52]	@ 0x34
 8007804:	6b7b      	ldr	r3, [r7, #52]	@ 0x34
 8007806:	f423 7390 	bic.w	r3, r3, #288	@ 0x120
 800780a:	f8c7 30c8 	str.w	r3, [r7, #200]	@ 0xc8
 800780e:	687b      	ldr	r3, [r7, #4]
 8007810:	681b      	ldr	r3, [r3, #0]
 8007812:	461a      	mov	r2, r3
 8007814:	f8d7 30c8 	ldr.w	r3, [r7, #200]	@ 0xc8
 8007818:	647b      	str	r3, [r7, #68]	@ 0x44
 800781a:	643a      	str	r2, [r7, #64]	@ 0x40
 800781c:	6c39      	ldr	r1, [r7, #64]	@ 0x40
 800781e:	6c7a      	ldr	r2, [r7, #68]	@ 0x44
 8007820:	e841 2300 	strex	r3, r2, [r1]
 8007824:	63fb      	str	r3, [r7, #60]	@ 0x3c
 8007826:	6bfb      	ldr	r3, [r7, #60]	@ 0x3c
 8007828:	2b00      	cmp	r3, #0
 800782a:	d1e4      	bne.n	80077f6 <HAL_UART_IRQHandler+0x47a>
 800782c:	687b      	ldr	r3, [r7, #4]
 800782e:	681b      	ldr	r3, [r3, #0]
 8007830:	3308      	adds	r3, #8
 8007832:	627b      	str	r3, [r7, #36]	@ 0x24
 8007834:	6a7b      	ldr	r3, [r7, #36]	@ 0x24
 8007836:	e853 3f00 	ldrex	r3, [r3]
 800783a:	623b      	str	r3, [r7, #32]
 800783c:	6a3b      	ldr	r3, [r7, #32]
 800783e:	f023 0301 	bic.w	r3, r3, #1
 8007842:	f8c7 30c4 	str.w	r3, [r7, #196]	@ 0xc4
 8007846:	687b      	ldr	r3, [r7, #4]
 8007848:	681b      	ldr	r3, [r3, #0]
 800784a:	3308      	adds	r3, #8
 800784c:	f8d7 20c4 	ldr.w	r2, [r7, #196]	@ 0xc4
 8007850:	633a      	str	r2, [r7, #48]	@ 0x30
 8007852:	62fb      	str	r3, [r7, #44]	@ 0x2c
 8007854:	6af9      	ldr	r1, [r7, #44]	@ 0x2c
 8007856:	6b3a      	ldr	r2, [r7, #48]	@ 0x30
 8007858:	e841 2300 	strex	r3, r2, [r1]
 800785c:	62bb      	str	r3, [r7, #40]	@ 0x28
 800785e:	6abb      	ldr	r3, [r7, #40]	@ 0x28
 8007860:	2b00      	cmp	r3, #0
 8007862:	d1e3      	bne.n	800782c <HAL_UART_IRQHandler+0x4b0>
 8007864:	687b      	ldr	r3, [r7, #4]
 8007866:	2220      	movs	r2, #32
 8007868:	f8c3 2080 	str.w	r2, [r3, #128]	@ 0x80
 800786c:	687b      	ldr	r3, [r7, #4]
 800786e:	2200      	movs	r2, #0
 8007870:	661a      	str	r2, [r3, #96]	@ 0x60
 8007872:	687b      	ldr	r3, [r7, #4]
 8007874:	2200      	movs	r2, #0
 8007876:	669a      	str	r2, [r3, #104]	@ 0x68
 8007878:	687b      	ldr	r3, [r7, #4]
 800787a:	681b      	ldr	r3, [r3, #0]
 800787c:	613b      	str	r3, [r7, #16]
 800787e:	693b      	ldr	r3, [r7, #16]
 8007880:	e853 3f00 	ldrex	r3, [r3]
 8007884:	60fb      	str	r3, [r7, #12]
 8007886:	68fb      	ldr	r3, [r7, #12]
 8007888:	f023 0310 	bic.w	r3, r3, #16
 800788c:	f8c7 30c0 	str.w	r3, [r7, #192]	@ 0xc0
 8007890:	687b      	ldr	r3, [r7, #4]
 8007892:	681b      	ldr	r3, [r3, #0]
 8007894:	461a      	mov	r2, r3
 8007896:	f8d7 30c0 	ldr.w	r3, [r7, #192]	@ 0xc0
 800789a:	61fb      	str	r3, [r7, #28]
 800789c:	61ba      	str	r2, [r7, #24]
 800789e:	69b9      	ldr	r1, [r7, #24]
 80078a0:	69fa      	ldr	r2, [r7, #28]
 80078a2:	e841 2300 	strex	r3, r2, [r1]
 80078a6:	617b      	str	r3, [r7, #20]
 80078a8:	697b      	ldr	r3, [r7, #20]
 80078aa:	2b00      	cmp	r3, #0
 80078ac:	d1e4      	bne.n	8007878 <HAL_UART_IRQHandler+0x4fc>
 80078ae:	687b      	ldr	r3, [r7, #4]
 80078b0:	2202      	movs	r2, #2
 80078b2:	665a      	str	r2, [r3, #100]	@ 0x64
 80078b4:	f8b7 30ce 	ldrh.w	r3, [r7, #206]	@ 0xce
 80078b8:	4619      	mov	r1, r3
 80078ba:	6878      	ldr	r0, [r7, #4]
 80078bc:	f000 f85c 	bl	8007978 <HAL_UARTEx_RxEventCallback>
 80078c0:	e03f      	b.n	8007942 <HAL_UART_IRQHandler+0x5c6>
 80078c2:	f8d7 30e4 	ldr.w	r3, [r7, #228]	@ 0xe4
 80078c6:	f403 1380 	and.w	r3, r3, #1048576	@ 0x100000
 80078ca:	2b00      	cmp	r3, #0
 80078cc:	d00e      	beq.n	80078ec <HAL_UART_IRQHandler+0x570>
 80078ce:	f8d7 30dc 	ldr.w	r3, [r7, #220]	@ 0xdc
 80078d2:	f403 0380 	and.w	r3, r3, #4194304	@ 0x400000
 80078d6:	2b00      	cmp	r3, #0
 80078d8:	d008      	beq.n	80078ec <HAL_UART_IRQHandler+0x570>
 80078da:	687b      	ldr	r3, [r7, #4]
 80078dc:	681b      	ldr	r3, [r3, #0]
 80078de:	f44f 1280 	mov.w	r2, #1048576	@ 0x100000
 80078e2:	621a      	str	r2, [r3, #32]
 80078e4:	6878      	ldr	r0, [r7, #4]
 80078e6:	f000 ffe3 	bl	80088b0 <HAL_UARTEx_WakeupCallback>
 80078ea:	e02d      	b.n	8007948 <HAL_UART_IRQHandler+0x5cc>
 80078ec:	f8d7 30e4 	ldr.w	r3, [r7, #228]	@ 0xe4
 80078f0:	f003 0380 	and.w	r3, r3, #128	@ 0x80
 80078f4:	2b00      	cmp	r3, #0
 80078f6:	d00e      	beq.n	8007916 <HAL_UART_IRQHandler+0x59a>
 80078f8:	f8d7 30e0 	ldr.w	r3, [r7, #224]	@ 0xe0
 80078fc:	f003 0380 	and.w	r3, r3, #128	@ 0x80
 8007900:	2b00      	cmp	r3, #0
 8007902:	d008      	beq.n	8007916 <HAL_UART_IRQHandler+0x59a>
 8007904:	687b      	ldr	r3, [r7, #4]
 8007906:	6edb      	ldr	r3, [r3, #108]	@ 0x6c
 8007908:	2b00      	cmp	r3, #0
 800790a:	d01c      	beq.n	8007946 <HAL_UART_IRQHandler+0x5ca>
 800790c:	687b      	ldr	r3, [r7, #4]
 800790e:	6edb      	ldr	r3, [r3, #108]	@ 0x6c
 8007910:	6878      	ldr	r0, [r7, #4]
 8007912:	4798      	blx	r3
 8007914:	e017      	b.n	8007946 <HAL_UART_IRQHandler+0x5ca>
 8007916:	f8d7 30e4 	ldr.w	r3, [r7, #228]	@ 0xe4
 800791a:	f003 0340 	and.w	r3, r3, #64	@ 0x40
 800791e:	2b00      	cmp	r3, #0
 8007920:	d012      	beq.n	8007948 <HAL_UART_IRQHandler+0x5cc>
 8007922:	f8d7 30e0 	ldr.w	r3, [r7, #224]	@ 0xe0
 8007926:	f003 0340 	and.w	r3, r3, #64	@ 0x40
 800792a:	2b00      	cmp	r3, #0
 800792c:	d00c      	beq.n	8007948 <HAL_UART_IRQHandler+0x5cc>
 800792e:	6878      	ldr	r0, [r7, #4]
 8007930:	f000 fdd8 	bl	80084e4 <UART_EndTransmit_IT>
 8007934:	e008      	b.n	8007948 <HAL_UART_IRQHandler+0x5cc>
 8007936:	bf00      	nop
 8007938:	e006      	b.n	8007948 <HAL_UART_IRQHandler+0x5cc>
 800793a:	bf00      	nop
 800793c:	e004      	b.n	8007948 <HAL_UART_IRQHandler+0x5cc>
 800793e:	bf00      	nop
 8007940:	e002      	b.n	8007948 <HAL_UART_IRQHandler+0x5cc>
 8007942:	bf00      	nop
 8007944:	e000      	b.n	8007948 <HAL_UART_IRQHandler+0x5cc>
 8007946:	bf00      	nop
 8007948:	37e8      	adds	r7, #232	@ 0xe8
 800794a:	46bd      	mov	sp, r7
 800794c:	bd80      	pop	{r7, pc}
 800794e:	bf00      	nop

08007950 <HAL_UART_TxCpltCallback>:
 8007950:	b480      	push	{r7}
 8007952:	b083      	sub	sp, #12
 8007954:	af00      	add	r7, sp, #0
 8007956:	6078      	str	r0, [r7, #4]
 8007958:	bf00      	nop
 800795a:	370c      	adds	r7, #12
 800795c:	46bd      	mov	sp, r7
 800795e:	f85d 7b04 	ldr.w	r7, [sp], #4
 8007962:	4770      	bx	lr

08007964 <HAL_UART_ErrorCallback>:
 8007964:	b480      	push	{r7}
 8007966:	b083      	sub	sp, #12
 8007968:	af00      	add	r7, sp, #0
 800796a:	6078      	str	r0, [r7, #4]
 800796c:	bf00      	nop
 800796e:	370c      	adds	r7, #12
 8007970:	46bd      	mov	sp, r7
 8007972:	f85d 7b04 	ldr.w	r7, [sp], #4
 8007976:	4770      	bx	lr

08007978 <HAL_UARTEx_RxEventCallback>:
 8007978:	b480      	push	{r7}
 800797a:	b083      	sub	sp, #12
 800797c:	af00      	add	r7, sp, #0
 800797e:	6078      	str	r0, [r7, #4]
 8007980:	460b      	mov	r3, r1
 8007982:	807b      	strh	r3, [r7, #2]
 8007984:	bf00      	nop
 8007986:	370c      	adds	r7, #12
 8007988:	46bd      	mov	sp, r7
 800798a:	f85d 7b04 	ldr.w	r7, [sp], #4
 800798e:	4770      	bx	lr

08007990 <UART_SetConfig>:
 8007990:	e92d 4fb0 	stmdb	sp!, {r4, r5, r7, r8, r9, sl, fp, lr}
 8007994:	b08a      	sub	sp, #40	@ 0x28
 8007996:	af00      	add	r7, sp, #0
 8007998:	60f8      	str	r0, [r7, #12]
 800799a:	2300      	movs	r3, #0
 800799c:	f887 3022 	strb.w	r3, [r7, #34]	@ 0x22
 80079a0:	68fb      	ldr	r3, [r7, #12]
 80079a2:	689a      	ldr	r2, [r3, #8]
 80079a4:	68fb      	ldr	r3, [r7, #12]
 80079a6:	691b      	ldr	r3, [r3, #16]
 80079a8:	431a      	orrs	r2, r3
 80079aa:	68fb      	ldr	r3, [r7, #12]
 80079ac:	695b      	ldr	r3, [r3, #20]
 80079ae:	431a      	orrs	r2, r3
 80079b0:	68fb      	ldr	r3, [r7, #12]
 80079b2:	69db      	ldr	r3, [r3, #28]
 80079b4:	4313      	orrs	r3, r2
 80079b6:	627b      	str	r3, [r7, #36]	@ 0x24
 80079b8:	68fb      	ldr	r3, [r7, #12]
 80079ba:	681b      	ldr	r3, [r3, #0]
 80079bc:	681a      	ldr	r2, [r3, #0]
 80079be:	4ba4      	ldr	r3, [pc, #656]	@ (8007c50 <UART_SetConfig+0x2c0>)
 80079c0:	4013      	ands	r3, r2
 80079c2:	68fa      	ldr	r2, [r7, #12]
 80079c4:	6812      	ldr	r2, [r2, #0]
 80079c6:	6a79      	ldr	r1, [r7, #36]	@ 0x24
 80079c8:	430b      	orrs	r3, r1
 80079ca:	6013      	str	r3, [r2, #0]
 80079cc:	68fb      	ldr	r3, [r7, #12]
 80079ce:	681b      	ldr	r3, [r3, #0]
 80079d0:	685b      	ldr	r3, [r3, #4]
 80079d2:	f423 5140 	bic.w	r1, r3, #12288	@ 0x3000
 80079d6:	68fb      	ldr	r3, [r7, #12]
 80079d8:	68da      	ldr	r2, [r3, #12]
 80079da:	68fb      	ldr	r3, [r7, #12]
 80079dc:	681b      	ldr	r3, [r3, #0]
 80079de:	430a      	orrs	r2, r1
 80079e0:	605a      	str	r2, [r3, #4]
 80079e2:	68fb      	ldr	r3, [r7, #12]
 80079e4:	699b      	ldr	r3, [r3, #24]
 80079e6:	627b      	str	r3, [r7, #36]	@ 0x24
 80079e8:	68fb      	ldr	r3, [r7, #12]
 80079ea:	681b      	ldr	r3, [r3, #0]
 80079ec:	4a99      	ldr	r2, [pc, #612]	@ (8007c54 <UART_SetConfig+0x2c4>)
 80079ee:	4293      	cmp	r3, r2
 80079f0:	d004      	beq.n	80079fc <UART_SetConfig+0x6c>
 80079f2:	68fb      	ldr	r3, [r7, #12]
 80079f4:	6a1b      	ldr	r3, [r3, #32]
 80079f6:	6a7a      	ldr	r2, [r7, #36]	@ 0x24
 80079f8:	4313      	orrs	r3, r2
 80079fa:	627b      	str	r3, [r7, #36]	@ 0x24
 80079fc:	68fb      	ldr	r3, [r7, #12]
 80079fe:	681b      	ldr	r3, [r3, #0]
 8007a00:	689b      	ldr	r3, [r3, #8]
 8007a02:	f423 6130 	bic.w	r1, r3, #2816	@ 0xb00
 8007a06:	68fb      	ldr	r3, [r7, #12]
 8007a08:	681b      	ldr	r3, [r3, #0]
 8007a0a:	6a7a      	ldr	r2, [r7, #36]	@ 0x24
 8007a0c:	430a      	orrs	r2, r1
 8007a0e:	609a      	str	r2, [r3, #8]
 8007a10:	68fb      	ldr	r3, [r7, #12]
 8007a12:	681b      	ldr	r3, [r3, #0]
 8007a14:	4a90      	ldr	r2, [pc, #576]	@ (8007c58 <UART_SetConfig+0x2c8>)
 8007a16:	4293      	cmp	r3, r2
 8007a18:	d126      	bne.n	8007a68 <UART_SetConfig+0xd8>
 8007a1a:	4b90      	ldr	r3, [pc, #576]	@ (8007c5c <UART_SetConfig+0x2cc>)
 8007a1c:	f8d3 3088 	ldr.w	r3, [r3, #136]	@ 0x88
 8007a20:	f003 0303 	and.w	r3, r3, #3
 8007a24:	2b03      	cmp	r3, #3
 8007a26:	d81b      	bhi.n	8007a60 <UART_SetConfig+0xd0>
 8007a28:	a201      	add	r2, pc, #4	@ (adr r2, 8007a30 <UART_SetConfig+0xa0>)
 8007a2a:	f852 f023 	ldr.w	pc, [r2, r3, lsl #2]
 8007a2e:	bf00      	nop
 8007a30:	08007a41 	.word	0x08007a41
 8007a34:	08007a51 	.word	0x08007a51
 8007a38:	08007a49 	.word	0x08007a49
 8007a3c:	08007a59 	.word	0x08007a59
 8007a40:	2301      	movs	r3, #1
 8007a42:	f887 3023 	strb.w	r3, [r7, #35]	@ 0x23
 8007a46:	e116      	b.n	8007c76 <UART_SetConfig+0x2e6>
 8007a48:	2302      	movs	r3, #2
 8007a4a:	f887 3023 	strb.w	r3, [r7, #35]	@ 0x23
 8007a4e:	e112      	b.n	8007c76 <UART_SetConfig+0x2e6>
 8007a50:	2304      	movs	r3, #4
 8007a52:	f887 3023 	strb.w	r3, [r7, #35]	@ 0x23
 8007a56:	e10e      	b.n	8007c76 <UART_SetConfig+0x2e6>
 8007a58:	2308      	movs	r3, #8
 8007a5a:	f887 3023 	strb.w	r3, [r7, #35]	@ 0x23
 8007a5e:	e10a      	b.n	8007c76 <UART_SetConfig+0x2e6>
 8007a60:	2310      	movs	r3, #16
 8007a62:	f887 3023 	strb.w	r3, [r7, #35]	@ 0x23
 8007a66:	e106      	b.n	8007c76 <UART_SetConfig+0x2e6>
 8007a68:	68fb      	ldr	r3, [r7, #12]
 8007a6a:	681b      	ldr	r3, [r3, #0]
 8007a6c:	4a7c      	ldr	r2, [pc, #496]	@ (8007c60 <UART_SetConfig+0x2d0>)
 8007a6e:	4293      	cmp	r3, r2
 8007a70:	d138      	bne.n	8007ae4 <UART_SetConfig+0x154>
 8007a72:	4b7a      	ldr	r3, [pc, #488]	@ (8007c5c <UART_SetConfig+0x2cc>)
 8007a74:	f8d3 3088 	ldr.w	r3, [r3, #136]	@ 0x88
 8007a78:	f003 030c 	and.w	r3, r3, #12
 8007a7c:	2b0c      	cmp	r3, #12
 8007a7e:	d82d      	bhi.n	8007adc <UART_SetConfig+0x14c>
 8007a80:	a201      	add	r2, pc, #4	@ (adr r2, 8007a88 <UART_SetConfig+0xf8>)
 8007a82:	f852 f023 	ldr.w	pc, [r2, r3, lsl #2]
 8007a86:	bf00      	nop
 8007a88:	08007abd 	.word	0x08007abd
 8007a8c:	08007add 	.word	0x08007add
 8007a90:	08007add 	.word	0x08007add
 8007a94:	08007add 	.word	0x08007add
 8007a98:	08007acd 	.word	0x08007acd
 8007a9c:	08007add 	.word	0x08007add
 8007aa0:	08007add 	.word	0x08007add
 8007aa4:	08007add 	.word	0x08007add
 8007aa8:	08007ac5 	.word	0x08007ac5
 8007aac:	08007add 	.word	0x08007add
 8007ab0:	08007add 	.word	0x08007add
 8007ab4:	08007add 	.word	0x08007add
 8007ab8:	08007ad5 	.word	0x08007ad5
 8007abc:	2300      	movs	r3, #0
 8007abe:	f887 3023 	strb.w	r3, [r7, #35]	@ 0x23
 8007ac2:	e0d8      	b.n	8007c76 <UART_SetConfig+0x2e6>
 8007ac4:	2302      	movs	r3, #2
 8007ac6:	f887 3023 	strb.w	r3, [r7, #35]	@ 0x23
 8007aca:	e0d4      	b.n	8007c76 <UART_SetConfig+0x2e6>
 8007acc:	2304      	movs	r3, #4
 8007ace:	f887 3023 	strb.w	r3, [r7, #35]	@ 0x23
 8007ad2:	e0d0      	b.n	8007c76 <UART_SetConfig+0x2e6>
 8007ad4:	2308      	movs	r3, #8
 8007ad6:	f887 3023 	strb.w	r3, [r7, #35]	@ 0x23
 8007ada:	e0cc      	b.n	8007c76 <UART_SetConfig+0x2e6>
 8007adc:	2310      	movs	r3, #16
 8007ade:	f887 3023 	strb.w	r3, [r7, #35]	@ 0x23
 8007ae2:	e0c8      	b.n	8007c76 <UART_SetConfig+0x2e6>
 8007ae4:	68fb      	ldr	r3, [r7, #12]
 8007ae6:	681b      	ldr	r3, [r3, #0]
 8007ae8:	4a5e      	ldr	r2, [pc, #376]	@ (8007c64 <UART_SetConfig+0x2d4>)
 8007aea:	4293      	cmp	r3, r2
 8007aec:	d125      	bne.n	8007b3a <UART_SetConfig+0x1aa>
 8007aee:	4b5b      	ldr	r3, [pc, #364]	@ (8007c5c <UART_SetConfig+0x2cc>)
 8007af0:	f8d3 3088 	ldr.w	r3, [r3, #136]	@ 0x88
 8007af4:	f003 0330 	and.w	r3, r3, #48	@ 0x30
 8007af8:	2b30      	cmp	r3, #48	@ 0x30
 8007afa:	d016      	beq.n	8007b2a <UART_SetConfig+0x19a>
 8007afc:	2b30      	cmp	r3, #48	@ 0x30
 8007afe:	d818      	bhi.n	8007b32 <UART_SetConfig+0x1a2>
 8007b00:	2b20      	cmp	r3, #32
 8007b02:	d00a      	beq.n	8007b1a <UART_SetConfig+0x18a>
 8007b04:	2b20      	cmp	r3, #32
 8007b06:	d814      	bhi.n	8007b32 <UART_SetConfig+0x1a2>
 8007b08:	2b00      	cmp	r3, #0
 8007b0a:	d002      	beq.n	8007b12 <UART_SetConfig+0x182>
 8007b0c:	2b10      	cmp	r3, #16
 8007b0e:	d008      	beq.n	8007b22 <UART_SetConfig+0x192>
 8007b10:	e00f      	b.n	8007b32 <UART_SetConfig+0x1a2>
 8007b12:	2300      	movs	r3, #0
 8007b14:	f887 3023 	strb.w	r3, [r7, #35]	@ 0x23
 8007b18:	e0ad      	b.n	8007c76 <UART_SetConfig+0x2e6>
 8007b1a:	2302      	movs	r3, #2
 8007b1c:	f887 3023 	strb.w	r3, [r7, #35]	@ 0x23
 8007b20:	e0a9      	b.n	8007c76 <UART_SetConfig+0x2e6>
 8007b22:	2304      	movs	r3, #4
 8007b24:	f887 3023 	strb.w	r3, [r7, #35]	@ 0x23
 8007b28:	e0a5      	b.n	8007c76 <UART_SetConfig+0x2e6>
 8007b2a:	2308      	movs	r3, #8
 8007b2c:	f887 3023 	strb.w	r3, [r7, #35]	@ 0x23
 8007b30:	e0a1      	b.n	8007c76 <UART_SetConfig+0x2e6>
 8007b32:	2310      	movs	r3, #16
 8007b34:	f887 3023 	strb.w	r3, [r7, #35]	@ 0x23
 8007b38:	e09d      	b.n	8007c76 <UART_SetConfig+0x2e6>
 8007b3a:	68fb      	ldr	r3, [r7, #12]
 8007b3c:	681b      	ldr	r3, [r3, #0]
 8007b3e:	4a4a      	ldr	r2, [pc, #296]	@ (8007c68 <UART_SetConfig+0x2d8>)
 8007b40:	4293      	cmp	r3, r2
 8007b42:	d125      	bne.n	8007b90 <UART_SetConfig+0x200>
 8007b44:	4b45      	ldr	r3, [pc, #276]	@ (8007c5c <UART_SetConfig+0x2cc>)
 8007b46:	f8d3 3088 	ldr.w	r3, [r3, #136]	@ 0x88
 8007b4a:	f003 03c0 	and.w	r3, r3, #192	@ 0xc0
 8007b4e:	2bc0      	cmp	r3, #192	@ 0xc0
 8007b50:	d016      	beq.n	8007b80 <UART_SetConfig+0x1f0>
 8007b52:	2bc0      	cmp	r3, #192	@ 0xc0
 8007b54:	d818      	bhi.n	8007b88 <UART_SetConfig+0x1f8>
 8007b56:	2b80      	cmp	r3, #128	@ 0x80
 8007b58:	d00a      	beq.n	8007b70 <UART_SetConfig+0x1e0>
 8007b5a:	2b80      	cmp	r3, #128	@ 0x80
 8007b5c:	d814      	bhi.n	8007b88 <UART_SetConfig+0x1f8>
 8007b5e:	2b00      	cmp	r3, #0
 8007b60:	d002      	beq.n	8007b68 <UART_SetConfig+0x1d8>
 8007b62:	2b40      	cmp	r3, #64	@ 0x40
 8007b64:	d008      	beq.n	8007b78 <UART_SetConfig+0x1e8>
 8007b66:	e00f      	b.n	8007b88 <UART_SetConfig+0x1f8>
 8007b68:	2300      	movs	r3, #0
 8007b6a:	f887 3023 	strb.w	r3, [r7, #35]	@ 0x23
 8007b6e:	e082      	b.n	8007c76 <UART_SetConfig+0x2e6>
 8007b70:	2302      	movs	r3, #2
 8007b72:	f887 3023 	strb.w	r3, [r7, #35]	@ 0x23
 8007b76:	e07e      	b.n	8007c76 <UART_SetConfig+0x2e6>
 8007b78:	2304      	movs	r3, #4
 8007b7a:	f887 3023 	strb.w	r3, [r7, #35]	@ 0x23
 8007b7e:	e07a      	b.n	8007c76 <UART_SetConfig+0x2e6>
 8007b80:	2308      	movs	r3, #8
 8007b82:	f887 3023 	strb.w	r3, [r7, #35]	@ 0x23
 8007b86:	e076      	b.n	8007c76 <UART_SetConfig+0x2e6>
 8007b88:	2310      	movs	r3, #16
 8007b8a:	f887 3023 	strb.w	r3, [r7, #35]	@ 0x23
 8007b8e:	e072      	b.n	8007c76 <UART_SetConfig+0x2e6>
 8007b90:	68fb      	ldr	r3, [r7, #12]
 8007b92:	681b      	ldr	r3, [r3, #0]
 8007b94:	4a35      	ldr	r2, [pc, #212]	@ (8007c6c <UART_SetConfig+0x2dc>)
 8007b96:	4293      	cmp	r3, r2
 8007b98:	d12a      	bne.n	8007bf0 <UART_SetConfig+0x260>
 8007b9a:	4b30      	ldr	r3, [pc, #192]	@ (8007c5c <UART_SetConfig+0x2cc>)
 8007b9c:	f8d3 3088 	ldr.w	r3, [r3, #136]	@ 0x88
 8007ba0:	f403 7340 	and.w	r3, r3, #768	@ 0x300
 8007ba4:	f5b3 7f40 	cmp.w	r3, #768	@ 0x300
 8007ba8:	d01a      	beq.n	8007be0 <UART_SetConfig+0x250>
 8007baa:	f5b3 7f40 	cmp.w	r3, #768	@ 0x300
 8007bae:	d81b      	bhi.n	8007be8 <UART_SetConfig+0x258>
 8007bb0:	f5b3 7f00 	cmp.w	r3, #512	@ 0x200
 8007bb4:	d00c      	beq.n	8007bd0 <UART_SetConfig+0x240>
 8007bb6:	f5b3 7f00 	cmp.w	r3, #512	@ 0x200
 8007bba:	d815      	bhi.n	8007be8 <UART_SetConfig+0x258>
 8007bbc:	2b00      	cmp	r3, #0
 8007bbe:	d003      	beq.n	8007bc8 <UART_SetConfig+0x238>
 8007bc0:	f5b3 7f80 	cmp.w	r3, #256	@ 0x100
 8007bc4:	d008      	beq.n	8007bd8 <UART_SetConfig+0x248>
 8007bc6:	e00f      	b.n	8007be8 <UART_SetConfig+0x258>
 8007bc8:	2300      	movs	r3, #0
 8007bca:	f887 3023 	strb.w	r3, [r7, #35]	@ 0x23
 8007bce:	e052      	b.n	8007c76 <UART_SetConfig+0x2e6>
 8007bd0:	2302      	movs	r3, #2
 8007bd2:	f887 3023 	strb.w	r3, [r7, #35]	@ 0x23
 8007bd6:	e04e      	b.n	8007c76 <UART_SetConfig+0x2e6>
 8007bd8:	2304      	movs	r3, #4
 8007bda:	f887 3023 	strb.w	r3, [r7, #35]	@ 0x23
 8007bde:	e04a      	b.n	8007c76 <UART_SetConfig+0x2e6>
 8007be0:	2308      	movs	r3, #8
 8007be2:	f887 3023 	strb.w	r3, [r7, #35]	@ 0x23
 8007be6:	e046      	b.n	8007c76 <UART_SetConfig+0x2e6>
 8007be8:	2310      	movs	r3, #16
 8007bea:	f887 3023 	strb.w	r3, [r7, #35]	@ 0x23
 8007bee:	e042      	b.n	8007c76 <UART_SetConfig+0x2e6>
 8007bf0:	68fb      	ldr	r3, [r7, #12]
 8007bf2:	681b      	ldr	r3, [r3, #0]
 8007bf4:	4a17      	ldr	r2, [pc, #92]	@ (8007c54 <UART_SetConfig+0x2c4>)
 8007bf6:	4293      	cmp	r3, r2
 8007bf8:	d13a      	bne.n	8007c70 <UART_SetConfig+0x2e0>
 8007bfa:	4b18      	ldr	r3, [pc, #96]	@ (8007c5c <UART_SetConfig+0x2cc>)
 8007bfc:	f8d3 3088 	ldr.w	r3, [r3, #136]	@ 0x88
 8007c00:	f403 6340 	and.w	r3, r3, #3072	@ 0xc00
 8007c04:	f5b3 6f40 	cmp.w	r3, #3072	@ 0xc00
 8007c08:	d01a      	beq.n	8007c40 <UART_SetConfig+0x2b0>
 8007c0a:	f5b3 6f40 	cmp.w	r3, #3072	@ 0xc00
 8007c0e:	d81b      	bhi.n	8007c48 <UART_SetConfig+0x2b8>
 8007c10:	f5b3 6f00 	cmp.w	r3, #2048	@ 0x800
 8007c14:	d00c      	beq.n	8007c30 <UART_SetConfig+0x2a0>
 8007c16:	f5b3 6f00 	cmp.w	r3, #2048	@ 0x800
 8007c1a:	d815      	bhi.n	8007c48 <UART_SetConfig+0x2b8>
 8007c1c:	2b00      	cmp	r3, #0
 8007c1e:	d003      	beq.n	8007c28 <UART_SetConfig+0x298>
 8007c20:	f5b3 6f80 	cmp.w	r3, #1024	@ 0x400
 8007c24:	d008      	beq.n	8007c38 <UART_SetConfig+0x2a8>
 8007c26:	e00f      	b.n	8007c48 <UART_SetConfig+0x2b8>
 8007c28:	2300      	movs	r3, #0
 8007c2a:	f887 3023 	strb.w	r3, [r7, #35]	@ 0x23
 8007c2e:	e022      	b.n	8007c76 <UART_SetConfig+0x2e6>
 8007c30:	2302      	movs	r3, #2
 8007c32:	f887 3023 	strb.w	r3, [r7, #35]	@ 0x23
 8007c36:	e01e      	b.n	8007c76 <UART_SetConfig+0x2e6>
 8007c38:	2304      	movs	r3, #4
 8007c3a:	f887 3023 	strb.w	r3, [r7, #35]	@ 0x23
 8007c3e:	e01a      	b.n	8007c76 <UART_SetConfig+0x2e6>
 8007c40:	2308      	movs	r3, #8
 8007c42:	f887 3023 	strb.w	r3, [r7, #35]	@ 0x23
 8007c46:	e016      	b.n	8007c76 <UART_SetConfig+0x2e6>
 8007c48:	2310      	movs	r3, #16
 8007c4a:	f887 3023 	strb.w	r3, [r7, #35]	@ 0x23
 8007c4e:	e012      	b.n	8007c76 <UART_SetConfig+0x2e6>
 8007c50:	efff69f3 	.word	0xefff69f3
 8007c54:	40008000 	.word	0x40008000
 8007c58:	40013800 	.word	0x40013800
 8007c5c:	40021000 	.word	0x40021000
 8007c60:	40004400 	.word	0x40004400
 8007c64:	40004800 	.word	0x40004800
 8007c68:	40004c00 	.word	0x40004c00
 8007c6c:	40005000 	.word	0x40005000
 8007c70:	2310      	movs	r3, #16
 8007c72:	f887 3023 	strb.w	r3, [r7, #35]	@ 0x23
 8007c76:	68fb      	ldr	r3, [r7, #12]
 8007c78:	681b      	ldr	r3, [r3, #0]
 8007c7a:	4a9f      	ldr	r2, [pc, #636]	@ (8007ef8 <UART_SetConfig+0x568>)
 8007c7c:	4293      	cmp	r3, r2
 8007c7e:	d17a      	bne.n	8007d76 <UART_SetConfig+0x3e6>
 8007c80:	f897 3023 	ldrb.w	r3, [r7, #35]	@ 0x23
 8007c84:	2b08      	cmp	r3, #8
 8007c86:	d824      	bhi.n	8007cd2 <UART_SetConfig+0x342>
 8007c88:	a201      	add	r2, pc, #4	@ (adr r2, 8007c90 <UART_SetConfig+0x300>)
 8007c8a:	f852 f023 	ldr.w	pc, [r2, r3, lsl #2]
 8007c8e:	bf00      	nop
 8007c90:	08007cb5 	.word	0x08007cb5
 8007c94:	08007cd3 	.word	0x08007cd3
 8007c98:	08007cbd 	.word	0x08007cbd
 8007c9c:	08007cd3 	.word	0x08007cd3
 8007ca0:	08007cc3 	.word	0x08007cc3
 8007ca4:	08007cd3 	.word	0x08007cd3
 8007ca8:	08007cd3 	.word	0x08007cd3
 8007cac:	08007cd3 	.word	0x08007cd3
 8007cb0:	08007ccb 	.word	0x08007ccb
 8007cb4:	f7fc fcee 	bl	8004694 <HAL_RCC_GetPCLK1Freq>
 8007cb8:	61f8      	str	r0, [r7, #28]
 8007cba:	e010      	b.n	8007cde <UART_SetConfig+0x34e>
 8007cbc:	4b8f      	ldr	r3, [pc, #572]	@ (8007efc <UART_SetConfig+0x56c>)
 8007cbe:	61fb      	str	r3, [r7, #28]
 8007cc0:	e00d      	b.n	8007cde <UART_SetConfig+0x34e>
 8007cc2:	f7fc fc4f 	bl	8004564 <HAL_RCC_GetSysClockFreq>
 8007cc6:	61f8      	str	r0, [r7, #28]
 8007cc8:	e009      	b.n	8007cde <UART_SetConfig+0x34e>
 8007cca:	f44f 4300 	mov.w	r3, #32768	@ 0x8000
 8007cce:	61fb      	str	r3, [r7, #28]
 8007cd0:	e005      	b.n	8007cde <UART_SetConfig+0x34e>
 8007cd2:	2300      	movs	r3, #0
 8007cd4:	61fb      	str	r3, [r7, #28]
 8007cd6:	2301      	movs	r3, #1
 8007cd8:	f887 3022 	strb.w	r3, [r7, #34]	@ 0x22
 8007cdc:	bf00      	nop
 8007cde:	69fb      	ldr	r3, [r7, #28]
 8007ce0:	2b00      	cmp	r3, #0
 8007ce2:	f000 80fb 	beq.w	8007edc <UART_SetConfig+0x54c>
 8007ce6:	68fb      	ldr	r3, [r7, #12]
 8007ce8:	685a      	ldr	r2, [r3, #4]
 8007cea:	4613      	mov	r3, r2
 8007cec:	005b      	lsls	r3, r3, #1
 8007cee:	4413      	add	r3, r2
 8007cf0:	69fa      	ldr	r2, [r7, #28]
 8007cf2:	429a      	cmp	r2, r3
 8007cf4:	d305      	bcc.n	8007d02 <UART_SetConfig+0x372>
 8007cf6:	68fb      	ldr	r3, [r7, #12]
 8007cf8:	685b      	ldr	r3, [r3, #4]
 8007cfa:	031b      	lsls	r3, r3, #12
 8007cfc:	69fa      	ldr	r2, [r7, #28]
 8007cfe:	429a      	cmp	r2, r3
 8007d00:	d903      	bls.n	8007d0a <UART_SetConfig+0x37a>
 8007d02:	2301      	movs	r3, #1
 8007d04:	f887 3022 	strb.w	r3, [r7, #34]	@ 0x22
 8007d08:	e0e8      	b.n	8007edc <UART_SetConfig+0x54c>
 8007d0a:	69fb      	ldr	r3, [r7, #28]
 8007d0c:	2200      	movs	r2, #0
 8007d0e:	461c      	mov	r4, r3
 8007d10:	4615      	mov	r5, r2
 8007d12:	f04f 0200 	mov.w	r2, #0
 8007d16:	f04f 0300 	mov.w	r3, #0
 8007d1a:	022b      	lsls	r3, r5, #8
 8007d1c:	ea43 6314 	orr.w	r3, r3, r4, lsr #24
 8007d20:	0222      	lsls	r2, r4, #8
 8007d22:	68f9      	ldr	r1, [r7, #12]
 8007d24:	6849      	ldr	r1, [r1, #4]
 8007d26:	0849      	lsrs	r1, r1, #1
 8007d28:	2000      	movs	r0, #0
 8007d2a:	4688      	mov	r8, r1
 8007d2c:	4681      	mov	r9, r0
 8007d2e:	eb12 0a08 	adds.w	sl, r2, r8
 8007d32:	eb43 0b09 	adc.w	fp, r3, r9
 8007d36:	68fb      	ldr	r3, [r7, #12]
 8007d38:	685b      	ldr	r3, [r3, #4]
 8007d3a:	2200      	movs	r2, #0
 8007d3c:	603b      	str	r3, [r7, #0]
 8007d3e:	607a      	str	r2, [r7, #4]
 8007d40:	e9d7 2300 	ldrd	r2, r3, [r7]
 8007d44:	4650      	mov	r0, sl
 8007d46:	4659      	mov	r1, fp
 8007d48:	f7f8 fa3e 	bl	80001c8 <__aeabi_uldivmod>
 8007d4c:	4602      	mov	r2, r0
 8007d4e:	460b      	mov	r3, r1
 8007d50:	4613      	mov	r3, r2
 8007d52:	61bb      	str	r3, [r7, #24]
 8007d54:	69bb      	ldr	r3, [r7, #24]
 8007d56:	f5b3 7f40 	cmp.w	r3, #768	@ 0x300
 8007d5a:	d308      	bcc.n	8007d6e <UART_SetConfig+0x3de>
 8007d5c:	69bb      	ldr	r3, [r7, #24]
 8007d5e:	f5b3 1f80 	cmp.w	r3, #1048576	@ 0x100000
 8007d62:	d204      	bcs.n	8007d6e <UART_SetConfig+0x3de>
 8007d64:	68fb      	ldr	r3, [r7, #12]
 8007d66:	681b      	ldr	r3, [r3, #0]
 8007d68:	69ba      	ldr	r2, [r7, #24]
 8007d6a:	60da      	str	r2, [r3, #12]
 8007d6c:	e0b6      	b.n	8007edc <UART_SetConfig+0x54c>
 8007d6e:	2301      	movs	r3, #1
 8007d70:	f887 3022 	strb.w	r3, [r7, #34]	@ 0x22
 8007d74:	e0b2      	b.n	8007edc <UART_SetConfig+0x54c>
 8007d76:	68fb      	ldr	r3, [r7, #12]
 8007d78:	69db      	ldr	r3, [r3, #28]
 8007d7a:	f5b3 4f00 	cmp.w	r3, #32768	@ 0x8000
 8007d7e:	d15e      	bne.n	8007e3e <UART_SetConfig+0x4ae>
 8007d80:	f897 3023 	ldrb.w	r3, [r7, #35]	@ 0x23
 8007d84:	2b08      	cmp	r3, #8
 8007d86:	d828      	bhi.n	8007dda <UART_SetConfig+0x44a>
 8007d88:	a201      	add	r2, pc, #4	@ (adr r2, 8007d90 <UART_SetConfig+0x400>)
 8007d8a:	f852 f023 	ldr.w	pc, [r2, r3, lsl #2]
 8007d8e:	bf00      	nop
 8007d90:	08007db5 	.word	0x08007db5
 8007d94:	08007dbd 	.word	0x08007dbd
 8007d98:	08007dc5 	.word	0x08007dc5
 8007d9c:	08007ddb 	.word	0x08007ddb
 8007da0:	08007dcb 	.word	0x08007dcb
 8007da4:	08007ddb 	.word	0x08007ddb
 8007da8:	08007ddb 	.word	0x08007ddb
 8007dac:	08007ddb 	.word	0x08007ddb
 8007db0:	08007dd3 	.word	0x08007dd3
 8007db4:	f7fc fc6e 	bl	8004694 <HAL_RCC_GetPCLK1Freq>
 8007db8:	61f8      	str	r0, [r7, #28]
 8007dba:	e014      	b.n	8007de6 <UART_SetConfig+0x456>
 8007dbc:	f7fc fc80 	bl	80046c0 <HAL_RCC_GetPCLK2Freq>
 8007dc0:	61f8      	str	r0, [r7, #28]
 8007dc2:	e010      	b.n	8007de6 <UART_SetConfig+0x456>
 8007dc4:	4b4d      	ldr	r3, [pc, #308]	@ (8007efc <UART_SetConfig+0x56c>)
 8007dc6:	61fb      	str	r3, [r7, #28]
 8007dc8:	e00d      	b.n	8007de6 <UART_SetConfig+0x456>
 8007dca:	f7fc fbcb 	bl	8004564 <HAL_RCC_GetSysClockFreq>
 8007dce:	61f8      	str	r0, [r7, #28]
 8007dd0:	e009      	b.n	8007de6 <UART_SetConfig+0x456>
 8007dd2:	f44f 4300 	mov.w	r3, #32768	@ 0x8000
 8007dd6:	61fb      	str	r3, [r7, #28]
 8007dd8:	e005      	b.n	8007de6 <UART_SetConfig+0x456>
 8007dda:	2300      	movs	r3, #0
 8007ddc:	61fb      	str	r3, [r7, #28]
 8007dde:	2301      	movs	r3, #1
 8007de0:	f887 3022 	strb.w	r3, [r7, #34]	@ 0x22
 8007de4:	bf00      	nop
 8007de6:	69fb      	ldr	r3, [r7, #28]
 8007de8:	2b00      	cmp	r3, #0
 8007dea:	d077      	beq.n	8007edc <UART_SetConfig+0x54c>
 8007dec:	69fb      	ldr	r3, [r7, #28]
 8007dee:	005a      	lsls	r2, r3, #1
 8007df0:	68fb      	ldr	r3, [r7, #12]
 8007df2:	685b      	ldr	r3, [r3, #4]
 8007df4:	085b      	lsrs	r3, r3, #1
 8007df6:	441a      	add	r2, r3
 8007df8:	68fb      	ldr	r3, [r7, #12]
 8007dfa:	685b      	ldr	r3, [r3, #4]
 8007dfc:	fbb2 f3f3 	udiv	r3, r2, r3
 8007e00:	61bb      	str	r3, [r7, #24]
 8007e02:	69bb      	ldr	r3, [r7, #24]
 8007e04:	2b0f      	cmp	r3, #15
 8007e06:	d916      	bls.n	8007e36 <UART_SetConfig+0x4a6>
 8007e08:	69bb      	ldr	r3, [r7, #24]
 8007e0a:	f5b3 3f80 	cmp.w	r3, #65536	@ 0x10000
 8007e0e:	d212      	bcs.n	8007e36 <UART_SetConfig+0x4a6>
 8007e10:	69bb      	ldr	r3, [r7, #24]
 8007e12:	b29b      	uxth	r3, r3
 8007e14:	f023 030f 	bic.w	r3, r3, #15
 8007e18:	82fb      	strh	r3, [r7, #22]
 8007e1a:	69bb      	ldr	r3, [r7, #24]
 8007e1c:	085b      	lsrs	r3, r3, #1
 8007e1e:	b29b      	uxth	r3, r3
 8007e20:	f003 0307 	and.w	r3, r3, #7
 8007e24:	b29a      	uxth	r2, r3
 8007e26:	8afb      	ldrh	r3, [r7, #22]
 8007e28:	4313      	orrs	r3, r2
 8007e2a:	82fb      	strh	r3, [r7, #22]
 8007e2c:	68fb      	ldr	r3, [r7, #12]
 8007e2e:	681b      	ldr	r3, [r3, #0]
 8007e30:	8afa      	ldrh	r2, [r7, #22]
 8007e32:	60da      	str	r2, [r3, #12]
 8007e34:	e052      	b.n	8007edc <UART_SetConfig+0x54c>
 8007e36:	2301      	movs	r3, #1
 8007e38:	f887 3022 	strb.w	r3, [r7, #34]	@ 0x22
 8007e3c:	e04e      	b.n	8007edc <UART_SetConfig+0x54c>
 8007e3e:	f897 3023 	ldrb.w	r3, [r7, #35]	@ 0x23
 8007e42:	2b08      	cmp	r3, #8
 8007e44:	d827      	bhi.n	8007e96 <UART_SetConfig+0x506>
 8007e46:	a201      	add	r2, pc, #4	@ (adr r2, 8007e4c <UART_SetConfig+0x4bc>)
 8007e48:	f852 f023 	ldr.w	pc, [r2, r3, lsl #2]
 8007e4c:	08007e71 	.word	0x08007e71
 8007e50:	08007e79 	.word	0x08007e79
 8007e54:	08007e81 	.word	0x08007e81
 8007e58:	08007e97 	.word	0x08007e97
 8007e5c:	08007e87 	.word	0x08007e87
 8007e60:	08007e97 	.word	0x08007e97
 8007e64:	08007e97 	.word	0x08007e97
 8007e68:	08007e97 	.word	0x08007e97
 8007e6c:	08007e8f 	.word	0x08007e8f
 8007e70:	f7fc fc10 	bl	8004694 <HAL_RCC_GetPCLK1Freq>
 8007e74:	61f8      	str	r0, [r7, #28]
 8007e76:	e014      	b.n	8007ea2 <UART_SetConfig+0x512>
 8007e78:	f7fc fc22 	bl	80046c0 <HAL_RCC_GetPCLK2Freq>
 8007e7c:	61f8      	str	r0, [r7, #28]
 8007e7e:	e010      	b.n	8007ea2 <UART_SetConfig+0x512>
 8007e80:	4b1e      	ldr	r3, [pc, #120]	@ (8007efc <UART_SetConfig+0x56c>)
 8007e82:	61fb      	str	r3, [r7, #28]
 8007e84:	e00d      	b.n	8007ea2 <UART_SetConfig+0x512>
 8007e86:	f7fc fb6d 	bl	8004564 <HAL_RCC_GetSysClockFreq>
 8007e8a:	61f8      	str	r0, [r7, #28]
 8007e8c:	e009      	b.n	8007ea2 <UART_SetConfig+0x512>
 8007e8e:	f44f 4300 	mov.w	r3, #32768	@ 0x8000
 8007e92:	61fb      	str	r3, [r7, #28]
 8007e94:	e005      	b.n	8007ea2 <UART_SetConfig+0x512>
 8007e96:	2300      	movs	r3, #0
 8007e98:	61fb      	str	r3, [r7, #28]
 8007e9a:	2301      	movs	r3, #1
 8007e9c:	f887 3022 	strb.w	r3, [r7, #34]	@ 0x22
 8007ea0:	bf00      	nop
 8007ea2:	69fb      	ldr	r3, [r7, #28]
 8007ea4:	2b00      	cmp	r3, #0
 8007ea6:	d019      	beq.n	8007edc <UART_SetConfig+0x54c>
 8007ea8:	68fb      	ldr	r3, [r7, #12]
 8007eaa:	685b      	ldr	r3, [r3, #4]
 8007eac:	085a      	lsrs	r2, r3, #1
 8007eae:	69fb      	ldr	r3, [r7, #28]
 8007eb0:	441a      	add	r2, r3
 8007eb2:	68fb      	ldr	r3, [r7, #12]
 8007eb4:	685b      	ldr	r3, [r3, #4]
 8007eb6:	fbb2 f3f3 	udiv	r3, r2, r3
 8007eba:	61bb      	str	r3, [r7, #24]
 8007ebc:	69bb      	ldr	r3, [r7, #24]
 8007ebe:	2b0f      	cmp	r3, #15
 8007ec0:	d909      	bls.n	8007ed6 <UART_SetConfig+0x546>
 8007ec2:	69bb      	ldr	r3, [r7, #24]
 8007ec4:	f5b3 3f80 	cmp.w	r3, #65536	@ 0x10000
 8007ec8:	d205      	bcs.n	8007ed6 <UART_SetConfig+0x546>
 8007eca:	69bb      	ldr	r3, [r7, #24]
 8007ecc:	b29a      	uxth	r2, r3
 8007ece:	68fb      	ldr	r3, [r7, #12]
 8007ed0:	681b      	ldr	r3, [r3, #0]
 8007ed2:	60da      	str	r2, [r3, #12]
 8007ed4:	e002      	b.n	8007edc <UART_SetConfig+0x54c>
 8007ed6:	2301      	movs	r3, #1
 8007ed8:	f887 3022 	strb.w	r3, [r7, #34]	@ 0x22
 8007edc:	68fb      	ldr	r3, [r7, #12]
 8007ede:	2200      	movs	r2, #0
 8007ee0:	669a      	str	r2, [r3, #104]	@ 0x68
 8007ee2:	68fb      	ldr	r3, [r7, #12]
 8007ee4:	2200      	movs	r2, #0
 8007ee6:	66da      	str	r2, [r3, #108]	@ 0x6c
 8007ee8:	f897 3022 	ldrb.w	r3, [r7, #34]	@ 0x22
 8007eec:	4618      	mov	r0, r3
 8007eee:	3728      	adds	r7, #40	@ 0x28
 8007ef0:	46bd      	mov	sp, r7
 8007ef2:	e8bd 8fb0 	ldmia.w	sp!, {r4, r5, r7, r8, r9, sl, fp, pc}
 8007ef6:	bf00      	nop
 8007ef8:	40008000 	.word	0x40008000
 8007efc:	00f42400 	.word	0x00f42400

08007f00 <UART_AdvFeatureConfig>:
 8007f00:	b480      	push	{r7}
 8007f02:	b083      	sub	sp, #12
 8007f04:	af00      	add	r7, sp, #0
 8007f06:	6078      	str	r0, [r7, #4]
 8007f08:	687b      	ldr	r3, [r7, #4]
 8007f0a:	6a5b      	ldr	r3, [r3, #36]	@ 0x24
 8007f0c:	f003 0308 	and.w	r3, r3, #8
 8007f10:	2b00      	cmp	r3, #0
 8007f12:	d00a      	beq.n	8007f2a <UART_AdvFeatureConfig+0x2a>
 8007f14:	687b      	ldr	r3, [r7, #4]
 8007f16:	681b      	ldr	r3, [r3, #0]
 8007f18:	685b      	ldr	r3, [r3, #4]
 8007f1a:	f423 4100 	bic.w	r1, r3, #32768	@ 0x8000
 8007f1e:	687b      	ldr	r3, [r7, #4]
 8007f20:	6b5a      	ldr	r2, [r3, #52]	@ 0x34
 8007f22:	687b      	ldr	r3, [r7, #4]
 8007f24:	681b      	ldr	r3, [r3, #0]
 8007f26:	430a      	orrs	r2, r1
 8007f28:	605a      	str	r2, [r3, #4]
 8007f2a:	687b      	ldr	r3, [r7, #4]
 8007f2c:	6a5b      	ldr	r3, [r3, #36]	@ 0x24
 8007f2e:	f003 0301 	and.w	r3, r3, #1
 8007f32:	2b00      	cmp	r3, #0
 8007f34:	d00a      	beq.n	8007f4c <UART_AdvFeatureConfig+0x4c>
 8007f36:	687b      	ldr	r3, [r7, #4]
 8007f38:	681b      	ldr	r3, [r3, #0]
 8007f3a:	685b      	ldr	r3, [r3, #4]
 8007f3c:	f423 3100 	bic.w	r1, r3, #131072	@ 0x20000
 8007f40:	687b      	ldr	r3, [r7, #4]
 8007f42:	6a9a      	ldr	r2, [r3, #40]	@ 0x28
 8007f44:	687b      	ldr	r3, [r7, #4]
 8007f46:	681b      	ldr	r3, [r3, #0]
 8007f48:	430a      	orrs	r2, r1
 8007f4a:	605a      	str	r2, [r3, #4]
 8007f4c:	687b      	ldr	r3, [r7, #4]
 8007f4e:	6a5b      	ldr	r3, [r3, #36]	@ 0x24
 8007f50:	f003 0302 	and.w	r3, r3, #2
 8007f54:	2b00      	cmp	r3, #0
 8007f56:	d00a      	beq.n	8007f6e <UART_AdvFeatureConfig+0x6e>
 8007f58:	687b      	ldr	r3, [r7, #4]
 8007f5a:	681b      	ldr	r3, [r3, #0]
 8007f5c:	685b      	ldr	r3, [r3, #4]
 8007f5e:	f423 3180 	bic.w	r1, r3, #65536	@ 0x10000
 8007f62:	687b      	ldr	r3, [r7, #4]
 8007f64:	6ada      	ldr	r2, [r3, #44]	@ 0x2c
 8007f66:	687b      	ldr	r3, [r7, #4]
 8007f68:	681b      	ldr	r3, [r3, #0]
 8007f6a:	430a      	orrs	r2, r1
 8007f6c:	605a      	str	r2, [r3, #4]
 8007f6e:	687b      	ldr	r3, [r7, #4]
 8007f70:	6a5b      	ldr	r3, [r3, #36]	@ 0x24
 8007f72:	f003 0304 	and.w	r3, r3, #4
 8007f76:	2b00      	cmp	r3, #0
 8007f78:	d00a      	beq.n	8007f90 <UART_AdvFeatureConfig+0x90>
 8007f7a:	687b      	ldr	r3, [r7, #4]
 8007f7c:	681b      	ldr	r3, [r3, #0]
 8007f7e:	685b      	ldr	r3, [r3, #4]
 8007f80:	f423 2180 	bic.w	r1, r3, #262144	@ 0x40000
 8007f84:	687b      	ldr	r3, [r7, #4]
 8007f86:	6b1a      	ldr	r2, [r3, #48]	@ 0x30
 8007f88:	687b      	ldr	r3, [r7, #4]
 8007f8a:	681b      	ldr	r3, [r3, #0]
 8007f8c:	430a      	orrs	r2, r1
 8007f8e:	605a      	str	r2, [r3, #4]
 8007f90:	687b      	ldr	r3, [r7, #4]
 8007f92:	6a5b      	ldr	r3, [r3, #36]	@ 0x24
 8007f94:	f003 0310 	and.w	r3, r3, #16
 8007f98:	2b00      	cmp	r3, #0
 8007f9a:	d00a      	beq.n	8007fb2 <UART_AdvFeatureConfig+0xb2>
 8007f9c:	687b      	ldr	r3, [r7, #4]
 8007f9e:	681b      	ldr	r3, [r3, #0]
 8007fa0:	689b      	ldr	r3, [r3, #8]
 8007fa2:	f423 5180 	bic.w	r1, r3, #4096	@ 0x1000
 8007fa6:	687b      	ldr	r3, [r7, #4]
 8007fa8:	6b9a      	ldr	r2, [r3, #56]	@ 0x38
 8007faa:	687b      	ldr	r3, [r7, #4]
 8007fac:	681b      	ldr	r3, [r3, #0]
 8007fae:	430a      	orrs	r2, r1
 8007fb0:	609a      	str	r2, [r3, #8]
 8007fb2:	687b      	ldr	r3, [r7, #4]
 8007fb4:	6a5b      	ldr	r3, [r3, #36]	@ 0x24
 8007fb6:	f003 0320 	and.w	r3, r3, #32
 8007fba:	2b00      	cmp	r3, #0
 8007fbc:	d00a      	beq.n	8007fd4 <UART_AdvFeatureConfig+0xd4>
 8007fbe:	687b      	ldr	r3, [r7, #4]
 8007fc0:	681b      	ldr	r3, [r3, #0]
 8007fc2:	689b      	ldr	r3, [r3, #8]
 8007fc4:	f423 5100 	bic.w	r1, r3, #8192	@ 0x2000
 8007fc8:	687b      	ldr	r3, [r7, #4]
 8007fca:	6bda      	ldr	r2, [r3, #60]	@ 0x3c
 8007fcc:	687b      	ldr	r3, [r7, #4]
 8007fce:	681b      	ldr	r3, [r3, #0]
 8007fd0:	430a      	orrs	r2, r1
 8007fd2:	609a      	str	r2, [r3, #8]
 8007fd4:	687b      	ldr	r3, [r7, #4]
 8007fd6:	6a5b      	ldr	r3, [r3, #36]	@ 0x24
 8007fd8:	f003 0340 	and.w	r3, r3, #64	@ 0x40
 8007fdc:	2b00      	cmp	r3, #0
 8007fde:	d01a      	beq.n	8008016 <UART_AdvFeatureConfig+0x116>
 8007fe0:	687b      	ldr	r3, [r7, #4]
 8007fe2:	681b      	ldr	r3, [r3, #0]
 8007fe4:	685b      	ldr	r3, [r3, #4]
 8007fe6:	f423 1180 	bic.w	r1, r3, #1048576	@ 0x100000
 8007fea:	687b      	ldr	r3, [r7, #4]
 8007fec:	6c1a      	ldr	r2, [r3, #64]	@ 0x40
 8007fee:	687b      	ldr	r3, [r7, #4]
 8007ff0:	681b      	ldr	r3, [r3, #0]
 8007ff2:	430a      	orrs	r2, r1
 8007ff4:	605a      	str	r2, [r3, #4]
 8007ff6:	687b      	ldr	r3, [r7, #4]
 8007ff8:	6c1b      	ldr	r3, [r3, #64]	@ 0x40
 8007ffa:	f5b3 1f80 	cmp.w	r3, #1048576	@ 0x100000
 8007ffe:	d10a      	bne.n	8008016 <UART_AdvFeatureConfig+0x116>
 8008000:	687b      	ldr	r3, [r7, #4]
 8008002:	681b      	ldr	r3, [r3, #0]
 8008004:	685b      	ldr	r3, [r3, #4]
 8008006:	f423 01c0 	bic.w	r1, r3, #6291456	@ 0x600000
 800800a:	687b      	ldr	r3, [r7, #4]
 800800c:	6c5a      	ldr	r2, [r3, #68]	@ 0x44
 800800e:	687b      	ldr	r3, [r7, #4]
 8008010:	681b      	ldr	r3, [r3, #0]
 8008012:	430a      	orrs	r2, r1
 8008014:	605a      	str	r2, [r3, #4]
 8008016:	687b      	ldr	r3, [r7, #4]
 8008018:	6a5b      	ldr	r3, [r3, #36]	@ 0x24
 800801a:	f003 0380 	and.w	r3, r3, #128	@ 0x80
 800801e:	2b00      	cmp	r3, #0
 8008020:	d00a      	beq.n	8008038 <UART_AdvFeatureConfig+0x138>
 8008022:	687b      	ldr	r3, [r7, #4]
 8008024:	681b      	ldr	r3, [r3, #0]
 8008026:	685b      	ldr	r3, [r3, #4]
 8008028:	f423 2100 	bic.w	r1, r3, #524288	@ 0x80000
 800802c:	687b      	ldr	r3, [r7, #4]
 800802e:	6c9a      	ldr	r2, [r3, #72]	@ 0x48
 8008030:	687b      	ldr	r3, [r7, #4]
 8008032:	681b      	ldr	r3, [r3, #0]
 8008034:	430a      	orrs	r2, r1
 8008036:	605a      	str	r2, [r3, #4]
 8008038:	bf00      	nop
 800803a:	370c      	adds	r7, #12
 800803c:	46bd      	mov	sp, r7
 800803e:	f85d 7b04 	ldr.w	r7, [sp], #4
 8008042:	4770      	bx	lr

08008044 <UART_CheckIdleState>:
 8008044:	b580      	push	{r7, lr}
 8008046:	b098      	sub	sp, #96	@ 0x60
 8008048:	af02      	add	r7, sp, #8
 800804a:	6078      	str	r0, [r7, #4]
 800804c:	687b      	ldr	r3, [r7, #4]
 800804e:	2200      	movs	r2, #0
 8008050:	f8c3 2084 	str.w	r2, [r3, #132]	@ 0x84
 8008054:	f7f9 ff9c 	bl	8001f90 <HAL_GetTick>
 8008058:	6578      	str	r0, [r7, #84]	@ 0x54
 800805a:	687b      	ldr	r3, [r7, #4]
 800805c:	681b      	ldr	r3, [r3, #0]
 800805e:	681b      	ldr	r3, [r3, #0]
 8008060:	f003 0308 	and.w	r3, r3, #8
 8008064:	2b08      	cmp	r3, #8
 8008066:	d12e      	bne.n	80080c6 <UART_CheckIdleState+0x82>
 8008068:	f06f 437e 	mvn.w	r3, #4261412864	@ 0xfe000000
 800806c:	9300      	str	r3, [sp, #0]
 800806e:	6d7b      	ldr	r3, [r7, #84]	@ 0x54
 8008070:	2200      	movs	r2, #0
 8008072:	f44f 1100 	mov.w	r1, #2097152	@ 0x200000
 8008076:	6878      	ldr	r0, [r7, #4]
 8008078:	f000 f88c 	bl	8008194 <UART_WaitOnFlagUntilTimeout>
 800807c:	4603      	mov	r3, r0
 800807e:	2b00      	cmp	r3, #0
 8008080:	d021      	beq.n	80080c6 <UART_CheckIdleState+0x82>
 8008082:	687b      	ldr	r3, [r7, #4]
 8008084:	681b      	ldr	r3, [r3, #0]
 8008086:	63bb      	str	r3, [r7, #56]	@ 0x38
 8008088:	6bbb      	ldr	r3, [r7, #56]	@ 0x38
 800808a:	e853 3f00 	ldrex	r3, [r3]
 800808e:	637b      	str	r3, [r7, #52]	@ 0x34
 8008090:	6b7b      	ldr	r3, [r7, #52]	@ 0x34
 8008092:	f023 0380 	bic.w	r3, r3, #128	@ 0x80
 8008096:	653b      	str	r3, [r7, #80]	@ 0x50
 8008098:	687b      	ldr	r3, [r7, #4]
 800809a:	681b      	ldr	r3, [r3, #0]
 800809c:	461a      	mov	r2, r3
 800809e:	6d3b      	ldr	r3, [r7, #80]	@ 0x50
 80080a0:	647b      	str	r3, [r7, #68]	@ 0x44
 80080a2:	643a      	str	r2, [r7, #64]	@ 0x40
 80080a4:	6c39      	ldr	r1, [r7, #64]	@ 0x40
 80080a6:	6c7a      	ldr	r2, [r7, #68]	@ 0x44
 80080a8:	e841 2300 	strex	r3, r2, [r1]
 80080ac:	63fb      	str	r3, [r7, #60]	@ 0x3c
 80080ae:	6bfb      	ldr	r3, [r7, #60]	@ 0x3c
 80080b0:	2b00      	cmp	r3, #0
 80080b2:	d1e6      	bne.n	8008082 <UART_CheckIdleState+0x3e>
 80080b4:	687b      	ldr	r3, [r7, #4]
 80080b6:	2220      	movs	r2, #32
 80080b8:	67da      	str	r2, [r3, #124]	@ 0x7c
 80080ba:	687b      	ldr	r3, [r7, #4]
 80080bc:	2200      	movs	r2, #0
 80080be:	f883 2078 	strb.w	r2, [r3, #120]	@ 0x78
 80080c2:	2303      	movs	r3, #3
 80080c4:	e062      	b.n	800818c <UART_CheckIdleState+0x148>
 80080c6:	687b      	ldr	r3, [r7, #4]
 80080c8:	681b      	ldr	r3, [r3, #0]
 80080ca:	681b      	ldr	r3, [r3, #0]
 80080cc:	f003 0304 	and.w	r3, r3, #4
 80080d0:	2b04      	cmp	r3, #4
 80080d2:	d149      	bne.n	8008168 <UART_CheckIdleState+0x124>
 80080d4:	f06f 437e 	mvn.w	r3, #4261412864	@ 0xfe000000
 80080d8:	9300      	str	r3, [sp, #0]
 80080da:	6d7b      	ldr	r3, [r7, #84]	@ 0x54
 80080dc:	2200      	movs	r2, #0
 80080de:	f44f 0180 	mov.w	r1, #4194304	@ 0x400000
 80080e2:	6878      	ldr	r0, [r7, #4]
 80080e4:	f000 f856 	bl	8008194 <UART_WaitOnFlagUntilTimeout>
 80080e8:	4603      	mov	r3, r0
 80080ea:	2b00      	cmp	r3, #0
 80080ec:	d03c      	beq.n	8008168 <UART_CheckIdleState+0x124>
 80080ee:	687b      	ldr	r3, [r7, #4]
 80080f0:	681b      	ldr	r3, [r3, #0]
 80080f2:	627b      	str	r3, [r7, #36]	@ 0x24
 80080f4:	6a7b      	ldr	r3, [r7, #36]	@ 0x24
 80080f6:	e853 3f00 	ldrex	r3, [r3]
 80080fa:	623b      	str	r3, [r7, #32]
 80080fc:	6a3b      	ldr	r3, [r7, #32]
 80080fe:	f423 7390 	bic.w	r3, r3, #288	@ 0x120
 8008102:	64fb      	str	r3, [r7, #76]	@ 0x4c
 8008104:	687b      	ldr	r3, [r7, #4]
 8008106:	681b      	ldr	r3, [r3, #0]
 8008108:	461a      	mov	r2, r3
 800810a:	6cfb      	ldr	r3, [r7, #76]	@ 0x4c
 800810c:	633b      	str	r3, [r7, #48]	@ 0x30
 800810e:	62fa      	str	r2, [r7, #44]	@ 0x2c
 8008110:	6af9      	ldr	r1, [r7, #44]	@ 0x2c
 8008112:	6b3a      	ldr	r2, [r7, #48]	@ 0x30
 8008114:	e841 2300 	strex	r3, r2, [r1]
 8008118:	62bb      	str	r3, [r7, #40]	@ 0x28
 800811a:	6abb      	ldr	r3, [r7, #40]	@ 0x28
 800811c:	2b00      	cmp	r3, #0
 800811e:	d1e6      	bne.n	80080ee <UART_CheckIdleState+0xaa>
 8008120:	687b      	ldr	r3, [r7, #4]
 8008122:	681b      	ldr	r3, [r3, #0]
 8008124:	3308      	adds	r3, #8
 8008126:	613b      	str	r3, [r7, #16]
 8008128:	693b      	ldr	r3, [r7, #16]
 800812a:	e853 3f00 	ldrex	r3, [r3]
 800812e:	60fb      	str	r3, [r7, #12]
 8008130:	68fb      	ldr	r3, [r7, #12]
 8008132:	f023 0301 	bic.w	r3, r3, #1
 8008136:	64bb      	str	r3, [r7, #72]	@ 0x48
 8008138:	687b      	ldr	r3, [r7, #4]
 800813a:	681b      	ldr	r3, [r3, #0]
 800813c:	3308      	adds	r3, #8
 800813e:	6cba      	ldr	r2, [r7, #72]	@ 0x48
 8008140:	61fa      	str	r2, [r7, #28]
 8008142:	61bb      	str	r3, [r7, #24]
 8008144:	69b9      	ldr	r1, [r7, #24]
 8008146:	69fa      	ldr	r2, [r7, #28]
 8008148:	e841 2300 	strex	r3, r2, [r1]
 800814c:	617b      	str	r3, [r7, #20]
 800814e:	697b      	ldr	r3, [r7, #20]
 8008150:	2b00      	cmp	r3, #0
 8008152:	d1e5      	bne.n	8008120 <UART_CheckIdleState+0xdc>
 8008154:	687b      	ldr	r3, [r7, #4]
 8008156:	2220      	movs	r2, #32
 8008158:	f8c3 2080 	str.w	r2, [r3, #128]	@ 0x80
 800815c:	687b      	ldr	r3, [r7, #4]
 800815e:	2200      	movs	r2, #0
 8008160:	f883 2078 	strb.w	r2, [r3, #120]	@ 0x78
 8008164:	2303      	movs	r3, #3
 8008166:	e011      	b.n	800818c <UART_CheckIdleState+0x148>
 8008168:	687b      	ldr	r3, [r7, #4]
 800816a:	2220      	movs	r2, #32
 800816c:	67da      	str	r2, [r3, #124]	@ 0x7c
 800816e:	687b      	ldr	r3, [r7, #4]
 8008170:	2220      	movs	r2, #32
 8008172:	f8c3 2080 	str.w	r2, [r3, #128]	@ 0x80
 8008176:	687b      	ldr	r3, [r7, #4]
 8008178:	2200      	movs	r2, #0
 800817a:	661a      	str	r2, [r3, #96]	@ 0x60
 800817c:	687b      	ldr	r3, [r7, #4]
 800817e:	2200      	movs	r2, #0
 8008180:	665a      	str	r2, [r3, #100]	@ 0x64
 8008182:	687b      	ldr	r3, [r7, #4]
 8008184:	2200      	movs	r2, #0
 8008186:	f883 2078 	strb.w	r2, [r3, #120]	@ 0x78
 800818a:	2300      	movs	r3, #0
 800818c:	4618      	mov	r0, r3
 800818e:	3758      	adds	r7, #88	@ 0x58
 8008190:	46bd      	mov	sp, r7
 8008192:	bd80      	pop	{r7, pc}

08008194 <UART_WaitOnFlagUntilTimeout>:
 8008194:	b580      	push	{r7, lr}
 8008196:	b084      	sub	sp, #16
 8008198:	af00      	add	r7, sp, #0
 800819a:	60f8      	str	r0, [r7, #12]
 800819c:	60b9      	str	r1, [r7, #8]
 800819e:	603b      	str	r3, [r7, #0]
 80081a0:	4613      	mov	r3, r2
 80081a2:	71fb      	strb	r3, [r7, #7]
 80081a4:	e049      	b.n	800823a <UART_WaitOnFlagUntilTimeout+0xa6>
 80081a6:	69bb      	ldr	r3, [r7, #24]
 80081a8:	f1b3 3fff 	cmp.w	r3, #4294967295
 80081ac:	d045      	beq.n	800823a <UART_WaitOnFlagUntilTimeout+0xa6>
 80081ae:	f7f9 feef 	bl	8001f90 <HAL_GetTick>
 80081b2:	4602      	mov	r2, r0
 80081b4:	683b      	ldr	r3, [r7, #0]
 80081b6:	1ad3      	subs	r3, r2, r3
 80081b8:	69ba      	ldr	r2, [r7, #24]
 80081ba:	429a      	cmp	r2, r3
 80081bc:	d302      	bcc.n	80081c4 <UART_WaitOnFlagUntilTimeout+0x30>
 80081be:	69bb      	ldr	r3, [r7, #24]
 80081c0:	2b00      	cmp	r3, #0
 80081c2:	d101      	bne.n	80081c8 <UART_WaitOnFlagUntilTimeout+0x34>
 80081c4:	2303      	movs	r3, #3
 80081c6:	e048      	b.n	800825a <UART_WaitOnFlagUntilTimeout+0xc6>
 80081c8:	68fb      	ldr	r3, [r7, #12]
 80081ca:	681b      	ldr	r3, [r3, #0]
 80081cc:	681b      	ldr	r3, [r3, #0]
 80081ce:	f003 0304 	and.w	r3, r3, #4
 80081d2:	2b00      	cmp	r3, #0
 80081d4:	d031      	beq.n	800823a <UART_WaitOnFlagUntilTimeout+0xa6>
 80081d6:	68fb      	ldr	r3, [r7, #12]
 80081d8:	681b      	ldr	r3, [r3, #0]
 80081da:	69db      	ldr	r3, [r3, #28]
 80081dc:	f003 0308 	and.w	r3, r3, #8
 80081e0:	2b08      	cmp	r3, #8
 80081e2:	d110      	bne.n	8008206 <UART_WaitOnFlagUntilTimeout+0x72>
 80081e4:	68fb      	ldr	r3, [r7, #12]
 80081e6:	681b      	ldr	r3, [r3, #0]
 80081e8:	2208      	movs	r2, #8
 80081ea:	621a      	str	r2, [r3, #32]
 80081ec:	68f8      	ldr	r0, [r7, #12]
 80081ee:	f000 f8ff 	bl	80083f0 <UART_EndRxTransfer>
 80081f2:	68fb      	ldr	r3, [r7, #12]
 80081f4:	2208      	movs	r2, #8
 80081f6:	f8c3 2084 	str.w	r2, [r3, #132]	@ 0x84
 80081fa:	68fb      	ldr	r3, [r7, #12]
 80081fc:	2200      	movs	r2, #0
 80081fe:	f883 2078 	strb.w	r2, [r3, #120]	@ 0x78
 8008202:	2301      	movs	r3, #1
 8008204:	e029      	b.n	800825a <UART_WaitOnFlagUntilTimeout+0xc6>
 8008206:	68fb      	ldr	r3, [r7, #12]
 8008208:	681b      	ldr	r3, [r3, #0]
 800820a:	69db      	ldr	r3, [r3, #28]
 800820c:	f403 6300 	and.w	r3, r3, #2048	@ 0x800
 8008210:	f5b3 6f00 	cmp.w	r3, #2048	@ 0x800
 8008214:	d111      	bne.n	800823a <UART_WaitOnFlagUntilTimeout+0xa6>
 8008216:	68fb      	ldr	r3, [r7, #12]
 8008218:	681b      	ldr	r3, [r3, #0]
 800821a:	f44f 6200 	mov.w	r2, #2048	@ 0x800
 800821e:	621a      	str	r2, [r3, #32]
 8008220:	68f8      	ldr	r0, [r7, #12]
 8008222:	f000 f8e5 	bl	80083f0 <UART_EndRxTransfer>
 8008226:	68fb      	ldr	r3, [r7, #12]
 8008228:	2220      	movs	r2, #32
 800822a:	f8c3 2084 	str.w	r2, [r3, #132]	@ 0x84
 800822e:	68fb      	ldr	r3, [r7, #12]
 8008230:	2200      	movs	r2, #0
 8008232:	f883 2078 	strb.w	r2, [r3, #120]	@ 0x78
 8008236:	2303      	movs	r3, #3
 8008238:	e00f      	b.n	800825a <UART_WaitOnFlagUntilTimeout+0xc6>
 800823a:	68fb      	ldr	r3, [r7, #12]
 800823c:	681b      	ldr	r3, [r3, #0]
 800823e:	69da      	ldr	r2, [r3, #28]
 8008240:	68bb      	ldr	r3, [r7, #8]
 8008242:	4013      	ands	r3, r2
 8008244:	68ba      	ldr	r2, [r7, #8]
 8008246:	429a      	cmp	r2, r3
 8008248:	bf0c      	ite	eq
 800824a:	2301      	moveq	r3, #1
 800824c:	2300      	movne	r3, #0
 800824e:	b2db      	uxtb	r3, r3
 8008250:	461a      	mov	r2, r3
 8008252:	79fb      	ldrb	r3, [r7, #7]
 8008254:	429a      	cmp	r2, r3
 8008256:	d0a6      	beq.n	80081a6 <UART_WaitOnFlagUntilTimeout+0x12>
 8008258:	2300      	movs	r3, #0
 800825a:	4618      	mov	r0, r3
 800825c:	3710      	adds	r7, #16
 800825e:	46bd      	mov	sp, r7
 8008260:	bd80      	pop	{r7, pc}
	...

08008264 <UART_Start_Receive_IT>:
 8008264:	b480      	push	{r7}
 8008266:	b097      	sub	sp, #92	@ 0x5c
 8008268:	af00      	add	r7, sp, #0
 800826a:	60f8      	str	r0, [r7, #12]
 800826c:	60b9      	str	r1, [r7, #8]
 800826e:	4613      	mov	r3, r2
 8008270:	80fb      	strh	r3, [r7, #6]
 8008272:	68fb      	ldr	r3, [r7, #12]
 8008274:	68ba      	ldr	r2, [r7, #8]
 8008276:	655a      	str	r2, [r3, #84]	@ 0x54
 8008278:	68fb      	ldr	r3, [r7, #12]
 800827a:	88fa      	ldrh	r2, [r7, #6]
 800827c:	f8a3 2058 	strh.w	r2, [r3, #88]	@ 0x58
 8008280:	68fb      	ldr	r3, [r7, #12]
 8008282:	88fa      	ldrh	r2, [r7, #6]
 8008284:	f8a3 205a 	strh.w	r2, [r3, #90]	@ 0x5a
 8008288:	68fb      	ldr	r3, [r7, #12]
 800828a:	2200      	movs	r2, #0
 800828c:	669a      	str	r2, [r3, #104]	@ 0x68
 800828e:	68fb      	ldr	r3, [r7, #12]
 8008290:	689b      	ldr	r3, [r3, #8]
 8008292:	f5b3 5f80 	cmp.w	r3, #4096	@ 0x1000
 8008296:	d10e      	bne.n	80082b6 <UART_Start_Receive_IT+0x52>
 8008298:	68fb      	ldr	r3, [r7, #12]
 800829a:	691b      	ldr	r3, [r3, #16]
 800829c:	2b00      	cmp	r3, #0
 800829e:	d105      	bne.n	80082ac <UART_Start_Receive_IT+0x48>
 80082a0:	68fb      	ldr	r3, [r7, #12]
 80082a2:	f240 12ff 	movw	r2, #511	@ 0x1ff
 80082a6:	f8a3 205c 	strh.w	r2, [r3, #92]	@ 0x5c
 80082aa:	e02d      	b.n	8008308 <UART_Start_Receive_IT+0xa4>
 80082ac:	68fb      	ldr	r3, [r7, #12]
 80082ae:	22ff      	movs	r2, #255	@ 0xff
 80082b0:	f8a3 205c 	strh.w	r2, [r3, #92]	@ 0x5c
 80082b4:	e028      	b.n	8008308 <UART_Start_Receive_IT+0xa4>
 80082b6:	68fb      	ldr	r3, [r7, #12]
 80082b8:	689b      	ldr	r3, [r3, #8]
 80082ba:	2b00      	cmp	r3, #0
 80082bc:	d10d      	bne.n	80082da <UART_Start_Receive_IT+0x76>
 80082be:	68fb      	ldr	r3, [r7, #12]
 80082c0:	691b      	ldr	r3, [r3, #16]
 80082c2:	2b00      	cmp	r3, #0
 80082c4:	d104      	bne.n	80082d0 <UART_Start_Receive_IT+0x6c>
 80082c6:	68fb      	ldr	r3, [r7, #12]
 80082c8:	22ff      	movs	r2, #255	@ 0xff
 80082ca:	f8a3 205c 	strh.w	r2, [r3, #92]	@ 0x5c
 80082ce:	e01b      	b.n	8008308 <UART_Start_Receive_IT+0xa4>
 80082d0:	68fb      	ldr	r3, [r7, #12]
 80082d2:	227f      	movs	r2, #127	@ 0x7f
 80082d4:	f8a3 205c 	strh.w	r2, [r3, #92]	@ 0x5c
 80082d8:	e016      	b.n	8008308 <UART_Start_Receive_IT+0xa4>
 80082da:	68fb      	ldr	r3, [r7, #12]
 80082dc:	689b      	ldr	r3, [r3, #8]
 80082de:	f1b3 5f80 	cmp.w	r3, #268435456	@ 0x10000000
 80082e2:	d10d      	bne.n	8008300 <UART_Start_Receive_IT+0x9c>
 80082e4:	68fb      	ldr	r3, [r7, #12]
 80082e6:	691b      	ldr	r3, [r3, #16]
 80082e8:	2b00      	cmp	r3, #0
 80082ea:	d104      	bne.n	80082f6 <UART_Start_Receive_IT+0x92>
 80082ec:	68fb      	ldr	r3, [r7, #12]
 80082ee:	227f      	movs	r2, #127	@ 0x7f
 80082f0:	f8a3 205c 	strh.w	r2, [r3, #92]	@ 0x5c
 80082f4:	e008      	b.n	8008308 <UART_Start_Receive_IT+0xa4>
 80082f6:	68fb      	ldr	r3, [r7, #12]
 80082f8:	223f      	movs	r2, #63	@ 0x3f
 80082fa:	f8a3 205c 	strh.w	r2, [r3, #92]	@ 0x5c
 80082fe:	e003      	b.n	8008308 <UART_Start_Receive_IT+0xa4>
 8008300:	68fb      	ldr	r3, [r7, #12]
 8008302:	2200      	movs	r2, #0
 8008304:	f8a3 205c 	strh.w	r2, [r3, #92]	@ 0x5c
 8008308:	68fb      	ldr	r3, [r7, #12]
 800830a:	2200      	movs	r2, #0
 800830c:	f8c3 2084 	str.w	r2, [r3, #132]	@ 0x84
 8008310:	68fb      	ldr	r3, [r7, #12]
 8008312:	2222      	movs	r2, #34	@ 0x22
 8008314:	f8c3 2080 	str.w	r2, [r3, #128]	@ 0x80
 8008318:	68fb      	ldr	r3, [r7, #12]
 800831a:	681b      	ldr	r3, [r3, #0]
 800831c:	3308      	adds	r3, #8
 800831e:	63fb      	str	r3, [r7, #60]	@ 0x3c
 8008320:	6bfb      	ldr	r3, [r7, #60]	@ 0x3c
 8008322:	e853 3f00 	ldrex	r3, [r3]
 8008326:	63bb      	str	r3, [r7, #56]	@ 0x38
 8008328:	6bbb      	ldr	r3, [r7, #56]	@ 0x38
 800832a:	f043 0301 	orr.w	r3, r3, #1
 800832e:	657b      	str	r3, [r7, #84]	@ 0x54
 8008330:	68fb      	ldr	r3, [r7, #12]
 8008332:	681b      	ldr	r3, [r3, #0]
 8008334:	3308      	adds	r3, #8
 8008336:	6d7a      	ldr	r2, [r7, #84]	@ 0x54
 8008338:	64ba      	str	r2, [r7, #72]	@ 0x48
 800833a:	647b      	str	r3, [r7, #68]	@ 0x44
 800833c:	6c79      	ldr	r1, [r7, #68]	@ 0x44
 800833e:	6cba      	ldr	r2, [r7, #72]	@ 0x48
 8008340:	e841 2300 	strex	r3, r2, [r1]
 8008344:	643b      	str	r3, [r7, #64]	@ 0x40
 8008346:	6c3b      	ldr	r3, [r7, #64]	@ 0x40
 8008348:	2b00      	cmp	r3, #0
 800834a:	d1e5      	bne.n	8008318 <UART_Start_Receive_IT+0xb4>
 800834c:	68fb      	ldr	r3, [r7, #12]
 800834e:	689b      	ldr	r3, [r3, #8]
 8008350:	f5b3 5f80 	cmp.w	r3, #4096	@ 0x1000
 8008354:	d107      	bne.n	8008366 <UART_Start_Receive_IT+0x102>
 8008356:	68fb      	ldr	r3, [r7, #12]
 8008358:	691b      	ldr	r3, [r3, #16]
 800835a:	2b00      	cmp	r3, #0
 800835c:	d103      	bne.n	8008366 <UART_Start_Receive_IT+0x102>
 800835e:	68fb      	ldr	r3, [r7, #12]
 8008360:	4a21      	ldr	r2, [pc, #132]	@ (80083e8 <UART_Start_Receive_IT+0x184>)
 8008362:	669a      	str	r2, [r3, #104]	@ 0x68
 8008364:	e002      	b.n	800836c <UART_Start_Receive_IT+0x108>
 8008366:	68fb      	ldr	r3, [r7, #12]
 8008368:	4a20      	ldr	r2, [pc, #128]	@ (80083ec <UART_Start_Receive_IT+0x188>)
 800836a:	669a      	str	r2, [r3, #104]	@ 0x68
 800836c:	68fb      	ldr	r3, [r7, #12]
 800836e:	691b      	ldr	r3, [r3, #16]
 8008370:	2b00      	cmp	r3, #0
 8008372:	d019      	beq.n	80083a8 <UART_Start_Receive_IT+0x144>
 8008374:	68fb      	ldr	r3, [r7, #12]
 8008376:	681b      	ldr	r3, [r3, #0]
 8008378:	62bb      	str	r3, [r7, #40]	@ 0x28
 800837a:	6abb      	ldr	r3, [r7, #40]	@ 0x28
 800837c:	e853 3f00 	ldrex	r3, [r3]
 8008380:	627b      	str	r3, [r7, #36]	@ 0x24
 8008382:	6a7b      	ldr	r3, [r7, #36]	@ 0x24
 8008384:	f443 7390 	orr.w	r3, r3, #288	@ 0x120
 8008388:	64fb      	str	r3, [r7, #76]	@ 0x4c
 800838a:	68fb      	ldr	r3, [r7, #12]
 800838c:	681b      	ldr	r3, [r3, #0]
 800838e:	461a      	mov	r2, r3
 8008390:	6cfb      	ldr	r3, [r7, #76]	@ 0x4c
 8008392:	637b      	str	r3, [r7, #52]	@ 0x34
 8008394:	633a      	str	r2, [r7, #48]	@ 0x30
 8008396:	6b39      	ldr	r1, [r7, #48]	@ 0x30
 8008398:	6b7a      	ldr	r2, [r7, #52]	@ 0x34
 800839a:	e841 2300 	strex	r3, r2, [r1]
 800839e:	62fb      	str	r3, [r7, #44]	@ 0x2c
 80083a0:	6afb      	ldr	r3, [r7, #44]	@ 0x2c
 80083a2:	2b00      	cmp	r3, #0
 80083a4:	d1e6      	bne.n	8008374 <UART_Start_Receive_IT+0x110>
 80083a6:	e018      	b.n	80083da <UART_Start_Receive_IT+0x176>
 80083a8:	68fb      	ldr	r3, [r7, #12]
 80083aa:	681b      	ldr	r3, [r3, #0]
 80083ac:	617b      	str	r3, [r7, #20]
 80083ae:	697b      	ldr	r3, [r7, #20]
 80083b0:	e853 3f00 	ldrex	r3, [r3]
 80083b4:	613b      	str	r3, [r7, #16]
 80083b6:	693b      	ldr	r3, [r7, #16]
 80083b8:	f043 0320 	orr.w	r3, r3, #32
 80083bc:	653b      	str	r3, [r7, #80]	@ 0x50
 80083be:	68fb      	ldr	r3, [r7, #12]
 80083c0:	681b      	ldr	r3, [r3, #0]
 80083c2:	461a      	mov	r2, r3
 80083c4:	6d3b      	ldr	r3, [r7, #80]	@ 0x50
 80083c6:	623b      	str	r3, [r7, #32]
 80083c8:	61fa      	str	r2, [r7, #28]
 80083ca:	69f9      	ldr	r1, [r7, #28]
 80083cc:	6a3a      	ldr	r2, [r7, #32]
 80083ce:	e841 2300 	strex	r3, r2, [r1]
 80083d2:	61bb      	str	r3, [r7, #24]
 80083d4:	69bb      	ldr	r3, [r7, #24]
 80083d6:	2b00      	cmp	r3, #0
 80083d8:	d1e6      	bne.n	80083a8 <UART_Start_Receive_IT+0x144>
 80083da:	2300      	movs	r3, #0
 80083dc:	4618      	mov	r0, r3
 80083de:	375c      	adds	r7, #92	@ 0x5c
 80083e0:	46bd      	mov	sp, r7
 80083e2:	f85d 7b04 	ldr.w	r7, [sp], #4
 80083e6:	4770      	bx	lr
 80083e8:	080086f5 	.word	0x080086f5
 80083ec:	08008539 	.word	0x08008539

080083f0 <UART_EndRxTransfer>:
 80083f0:	b480      	push	{r7}
 80083f2:	b095      	sub	sp, #84	@ 0x54
 80083f4:	af00      	add	r7, sp, #0
 80083f6:	6078      	str	r0, [r7, #4]
 80083f8:	687b      	ldr	r3, [r7, #4]
 80083fa:	681b      	ldr	r3, [r3, #0]
 80083fc:	637b      	str	r3, [r7, #52]	@ 0x34
 80083fe:	6b7b      	ldr	r3, [r7, #52]	@ 0x34
 8008400:	e853 3f00 	ldrex	r3, [r3]
 8008404:	633b      	str	r3, [r7, #48]	@ 0x30
 8008406:	6b3b      	ldr	r3, [r7, #48]	@ 0x30
 8008408:	f423 7390 	bic.w	r3, r3, #288	@ 0x120
 800840c:	64fb      	str	r3, [r7, #76]	@ 0x4c
 800840e:	687b      	ldr	r3, [r7, #4]
 8008410:	681b      	ldr	r3, [r3, #0]
 8008412:	461a      	mov	r2, r3
 8008414:	6cfb      	ldr	r3, [r7, #76]	@ 0x4c
 8008416:	643b      	str	r3, [r7, #64]	@ 0x40
 8008418:	63fa      	str	r2, [r7, #60]	@ 0x3c
 800841a:	6bf9      	ldr	r1, [r7, #60]	@ 0x3c
 800841c:	6c3a      	ldr	r2, [r7, #64]	@ 0x40
 800841e:	e841 2300 	strex	r3, r2, [r1]
 8008422:	63bb      	str	r3, [r7, #56]	@ 0x38
 8008424:	6bbb      	ldr	r3, [r7, #56]	@ 0x38
 8008426:	2b00      	cmp	r3, #0
 8008428:	d1e6      	bne.n	80083f8 <UART_EndRxTransfer+0x8>
 800842a:	687b      	ldr	r3, [r7, #4]
 800842c:	681b      	ldr	r3, [r3, #0]
 800842e:	3308      	adds	r3, #8
 8008430:	623b      	str	r3, [r7, #32]
 8008432:	6a3b      	ldr	r3, [r7, #32]
 8008434:	e853 3f00 	ldrex	r3, [r3]
 8008438:	61fb      	str	r3, [r7, #28]
 800843a:	69fb      	ldr	r3, [r7, #28]
 800843c:	f023 0301 	bic.w	r3, r3, #1
 8008440:	64bb      	str	r3, [r7, #72]	@ 0x48
 8008442:	687b      	ldr	r3, [r7, #4]
 8008444:	681b      	ldr	r3, [r3, #0]
 8008446:	3308      	adds	r3, #8
 8008448:	6cba      	ldr	r2, [r7, #72]	@ 0x48
 800844a:	62fa      	str	r2, [r7, #44]	@ 0x2c
 800844c:	62bb      	str	r3, [r7, #40]	@ 0x28
 800844e:	6ab9      	ldr	r1, [r7, #40]	@ 0x28
 8008450:	6afa      	ldr	r2, [r7, #44]	@ 0x2c
 8008452:	e841 2300 	strex	r3, r2, [r1]
 8008456:	627b      	str	r3, [r7, #36]	@ 0x24
 8008458:	6a7b      	ldr	r3, [r7, #36]	@ 0x24
 800845a:	2b00      	cmp	r3, #0
 800845c:	d1e5      	bne.n	800842a <UART_EndRxTransfer+0x3a>
 800845e:	687b      	ldr	r3, [r7, #4]
 8008460:	6e1b      	ldr	r3, [r3, #96]	@ 0x60
 8008462:	2b01      	cmp	r3, #1
 8008464:	d118      	bne.n	8008498 <UART_EndRxTransfer+0xa8>
 8008466:	687b      	ldr	r3, [r7, #4]
 8008468:	681b      	ldr	r3, [r3, #0]
 800846a:	60fb      	str	r3, [r7, #12]
 800846c:	68fb      	ldr	r3, [r7, #12]
 800846e:	e853 3f00 	ldrex	r3, [r3]
 8008472:	60bb      	str	r3, [r7, #8]
 8008474:	68bb      	ldr	r3, [r7, #8]
 8008476:	f023 0310 	bic.w	r3, r3, #16
 800847a:	647b      	str	r3, [r7, #68]	@ 0x44
 800847c:	687b      	ldr	r3, [r7, #4]
 800847e:	681b      	ldr	r3, [r3, #0]
 8008480:	461a      	mov	r2, r3
 8008482:	6c7b      	ldr	r3, [r7, #68]	@ 0x44
 8008484:	61bb      	str	r3, [r7, #24]
 8008486:	617a      	str	r2, [r7, #20]
 8008488:	6979      	ldr	r1, [r7, #20]
 800848a:	69ba      	ldr	r2, [r7, #24]
 800848c:	e841 2300 	strex	r3, r2, [r1]
 8008490:	613b      	str	r3, [r7, #16]
 8008492:	693b      	ldr	r3, [r7, #16]
 8008494:	2b00      	cmp	r3, #0
 8008496:	d1e6      	bne.n	8008466 <UART_EndRxTransfer+0x76>
 8008498:	687b      	ldr	r3, [r7, #4]
 800849a:	2220      	movs	r2, #32
 800849c:	f8c3 2080 	str.w	r2, [r3, #128]	@ 0x80
 80084a0:	687b      	ldr	r3, [r7, #4]
 80084a2:	2200      	movs	r2, #0
 80084a4:	661a      	str	r2, [r3, #96]	@ 0x60
 80084a6:	687b      	ldr	r3, [r7, #4]
 80084a8:	2200      	movs	r2, #0
 80084aa:	669a      	str	r2, [r3, #104]	@ 0x68
 80084ac:	bf00      	nop
 80084ae:	3754      	adds	r7, #84	@ 0x54
 80084b0:	46bd      	mov	sp, r7
 80084b2:	f85d 7b04 	ldr.w	r7, [sp], #4
 80084b6:	4770      	bx	lr

080084b8 <UART_DMAAbortOnError>:
 80084b8:	b580      	push	{r7, lr}
 80084ba:	b084      	sub	sp, #16
 80084bc:	af00      	add	r7, sp, #0
 80084be:	6078      	str	r0, [r7, #4]
 80084c0:	687b      	ldr	r3, [r7, #4]
 80084c2:	6a9b      	ldr	r3, [r3, #40]	@ 0x28
 80084c4:	60fb      	str	r3, [r7, #12]
 80084c6:	68fb      	ldr	r3, [r7, #12]
 80084c8:	2200      	movs	r2, #0
 80084ca:	f8a3 205a 	strh.w	r2, [r3, #90]	@ 0x5a
 80084ce:	68fb      	ldr	r3, [r7, #12]
 80084d0:	2200      	movs	r2, #0
 80084d2:	f8a3 2052 	strh.w	r2, [r3, #82]	@ 0x52
 80084d6:	68f8      	ldr	r0, [r7, #12]
 80084d8:	f7ff fa44 	bl	8007964 <HAL_UART_ErrorCallback>
 80084dc:	bf00      	nop
 80084de:	3710      	adds	r7, #16
 80084e0:	46bd      	mov	sp, r7
 80084e2:	bd80      	pop	{r7, pc}

080084e4 <UART_EndTransmit_IT>:
 80084e4:	b580      	push	{r7, lr}
 80084e6:	b088      	sub	sp, #32
 80084e8:	af00      	add	r7, sp, #0
 80084ea:	6078      	str	r0, [r7, #4]
 80084ec:	687b      	ldr	r3, [r7, #4]
 80084ee:	681b      	ldr	r3, [r3, #0]
 80084f0:	60fb      	str	r3, [r7, #12]
 80084f2:	68fb      	ldr	r3, [r7, #12]
 80084f4:	e853 3f00 	ldrex	r3, [r3]
 80084f8:	60bb      	str	r3, [r7, #8]
 80084fa:	68bb      	ldr	r3, [r7, #8]
 80084fc:	f023 0340 	bic.w	r3, r3, #64	@ 0x40
 8008500:	61fb      	str	r3, [r7, #28]
 8008502:	687b      	ldr	r3, [r7, #4]
 8008504:	681b      	ldr	r3, [r3, #0]
 8008506:	461a      	mov	r2, r3
 8008508:	69fb      	ldr	r3, [r7, #28]
 800850a:	61bb      	str	r3, [r7, #24]
 800850c:	617a      	str	r2, [r7, #20]
 800850e:	6979      	ldr	r1, [r7, #20]
 8008510:	69ba      	ldr	r2, [r7, #24]
 8008512:	e841 2300 	strex	r3, r2, [r1]
 8008516:	613b      	str	r3, [r7, #16]
 8008518:	693b      	ldr	r3, [r7, #16]
 800851a:	2b00      	cmp	r3, #0
 800851c:	d1e6      	bne.n	80084ec <UART_EndTransmit_IT+0x8>
 800851e:	687b      	ldr	r3, [r7, #4]
 8008520:	2220      	movs	r2, #32
 8008522:	67da      	str	r2, [r3, #124]	@ 0x7c
 8008524:	687b      	ldr	r3, [r7, #4]
 8008526:	2200      	movs	r2, #0
 8008528:	66da      	str	r2, [r3, #108]	@ 0x6c
 800852a:	6878      	ldr	r0, [r7, #4]
 800852c:	f7ff fa10 	bl	8007950 <HAL_UART_TxCpltCallback>
 8008530:	bf00      	nop
 8008532:	3720      	adds	r7, #32
 8008534:	46bd      	mov	sp, r7
 8008536:	bd80      	pop	{r7, pc}

08008538 <UART_RxISR_8BIT>:
 8008538:	b580      	push	{r7, lr}
 800853a:	b09c      	sub	sp, #112	@ 0x70
 800853c:	af00      	add	r7, sp, #0
 800853e:	6078      	str	r0, [r7, #4]
 8008540:	687b      	ldr	r3, [r7, #4]
 8008542:	f8b3 305c 	ldrh.w	r3, [r3, #92]	@ 0x5c
 8008546:	f8a7 306e 	strh.w	r3, [r7, #110]	@ 0x6e
 800854a:	687b      	ldr	r3, [r7, #4]
 800854c:	f8d3 3080 	ldr.w	r3, [r3, #128]	@ 0x80
 8008550:	2b22      	cmp	r3, #34	@ 0x22
 8008552:	f040 80be 	bne.w	80086d2 <UART_RxISR_8BIT+0x19a>
 8008556:	687b      	ldr	r3, [r7, #4]
 8008558:	681b      	ldr	r3, [r3, #0]
 800855a:	8c9b      	ldrh	r3, [r3, #36]	@ 0x24
 800855c:	f8a7 306c 	strh.w	r3, [r7, #108]	@ 0x6c
 8008560:	f8b7 306c 	ldrh.w	r3, [r7, #108]	@ 0x6c
 8008564:	b2d9      	uxtb	r1, r3
 8008566:	f8b7 306e 	ldrh.w	r3, [r7, #110]	@ 0x6e
 800856a:	b2da      	uxtb	r2, r3
 800856c:	687b      	ldr	r3, [r7, #4]
 800856e:	6d5b      	ldr	r3, [r3, #84]	@ 0x54
 8008570:	400a      	ands	r2, r1
 8008572:	b2d2      	uxtb	r2, r2
 8008574:	701a      	strb	r2, [r3, #0]
 8008576:	687b      	ldr	r3, [r7, #4]
 8008578:	6d5b      	ldr	r3, [r3, #84]	@ 0x54
 800857a:	1c5a      	adds	r2, r3, #1
 800857c:	687b      	ldr	r3, [r7, #4]
 800857e:	655a      	str	r2, [r3, #84]	@ 0x54
 8008580:	687b      	ldr	r3, [r7, #4]
 8008582:	f8b3 305a 	ldrh.w	r3, [r3, #90]	@ 0x5a
 8008586:	b29b      	uxth	r3, r3
 8008588:	3b01      	subs	r3, #1
 800858a:	b29a      	uxth	r2, r3
 800858c:	687b      	ldr	r3, [r7, #4]
 800858e:	f8a3 205a 	strh.w	r2, [r3, #90]	@ 0x5a
 8008592:	687b      	ldr	r3, [r7, #4]
 8008594:	f8b3 305a 	ldrh.w	r3, [r3, #90]	@ 0x5a
 8008598:	b29b      	uxth	r3, r3
 800859a:	2b00      	cmp	r3, #0
 800859c:	f040 80a3 	bne.w	80086e6 <UART_RxISR_8BIT+0x1ae>
 80085a0:	687b      	ldr	r3, [r7, #4]
 80085a2:	681b      	ldr	r3, [r3, #0]
 80085a4:	64fb      	str	r3, [r7, #76]	@ 0x4c
 80085a6:	6cfb      	ldr	r3, [r7, #76]	@ 0x4c
 80085a8:	e853 3f00 	ldrex	r3, [r3]
 80085ac:	64bb      	str	r3, [r7, #72]	@ 0x48
 80085ae:	6cbb      	ldr	r3, [r7, #72]	@ 0x48
 80085b0:	f423 7390 	bic.w	r3, r3, #288	@ 0x120
 80085b4:	66bb      	str	r3, [r7, #104]	@ 0x68
 80085b6:	687b      	ldr	r3, [r7, #4]
 80085b8:	681b      	ldr	r3, [r3, #0]
 80085ba:	461a      	mov	r2, r3
 80085bc:	6ebb      	ldr	r3, [r7, #104]	@ 0x68
 80085be:	65bb      	str	r3, [r7, #88]	@ 0x58
 80085c0:	657a      	str	r2, [r7, #84]	@ 0x54
 80085c2:	6d79      	ldr	r1, [r7, #84]	@ 0x54
 80085c4:	6dba      	ldr	r2, [r7, #88]	@ 0x58
 80085c6:	e841 2300 	strex	r3, r2, [r1]
 80085ca:	653b      	str	r3, [r7, #80]	@ 0x50
 80085cc:	6d3b      	ldr	r3, [r7, #80]	@ 0x50
 80085ce:	2b00      	cmp	r3, #0
 80085d0:	d1e6      	bne.n	80085a0 <UART_RxISR_8BIT+0x68>
 80085d2:	687b      	ldr	r3, [r7, #4]
 80085d4:	681b      	ldr	r3, [r3, #0]
 80085d6:	3308      	adds	r3, #8
 80085d8:	63bb      	str	r3, [r7, #56]	@ 0x38
 80085da:	6bbb      	ldr	r3, [r7, #56]	@ 0x38
 80085dc:	e853 3f00 	ldrex	r3, [r3]
 80085e0:	637b      	str	r3, [r7, #52]	@ 0x34
 80085e2:	6b7b      	ldr	r3, [r7, #52]	@ 0x34
 80085e4:	f023 0301 	bic.w	r3, r3, #1
 80085e8:	667b      	str	r3, [r7, #100]	@ 0x64
 80085ea:	687b      	ldr	r3, [r7, #4]
 80085ec:	681b      	ldr	r3, [r3, #0]
 80085ee:	3308      	adds	r3, #8
 80085f0:	6e7a      	ldr	r2, [r7, #100]	@ 0x64
 80085f2:	647a      	str	r2, [r7, #68]	@ 0x44
 80085f4:	643b      	str	r3, [r7, #64]	@ 0x40
 80085f6:	6c39      	ldr	r1, [r7, #64]	@ 0x40
 80085f8:	6c7a      	ldr	r2, [r7, #68]	@ 0x44
 80085fa:	e841 2300 	strex	r3, r2, [r1]
 80085fe:	63fb      	str	r3, [r7, #60]	@ 0x3c
 8008600:	6bfb      	ldr	r3, [r7, #60]	@ 0x3c
 8008602:	2b00      	cmp	r3, #0
 8008604:	d1e5      	bne.n	80085d2 <UART_RxISR_8BIT+0x9a>
 8008606:	687b      	ldr	r3, [r7, #4]
 8008608:	2220      	movs	r2, #32
 800860a:	f8c3 2080 	str.w	r2, [r3, #128]	@ 0x80
 800860e:	687b      	ldr	r3, [r7, #4]
 8008610:	2200      	movs	r2, #0
 8008612:	669a      	str	r2, [r3, #104]	@ 0x68
 8008614:	687b      	ldr	r3, [r7, #4]
 8008616:	2200      	movs	r2, #0
 8008618:	665a      	str	r2, [r3, #100]	@ 0x64
 800861a:	687b      	ldr	r3, [r7, #4]
 800861c:	681b      	ldr	r3, [r3, #0]
 800861e:	4a34      	ldr	r2, [pc, #208]	@ (80086f0 <UART_RxISR_8BIT+0x1b8>)
 8008620:	4293      	cmp	r3, r2
 8008622:	d01f      	beq.n	8008664 <UART_RxISR_8BIT+0x12c>
 8008624:	687b      	ldr	r3, [r7, #4]
 8008626:	681b      	ldr	r3, [r3, #0]
 8008628:	685b      	ldr	r3, [r3, #4]
 800862a:	f403 0300 	and.w	r3, r3, #8388608	@ 0x800000
 800862e:	2b00      	cmp	r3, #0
 8008630:	d018      	beq.n	8008664 <UART_RxISR_8BIT+0x12c>
 8008632:	687b      	ldr	r3, [r7, #4]
 8008634:	681b      	ldr	r3, [r3, #0]
 8008636:	627b      	str	r3, [r7, #36]	@ 0x24
 8008638:	6a7b      	ldr	r3, [r7, #36]	@ 0x24
 800863a:	e853 3f00 	ldrex	r3, [r3]
 800863e:	623b      	str	r3, [r7, #32]
 8008640:	6a3b      	ldr	r3, [r7, #32]
 8008642:	f023 6380 	bic.w	r3, r3, #67108864	@ 0x4000000
 8008646:	663b      	str	r3, [r7, #96]	@ 0x60
 8008648:	687b      	ldr	r3, [r7, #4]
 800864a:	681b      	ldr	r3, [r3, #0]
 800864c:	461a      	mov	r2, r3
 800864e:	6e3b      	ldr	r3, [r7, #96]	@ 0x60
 8008650:	633b      	str	r3, [r7, #48]	@ 0x30
 8008652:	62fa      	str	r2, [r7, #44]	@ 0x2c
 8008654:	6af9      	ldr	r1, [r7, #44]	@ 0x2c
 8008656:	6b3a      	ldr	r2, [r7, #48]	@ 0x30
 8008658:	e841 2300 	strex	r3, r2, [r1]
 800865c:	62bb      	str	r3, [r7, #40]	@ 0x28
 800865e:	6abb      	ldr	r3, [r7, #40]	@ 0x28
 8008660:	2b00      	cmp	r3, #0
 8008662:	d1e6      	bne.n	8008632 <UART_RxISR_8BIT+0xfa>
 8008664:	687b      	ldr	r3, [r7, #4]
 8008666:	6e1b      	ldr	r3, [r3, #96]	@ 0x60
 8008668:	2b01      	cmp	r3, #1
 800866a:	d12e      	bne.n	80086ca <UART_RxISR_8BIT+0x192>
 800866c:	687b      	ldr	r3, [r7, #4]
 800866e:	2200      	movs	r2, #0
 8008670:	661a      	str	r2, [r3, #96]	@ 0x60
 8008672:	687b      	ldr	r3, [r7, #4]
 8008674:	681b      	ldr	r3, [r3, #0]
 8008676:	613b      	str	r3, [r7, #16]
 8008678:	693b      	ldr	r3, [r7, #16]
 800867a:	e853 3f00 	ldrex	r3, [r3]
 800867e:	60fb      	str	r3, [r7, #12]
 8008680:	68fb      	ldr	r3, [r7, #12]
 8008682:	f023 0310 	bic.w	r3, r3, #16
 8008686:	65fb      	str	r3, [r7, #92]	@ 0x5c
 8008688:	687b      	ldr	r3, [r7, #4]
 800868a:	681b      	ldr	r3, [r3, #0]
 800868c:	461a      	mov	r2, r3
 800868e:	6dfb      	ldr	r3, [r7, #92]	@ 0x5c
 8008690:	61fb      	str	r3, [r7, #28]
 8008692:	61ba      	str	r2, [r7, #24]
 8008694:	69b9      	ldr	r1, [r7, #24]
 8008696:	69fa      	ldr	r2, [r7, #28]
 8008698:	e841 2300 	strex	r3, r2, [r1]
 800869c:	617b      	str	r3, [r7, #20]
 800869e:	697b      	ldr	r3, [r7, #20]
 80086a0:	2b00      	cmp	r3, #0
 80086a2:	d1e6      	bne.n	8008672 <UART_RxISR_8BIT+0x13a>
 80086a4:	687b      	ldr	r3, [r7, #4]
 80086a6:	681b      	ldr	r3, [r3, #0]
 80086a8:	69db      	ldr	r3, [r3, #28]
 80086aa:	f003 0310 	and.w	r3, r3, #16
 80086ae:	2b10      	cmp	r3, #16
 80086b0:	d103      	bne.n	80086ba <UART_RxISR_8BIT+0x182>
 80086b2:	687b      	ldr	r3, [r7, #4]
 80086b4:	681b      	ldr	r3, [r3, #0]
 80086b6:	2210      	movs	r2, #16
 80086b8:	621a      	str	r2, [r3, #32]
 80086ba:	687b      	ldr	r3, [r7, #4]
 80086bc:	f8b3 3058 	ldrh.w	r3, [r3, #88]	@ 0x58
 80086c0:	4619      	mov	r1, r3
 80086c2:	6878      	ldr	r0, [r7, #4]
 80086c4:	f7ff f958 	bl	8007978 <HAL_UARTEx_RxEventCallback>
 80086c8:	e00d      	b.n	80086e6 <UART_RxISR_8BIT+0x1ae>
 80086ca:	6878      	ldr	r0, [r7, #4]
 80086cc:	f7f8 fe40 	bl	8001350 <HAL_UART_RxCpltCallback>
 80086d0:	e009      	b.n	80086e6 <UART_RxISR_8BIT+0x1ae>
 80086d2:	687b      	ldr	r3, [r7, #4]
 80086d4:	681b      	ldr	r3, [r3, #0]
 80086d6:	8b1b      	ldrh	r3, [r3, #24]
 80086d8:	b29a      	uxth	r2, r3
 80086da:	687b      	ldr	r3, [r7, #4]
 80086dc:	681b      	ldr	r3, [r3, #0]
 80086de:	f042 0208 	orr.w	r2, r2, #8
 80086e2:	b292      	uxth	r2, r2
 80086e4:	831a      	strh	r2, [r3, #24]
 80086e6:	bf00      	nop
 80086e8:	3770      	adds	r7, #112	@ 0x70
 80086ea:	46bd      	mov	sp, r7
 80086ec:	bd80      	pop	{r7, pc}
 80086ee:	bf00      	nop
 80086f0:	40008000 	.word	0x40008000

080086f4 <UART_RxISR_16BIT>:
 80086f4:	b580      	push	{r7, lr}
 80086f6:	b09c      	sub	sp, #112	@ 0x70
 80086f8:	af00      	add	r7, sp, #0
 80086fa:	6078      	str	r0, [r7, #4]
 80086fc:	687b      	ldr	r3, [r7, #4]
 80086fe:	f8b3 305c 	ldrh.w	r3, [r3, #92]	@ 0x5c
 8008702:	f8a7 306e 	strh.w	r3, [r7, #110]	@ 0x6e
 8008706:	687b      	ldr	r3, [r7, #4]
 8008708:	f8d3 3080 	ldr.w	r3, [r3, #128]	@ 0x80
 800870c:	2b22      	cmp	r3, #34	@ 0x22
 800870e:	f040 80be 	bne.w	800888e <UART_RxISR_16BIT+0x19a>
 8008712:	687b      	ldr	r3, [r7, #4]
 8008714:	681b      	ldr	r3, [r3, #0]
 8008716:	8c9b      	ldrh	r3, [r3, #36]	@ 0x24
 8008718:	f8a7 306c 	strh.w	r3, [r7, #108]	@ 0x6c
 800871c:	687b      	ldr	r3, [r7, #4]
 800871e:	6d5b      	ldr	r3, [r3, #84]	@ 0x54
 8008720:	66bb      	str	r3, [r7, #104]	@ 0x68
 8008722:	f8b7 206c 	ldrh.w	r2, [r7, #108]	@ 0x6c
 8008726:	f8b7 306e 	ldrh.w	r3, [r7, #110]	@ 0x6e
 800872a:	4013      	ands	r3, r2
 800872c:	b29a      	uxth	r2, r3
 800872e:	6ebb      	ldr	r3, [r7, #104]	@ 0x68
 8008730:	801a      	strh	r2, [r3, #0]
 8008732:	687b      	ldr	r3, [r7, #4]
 8008734:	6d5b      	ldr	r3, [r3, #84]	@ 0x54
 8008736:	1c9a      	adds	r2, r3, #2
 8008738:	687b      	ldr	r3, [r7, #4]
 800873a:	655a      	str	r2, [r3, #84]	@ 0x54
 800873c:	687b      	ldr	r3, [r7, #4]
 800873e:	f8b3 305a 	ldrh.w	r3, [r3, #90]	@ 0x5a
 8008742:	b29b      	uxth	r3, r3
 8008744:	3b01      	subs	r3, #1
 8008746:	b29a      	uxth	r2, r3
 8008748:	687b      	ldr	r3, [r7, #4]
 800874a:	f8a3 205a 	strh.w	r2, [r3, #90]	@ 0x5a
 800874e:	687b      	ldr	r3, [r7, #4]
 8008750:	f8b3 305a 	ldrh.w	r3, [r3, #90]	@ 0x5a
 8008754:	b29b      	uxth	r3, r3
 8008756:	2b00      	cmp	r3, #0
 8008758:	f040 80a3 	bne.w	80088a2 <UART_RxISR_16BIT+0x1ae>
 800875c:	687b      	ldr	r3, [r7, #4]
 800875e:	681b      	ldr	r3, [r3, #0]
 8008760:	64bb      	str	r3, [r7, #72]	@ 0x48
 8008762:	6cbb      	ldr	r3, [r7, #72]	@ 0x48
 8008764:	e853 3f00 	ldrex	r3, [r3]
 8008768:	647b      	str	r3, [r7, #68]	@ 0x44
 800876a:	6c7b      	ldr	r3, [r7, #68]	@ 0x44
 800876c:	f423 7390 	bic.w	r3, r3, #288	@ 0x120
 8008770:	667b      	str	r3, [r7, #100]	@ 0x64
 8008772:	687b      	ldr	r3, [r7, #4]
 8008774:	681b      	ldr	r3, [r3, #0]
 8008776:	461a      	mov	r2, r3
 8008778:	6e7b      	ldr	r3, [r7, #100]	@ 0x64
 800877a:	657b      	str	r3, [r7, #84]	@ 0x54
 800877c:	653a      	str	r2, [r7, #80]	@ 0x50
 800877e:	6d39      	ldr	r1, [r7, #80]	@ 0x50
 8008780:	6d7a      	ldr	r2, [r7, #84]	@ 0x54
 8008782:	e841 2300 	strex	r3, r2, [r1]
 8008786:	64fb      	str	r3, [r7, #76]	@ 0x4c
 8008788:	6cfb      	ldr	r3, [r7, #76]	@ 0x4c
 800878a:	2b00      	cmp	r3, #0
 800878c:	d1e6      	bne.n	800875c <UART_RxISR_16BIT+0x68>
 800878e:	687b      	ldr	r3, [r7, #4]
 8008790:	681b      	ldr	r3, [r3, #0]
 8008792:	3308      	adds	r3, #8
 8008794:	637b      	str	r3, [r7, #52]	@ 0x34
 8008796:	6b7b      	ldr	r3, [r7, #52]	@ 0x34
 8008798:	e853 3f00 	ldrex	r3, [r3]
 800879c:	633b      	str	r3, [r7, #48]	@ 0x30
 800879e:	6b3b      	ldr	r3, [r7, #48]	@ 0x30
 80087a0:	f023 0301 	bic.w	r3, r3, #1
 80087a4:	663b      	str	r3, [r7, #96]	@ 0x60
 80087a6:	687b      	ldr	r3, [r7, #4]
 80087a8:	681b      	ldr	r3, [r3, #0]
 80087aa:	3308      	adds	r3, #8
 80087ac:	6e3a      	ldr	r2, [r7, #96]	@ 0x60
 80087ae:	643a      	str	r2, [r7, #64]	@ 0x40
 80087b0:	63fb      	str	r3, [r7, #60]	@ 0x3c
 80087b2:	6bf9      	ldr	r1, [r7, #60]	@ 0x3c
 80087b4:	6c3a      	ldr	r2, [r7, #64]	@ 0x40
 80087b6:	e841 2300 	strex	r3, r2, [r1]
 80087ba:	63bb      	str	r3, [r7, #56]	@ 0x38
 80087bc:	6bbb      	ldr	r3, [r7, #56]	@ 0x38
 80087be:	2b00      	cmp	r3, #0
 80087c0:	d1e5      	bne.n	800878e <UART_RxISR_16BIT+0x9a>
 80087c2:	687b      	ldr	r3, [r7, #4]
 80087c4:	2220      	movs	r2, #32
 80087c6:	f8c3 2080 	str.w	r2, [r3, #128]	@ 0x80
 80087ca:	687b      	ldr	r3, [r7, #4]
 80087cc:	2200      	movs	r2, #0
 80087ce:	669a      	str	r2, [r3, #104]	@ 0x68
 80087d0:	687b      	ldr	r3, [r7, #4]
 80087d2:	2200      	movs	r2, #0
 80087d4:	665a      	str	r2, [r3, #100]	@ 0x64
 80087d6:	687b      	ldr	r3, [r7, #4]
 80087d8:	681b      	ldr	r3, [r3, #0]
 80087da:	4a34      	ldr	r2, [pc, #208]	@ (80088ac <UART_RxISR_16BIT+0x1b8>)
 80087dc:	4293      	cmp	r3, r2
 80087de:	d01f      	beq.n	8008820 <UART_RxISR_16BIT+0x12c>
 80087e0:	687b      	ldr	r3, [r7, #4]
 80087e2:	681b      	ldr	r3, [r3, #0]
 80087e4:	685b      	ldr	r3, [r3, #4]
 80087e6:	f403 0300 	and.w	r3, r3, #8388608	@ 0x800000
 80087ea:	2b00      	cmp	r3, #0
 80087ec:	d018      	beq.n	8008820 <UART_RxISR_16BIT+0x12c>
 80087ee:	687b      	ldr	r3, [r7, #4]
 80087f0:	681b      	ldr	r3, [r3, #0]
 80087f2:	623b      	str	r3, [r7, #32]
 80087f4:	6a3b      	ldr	r3, [r7, #32]
 80087f6:	e853 3f00 	ldrex	r3, [r3]
 80087fa:	61fb      	str	r3, [r7, #28]
 80087fc:	69fb      	ldr	r3, [r7, #28]
 80087fe:	f023 6380 	bic.w	r3, r3, #67108864	@ 0x4000000
 8008802:	65fb      	str	r3, [r7, #92]	@ 0x5c
 8008804:	687b      	ldr	r3, [r7, #4]
 8008806:	681b      	ldr	r3, [r3, #0]
 8008808:	461a      	mov	r2, r3
 800880a:	6dfb      	ldr	r3, [r7, #92]	@ 0x5c
 800880c:	62fb      	str	r3, [r7, #44]	@ 0x2c
 800880e:	62ba      	str	r2, [r7, #40]	@ 0x28
 8008810:	6ab9      	ldr	r1, [r7, #40]	@ 0x28
 8008812:	6afa      	ldr	r2, [r7, #44]	@ 0x2c
 8008814:	e841 2300 	strex	r3, r2, [r1]
 8008818:	627b      	str	r3, [r7, #36]	@ 0x24
 800881a:	6a7b      	ldr	r3, [r7, #36]	@ 0x24
 800881c:	2b00      	cmp	r3, #0
 800881e:	d1e6      	bne.n	80087ee <UART_RxISR_16BIT+0xfa>
 8008820:	687b      	ldr	r3, [r7, #4]
 8008822:	6e1b      	ldr	r3, [r3, #96]	@ 0x60
 8008824:	2b01      	cmp	r3, #1
 8008826:	d12e      	bne.n	8008886 <UART_RxISR_16BIT+0x192>
 8008828:	687b      	ldr	r3, [r7, #4]
 800882a:	2200      	movs	r2, #0
 800882c:	661a      	str	r2, [r3, #96]	@ 0x60
 800882e:	687b      	ldr	r3, [r7, #4]
 8008830:	681b      	ldr	r3, [r3, #0]
 8008832:	60fb      	str	r3, [r7, #12]
 8008834:	68fb      	ldr	r3, [r7, #12]
 8008836:	e853 3f00 	ldrex	r3, [r3]
 800883a:	60bb      	str	r3, [r7, #8]
 800883c:	68bb      	ldr	r3, [r7, #8]
 800883e:	f023 0310 	bic.w	r3, r3, #16
 8008842:	65bb      	str	r3, [r7, #88]	@ 0x58
 8008844:	687b      	ldr	r3, [r7, #4]
 8008846:	681b      	ldr	r3, [r3, #0]
 8008848:	461a      	mov	r2, r3
 800884a:	6dbb      	ldr	r3, [r7, #88]	@ 0x58
 800884c:	61bb      	str	r3, [r7, #24]
 800884e:	617a      	str	r2, [r7, #20]
 8008850:	6979      	ldr	r1, [r7, #20]
 8008852:	69ba      	ldr	r2, [r7, #24]
 8008854:	e841 2300 	strex	r3, r2, [r1]
 8008858:	613b      	str	r3, [r7, #16]
 800885a:	693b      	ldr	r3, [r7, #16]
 800885c:	2b00      	cmp	r3, #0
 800885e:	d1e6      	bne.n	800882e <UART_RxISR_16BIT+0x13a>
 8008860:	687b      	ldr	r3, [r7, #4]
 8008862:	681b      	ldr	r3, [r3, #0]
 8008864:	69db      	ldr	r3, [r3, #28]
 8008866:	f003 0310 	and.w	r3, r3, #16
 800886a:	2b10      	cmp	r3, #16
 800886c:	d103      	bne.n	8008876 <UART_RxISR_16BIT+0x182>
 800886e:	687b      	ldr	r3, [r7, #4]
 8008870:	681b      	ldr	r3, [r3, #0]
 8008872:	2210      	movs	r2, #16
 8008874:	621a      	str	r2, [r3, #32]
 8008876:	687b      	ldr	r3, [r7, #4]
 8008878:	f8b3 3058 	ldrh.w	r3, [r3, #88]	@ 0x58
 800887c:	4619      	mov	r1, r3
 800887e:	6878      	ldr	r0, [r7, #4]
 8008880:	f7ff f87a 	bl	8007978 <HAL_UARTEx_RxEventCallback>
 8008884:	e00d      	b.n	80088a2 <UART_RxISR_16BIT+0x1ae>
 8008886:	6878      	ldr	r0, [r7, #4]
 8008888:	f7f8 fd62 	bl	8001350 <HAL_UART_RxCpltCallback>
 800888c:	e009      	b.n	80088a2 <UART_RxISR_16BIT+0x1ae>
 800888e:	687b      	ldr	r3, [r7, #4]
 8008890:	681b      	ldr	r3, [r3, #0]
 8008892:	8b1b      	ldrh	r3, [r3, #24]
 8008894:	b29a      	uxth	r2, r3
 8008896:	687b      	ldr	r3, [r7, #4]
 8008898:	681b      	ldr	r3, [r3, #0]
 800889a:	f042 0208 	orr.w	r2, r2, #8
 800889e:	b292      	uxth	r2, r2
 80088a0:	831a      	strh	r2, [r3, #24]
 80088a2:	bf00      	nop
 80088a4:	3770      	adds	r7, #112	@ 0x70
 80088a6:	46bd      	mov	sp, r7
 80088a8:	bd80      	pop	{r7, pc}
 80088aa:	bf00      	nop
 80088ac:	40008000 	.word	0x40008000

080088b0 <HAL_UARTEx_WakeupCallback>:
 80088b0:	b480      	push	{r7}
 80088b2:	b083      	sub	sp, #12
 80088b4:	af00      	add	r7, sp, #0
 80088b6:	6078      	str	r0, [r7, #4]
 80088b8:	bf00      	nop
 80088ba:	370c      	adds	r7, #12
 80088bc:	46bd      	mov	sp, r7
 80088be:	f85d 7b04 	ldr.w	r7, [sp], #4
 80088c2:	4770      	bx	lr

080088c4 <memset>:
 80088c4:	4402      	add	r2, r0
 80088c6:	4603      	mov	r3, r0
 80088c8:	4293      	cmp	r3, r2
 80088ca:	d100      	bne.n	80088ce <memset+0xa>
 80088cc:	4770      	bx	lr
 80088ce:	f803 1b01 	strb.w	r1, [r3], #1
 80088d2:	e7f9      	b.n	80088c8 <memset+0x4>

080088d4 <__libc_init_array>:
 80088d4:	b570      	push	{r4, r5, r6, lr}
 80088d6:	4d0d      	ldr	r5, [pc, #52]	@ (800890c <__libc_init_array+0x38>)
 80088d8:	4c0d      	ldr	r4, [pc, #52]	@ (8008910 <__libc_init_array+0x3c>)
 80088da:	1b64      	subs	r4, r4, r5
 80088dc:	10a4      	asrs	r4, r4, #2
 80088de:	2600      	movs	r6, #0
 80088e0:	42a6      	cmp	r6, r4
 80088e2:	d109      	bne.n	80088f8 <__libc_init_array+0x24>
 80088e4:	4d0b      	ldr	r5, [pc, #44]	@ (8008914 <__libc_init_array+0x40>)
 80088e6:	4c0c      	ldr	r4, [pc, #48]	@ (8008918 <__libc_init_array+0x44>)
 80088e8:	f000 f826 	bl	8008938 <_init>
 80088ec:	1b64      	subs	r4, r4, r5
 80088ee:	10a4      	asrs	r4, r4, #2
 80088f0:	2600      	movs	r6, #0
 80088f2:	42a6      	cmp	r6, r4
 80088f4:	d105      	bne.n	8008902 <__libc_init_array+0x2e>
 80088f6:	bd70      	pop	{r4, r5, r6, pc}
 80088f8:	f855 3b04 	ldr.w	r3, [r5], #4
 80088fc:	4798      	blx	r3
 80088fe:	3601      	adds	r6, #1
 8008900:	e7ee      	b.n	80088e0 <__libc_init_array+0xc>
 8008902:	f855 3b04 	ldr.w	r3, [r5], #4
 8008906:	4798      	blx	r3
 8008908:	3601      	adds	r6, #1
 800890a:	e7f2      	b.n	80088f2 <__libc_init_array+0x1e>
 800890c:	080089a0 	.word	0x080089a0
 8008910:	080089a0 	.word	0x080089a0
 8008914:	080089a0 	.word	0x080089a0
 8008918:	080089a4 	.word	0x080089a4

0800891c <memcpy>:
 800891c:	440a      	add	r2, r1
 800891e:	4291      	cmp	r1, r2
 8008920:	f100 33ff 	add.w	r3, r0, #4294967295
 8008924:	d100      	bne.n	8008928 <memcpy+0xc>
 8008926:	4770      	bx	lr
 8008928:	b510      	push	{r4, lr}
 800892a:	f811 4b01 	ldrb.w	r4, [r1], #1
 800892e:	f803 4f01 	strb.w	r4, [r3, #1]!
 8008932:	4291      	cmp	r1, r2
 8008934:	d1f9      	bne.n	800892a <memcpy+0xe>
 8008936:	bd10      	pop	{r4, pc}

08008938 <_init>:
 8008938:	b5f8      	push	{r3, r4, r5, r6, r7, lr}
 800893a:	bf00      	nop
 800893c:	bcf8      	pop	{r3, r4, r5, r6, r7}
 800893e:	bc08      	pop	{r3}
 8008940:	469e      	mov	lr, r3
 8008942:	4770      	bx	lr

08008944 <_fini>:
 8008944:	b5f8      	push	{r3, r4, r5, r6, r7, lr}
 8008946:	bf00      	nop
 8008948:	bcf8      	pop	{r3, r4, r5, r6, r7}
 800894a:	bc08      	pop	{r3}
 800894c:	469e      	mov	lr, r3
 800894e:	4770      	bx	lr
